; Listing generated by Microsoft (R) Optimizing Compiler Version 19.34.31937.0 

	TITLE	D:\__Repos\__MyRepos\Raven_VS2022\Raven\Debug\class.obj
	.686P
	.XMM
	include listing.inc
	.model	flat

INCLUDELIB LIBCMTD
INCLUDELIB OLDNAMES

PUBLIC	?nil@luabind@@3Unil_type@detail@1@A		; luabind::nil
_BSS	SEGMENT
?nil@luabind@@3Unil_type@detail@1@A DB 01H DUP (?)	; luabind::nil
_BSS	ENDS
CONST	SEGMENT
?piecewise_construct@std@@3Upiecewise_construct_t@1@B	ORG $+1 ; std::piecewise_construct
?yield@luabind@@3U?$policy_cons@Uyield_policy@detail@luabind@@Unull_type@23@@detail@1@B	ORG $+1 ; luabind::yield
	ORG $+2
$SG120298 DB	'invalid argument', 00H
	ORG $+3
$SG120299 DB	'%s', 00H
	ORG $+1
$SG120302 DB	00H, 00H
	ORG $+2
$SG120300 DB	'C:\Program Files\Microsoft Visual Studio\2022\Community\'
	DB	'VC\Tools\MSVC\14.34.31933\include\xmemory', 00H
	ORG $+2
$SG112189 DB	'l', 00H, 'u', 00H, 'a', 00H, '_', 00H, 't', 00H, 'y', 00H
	DB	'p', 00H, 'e', 00H, '(', 00H, 'L', 00H, ',', 00H, ' ', 00H, '-'
	DB	00H, '1', 00H, ')', 00H, ' ', 00H, '=', 00H, '=', 00H, ' ', 00H
	DB	'L', 00H, 'U', 00H, 'A', 00H, '_', 00H, 'T', 00H, 'T', 00H, 'A'
	DB	00H, 'B', 00H, 'L', 00H, 'E', 00H, 00H, 00H
$SG120301 DB	'C', 00H, ':', 00H, '\', 00H, 'P', 00H, 'r', 00H, 'o', 00H
	DB	'g', 00H, 'r', 00H, 'a', 00H, 'm', 00H, ' ', 00H, 'F', 00H, 'i'
	DB	00H, 'l', 00H, 'e', 00H, 's', 00H, '\', 00H, 'M', 00H, 'i', 00H
	DB	'c', 00H, 'r', 00H, 'o', 00H, 's', 00H, 'o', 00H, 'f', 00H, 't'
	DB	00H, ' ', 00H, 'V', 00H, 'i', 00H, 's', 00H, 'u', 00H, 'a', 00H
	DB	'l', 00H, ' ', 00H, 'S', 00H, 't', 00H, 'u', 00H, 'd', 00H, 'i'
	DB	00H, 'o', 00H, '\', 00H, '2', 00H, '0', 00H, '2', 00H, '2', 00H
	DB	'\', 00H, 'C', 00H, 'o', 00H, 'm', 00H, 'm', 00H, 'u', 00H, 'n'
	DB	00H, 'i', 00H, 't', 00H, 'y', 00H, '\', 00H, 'V', 00H, 'C', 00H
	DB	'\', 00H, 'T', 00H, 'o', 00H, 'o', 00H, 'l', 00H, 's', 00H, '\'
	DB	00H, 'M', 00H, 'S', 00H, 'V', 00H, 'C', 00H, '\', 00H, '1', 00H
	DB	'4', 00H, '.', 00H, '3', 00H, '4', 00H, '.', 00H, '3', 00H, '1'
	DB	00H, '9', 00H, '3', 00H, '3', 00H, '\', 00H, 'i', 00H, 'n', 00H
	DB	'c', 00H, 'l', 00H, 'u', 00H, 'd', 00H, 'e', 00H, '\', 00H, 'x'
	DB	00H, 'm', 00H, 'e', 00H, 'm', 00H, 'o', 00H, 'r', 00H, 'y', 00H
	DB	00H, 00H
$SG120303 DB	'"', 00H, 'i', 00H, 'n', 00H, 'v', 00H, 'a', 00H, 'l', 00H
	DB	'i', 00H, 'd', 00H, ' ', 00H, 'a', 00H, 'r', 00H, 'g', 00H, 'u'
	DB	00H, 'm', 00H, 'e', 00H, 'n', 00H, 't', 00H, '"', 00H, 00H, 00H
	ORG $+2
$SG112190 DB	'__luabind_class_map', 00H
$SG112188 DB	'D', 00H, ':', 00H, '\', 00H, '_', 00H, '_', 00H, 'R', 00H
	DB	'e', 00H, 'p', 00H, 'o', 00H, 's', 00H, '\', 00H, '_', 00H, '_'
	DB	00H, 'M', 00H, 'y', 00H, 'R', 00H, 'e', 00H, 'p', 00H, 'o', 00H
	DB	's', 00H, '\', 00H, 'R', 00H, 'a', 00H, 'v', 00H, 'e', 00H, 'n'
	DB	00H, '_', 00H, 'V', 00H, 'S', 00H, '2', 00H, '0', 00H, '2', 00H
	DB	'2', 00H, '\', 00H, 'C', 00H, 'o', 00H, 'm', 00H, 'm', 00H, 'o'
	DB	00H, 'n', 00H, '\', 00H, 'l', 00H, 'u', 00H, 'a', 00H, 'b', 00H
	DB	'i', 00H, 'n', 00H, 'd', 00H, '-', 00H, '0', 00H, '.', 00H, '9'
	DB	00H, '.', 00H, '1', 00H, '\', 00H, 's', 00H, 'r', 00H, 'c', 00H
	DB	'\', 00H, 'c', 00H, 'l', 00H, 'a', 00H, 's', 00H, 's', 00H, '.'
	DB	00H, 'c', 00H, 'p', 00H, 'p', 00H, 00H, 00H
	ORG $+2
$SG112192 DB	'__luabind_cast_graph', 00H
	ORG $+3
$SG112193 DB	'__luabind_class_id_map', 00H
	ORG $+1
$SG112367 DB	' [', 00H
	ORG $+1
$SG112368 DB	']', 00H
	ORG $+2
$SG112380 DB	'L', 00H, 00H, 00H
$SG112379 DB	'D', 00H, ':', 00H, '\', 00H, '_', 00H, '_', 00H, 'R', 00H
	DB	'e', 00H, 'p', 00H, 'o', 00H, 's', 00H, '\', 00H, '_', 00H, '_'
	DB	00H, 'M', 00H, 'y', 00H, 'R', 00H, 'e', 00H, 'p', 00H, 'o', 00H
	DB	's', 00H, '\', 00H, 'R', 00H, 'a', 00H, 'v', 00H, 'e', 00H, 'n'
	DB	00H, '_', 00H, 'V', 00H, 'S', 00H, '2', 00H, '0', 00H, '2', 00H
	DB	'2', 00H, '\', 00H, 'C', 00H, 'o', 00H, 'm', 00H, 'm', 00H, 'o'
	DB	00H, 'n', 00H, '\', 00H, 'l', 00H, 'u', 00H, 'a', 00H, 'b', 00H
	DB	'i', 00H, 'n', 00H, 'd', 00H, '-', 00H, '0', 00H, '.', 00H, '9'
	DB	00H, '.', 00H, '1', 00H, '\', 00H, 's', 00H, 'r', 00H, 'c', 00H
	DB	'\', 00H, 'c', 00H, 'l', 00H, 'a', 00H, 's', 00H, 's', 00H, '.'
	DB	00H, 'c', 00H, 'p', 00H, 'p', 00H, 00H, 00H
	ORG $+2
$SG112383 DB	'custom', 00H
CONST	ENDS
PUBLIC	?__empty_global_delete@@YAXPAX@Z		; __empty_global_delete
PUBLIC	?__empty_global_delete@@YAXPAXI@Z		; __empty_global_delete
PUBLIC	??2@YAPAXIPAX@Z					; operator new
PUBLIC	??Bauto_any_base@foreach_detail_@boost@@QBE_NXZ	; boost::foreach_detail_::auto_any_base::operator bool
PUBLIC	?set_false@foreach_detail_@boost@@YA_NAA_N@Z	; boost::foreach_detail_::set_false
PUBLIC	?max@?$numeric_limits@H@std@@SAHXZ		; std::numeric_limits<int>::max
PUBLIC	??0exception@std@@QAE@QBDH@Z			; std::exception::exception
PUBLIC	??0exception@std@@QAE@ABV01@@Z			; std::exception::exception
PUBLIC	??1exception@std@@UAE@XZ			; std::exception::~exception
PUBLIC	?what@exception@std@@UBEPBDXZ			; std::exception::what
PUBLIC	??_Gexception@std@@UAEPAXI@Z			; std::exception::`scalar deleting destructor'
PUBLIC	??0bad_alloc@std@@AAE@QBD@Z			; std::bad_alloc::bad_alloc
PUBLIC	??1bad_alloc@std@@UAE@XZ			; std::bad_alloc::~bad_alloc
PUBLIC	??0bad_alloc@std@@QAE@ABV01@@Z			; std::bad_alloc::bad_alloc
PUBLIC	??_Gbad_alloc@std@@UAEPAXI@Z			; std::bad_alloc::`scalar deleting destructor'
PUBLIC	??0bad_array_new_length@std@@QAE@XZ		; std::bad_array_new_length::bad_array_new_length
PUBLIC	??1bad_array_new_length@std@@UAE@XZ		; std::bad_array_new_length::~bad_array_new_length
PUBLIC	??0bad_array_new_length@std@@QAE@ABV01@@Z	; std::bad_array_new_length::bad_array_new_length
PUBLIC	??_Gbad_array_new_length@std@@UAEPAXI@Z		; std::bad_array_new_length::`scalar deleting destructor'
PUBLIC	?_Throw_bad_array_new_length@std@@YAXXZ		; std::_Throw_bad_array_new_length
PUBLIC	?_Allocate@_Default_allocate_traits@std@@SAPAXI@Z ; std::_Default_allocate_traits::_Allocate
PUBLIC	?_Adjust_manually_vector_aligned@std@@YAXAAPAXAAI@Z ; std::_Adjust_manually_vector_aligned
PUBLIC	??0_Container_proxy@std@@QAE@PAU_Container_base12@1@@Z ; std::_Container_proxy::_Container_proxy
PUBLIC	??0_Container_base12@std@@QAE@XZ		; std::_Container_base12::_Container_base12
PUBLIC	?_Orphan_all@_Container_base12@std@@QAEXXZ	; std::_Container_base12::_Orphan_all
PUBLIC	?_Swap_proxy_and_iterators@_Container_base12@std@@QAEXAAU12@@Z ; std::_Container_base12::_Swap_proxy_and_iterators
PUBLIC	?_Orphan_all_unlocked_v3@_Container_base12@std@@AAEXXZ ; std::_Container_base12::_Orphan_all_unlocked_v3
PUBLIC	?_Swap_proxy_and_iterators_unlocked@_Container_base12@std@@AAEXAAU12@@Z ; std::_Container_base12::_Swap_proxy_and_iterators_unlocked
PUBLIC	?_Orphan_all_locked_v3@_Container_base12@std@@AAEXXZ ; std::_Container_base12::_Orphan_all_locked_v3
PUBLIC	?_Swap_proxy_and_iterators_locked@_Container_base12@std@@AAEXAAU12@@Z ; std::_Container_base12::_Swap_proxy_and_iterators_locked
PUBLIC	??0_Iterator_base12@std@@QAE@XZ			; std::_Iterator_base12::_Iterator_base12
PUBLIC	??0_Iterator_base12@std@@QAE@ABU01@@Z		; std::_Iterator_base12::_Iterator_base12
PUBLIC	??4_Iterator_base12@std@@QAEAAU01@ABU01@@Z	; std::_Iterator_base12::operator=
PUBLIC	??1_Iterator_base12@std@@QAE@XZ			; std::_Iterator_base12::~_Iterator_base12
PUBLIC	?_Adopt@_Iterator_base12@std@@QAEXPBU_Container_base12@2@@Z ; std::_Iterator_base12::_Adopt
PUBLIC	?_Getcont@_Iterator_base12@std@@QBEPBU_Container_base12@2@XZ ; std::_Iterator_base12::_Getcont
PUBLIC	?_Assign_unlocked@_Iterator_base12@std@@AAEXABU12@@Z ; std::_Iterator_base12::_Assign_unlocked
PUBLIC	?_Assign_locked@_Iterator_base12@std@@AAEXABU12@@Z ; std::_Iterator_base12::_Assign_locked
PUBLIC	?_Adopt_unlocked@_Iterator_base12@std@@AAEXPBU_Container_base12@2@@Z ; std::_Iterator_base12::_Adopt_unlocked
PUBLIC	?_Adopt_locked@_Iterator_base12@std@@AAEXPBU_Container_base12@2@@Z ; std::_Iterator_base12::_Adopt_locked
PUBLIC	?_Orphan_me_unlocked_v3@_Iterator_base12@std@@AAEXXZ ; std::_Iterator_base12::_Orphan_me_unlocked_v3
PUBLIC	?_Orphan_me_locked_v3@_Iterator_base12@std@@AAEXXZ ; std::_Iterator_base12::_Orphan_me_locked_v3
PUBLIC	??$exchange@PAU_Iterator_base12@std@@$$T@std@@YAPAU_Iterator_base12@0@AAPAU10@$$QA$$T@Z ; std::exchange<std::_Iterator_base12 *,std::nullptr_t>
PUBLIC	?_Release@_Basic_container_proxy_ptr12@std@@QAEXXZ ; std::_Basic_container_proxy_ptr12::_Release
PUBLIC	??0_Basic_container_proxy_ptr12@std@@IAE@XZ	; std::_Basic_container_proxy_ptr12::_Basic_container_proxy_ptr12
PUBLIC	?copy@?$_Char_traits@DH@std@@SAPADQADQBDI@Z	; std::_Char_traits<char,int>::copy
PUBLIC	?move@?$_Char_traits@DH@std@@SAPADQADQBDI@Z	; std::_Char_traits<char,int>::move
PUBLIC	?length@?$_Narrow_char_traits@DH@std@@SAIQBD@Z	; std::_Narrow_char_traits<char,int>::length
PUBLIC	?assign@?$_Narrow_char_traits@DH@std@@SAXAADABD@Z ; std::_Narrow_char_traits<char,int>::assign
PUBLIC	?_Xlen_string@std@@YAXXZ			; std::_Xlen_string
PUBLIC	??0?$allocator@D@std@@QAE@XZ			; std::allocator<char>::allocator<char>
PUBLIC	?deallocate@?$allocator@D@std@@QAEXQADI@Z	; std::allocator<char>::deallocate
PUBLIC	?allocate@?$allocator@D@std@@QAEPADI@Z		; std::allocator<char>::allocate
PUBLIC	?max_size@?$_Default_allocator_traits@V?$allocator@D@std@@@std@@SAIABV?$allocator@D@2@@Z ; std::_Default_allocator_traits<std::allocator<char> >::max_size
PUBLIC	??0?$_String_val@U?$_Simple_types@D@std@@@std@@QAE@XZ ; std::_String_val<std::_Simple_types<char> >::_String_val<std::_Simple_types<char> >
PUBLIC	?_Myptr@?$_String_val@U?$_Simple_types@D@std@@@std@@QAEPADXZ ; std::_String_val<std::_Simple_types<char> >::_Myptr
PUBLIC	?_Large_string_engaged@?$_String_val@U?$_Simple_types@D@std@@@std@@QBE_NXZ ; std::_String_val<std::_Simple_types<char> >::_Large_string_engaged
PUBLIC	?_Activate_SSO_buffer@?$_String_val@U?$_Simple_types@D@std@@@std@@QAEXXZ ; std::_String_val<std::_Simple_types<char> >::_Activate_SSO_buffer
PUBLIC	??0_Bxty@?$_String_val@U?$_Simple_types@D@std@@@std@@QAE@XZ ; std::_String_val<std::_Simple_types<char> >::_Bxty::_Bxty
PUBLIC	??1_Bxty@?$_String_val@U?$_Simple_types@D@std@@@std@@QAE@XZ ; std::_String_val<std::_Simple_types<char> >::_Bxty::~_Bxty
PUBLIC	??1?$_String_val@U?$_Simple_types@D@std@@@std@@QAE@XZ ; std::_String_val<std::_Simple_types<char> >::~_String_val<std::_Simple_types<char> >
PUBLIC	??0?$basic_string@DU?$char_traits@D@std@@V?$allocator@D@2@@std@@QAE@XZ ; std::basic_string<char,std::char_traits<char>,std::allocator<char> >::basic_string<char,std::char_traits<char>,std::allocator<char> >
PUBLIC	??0?$basic_string@DU?$char_traits@D@std@@V?$allocator@D@2@@std@@QAE@$$QAV01@@Z ; std::basic_string<char,std::char_traits<char>,std::allocator<char> >::basic_string<char,std::char_traits<char>,std::allocator<char> >
PUBLIC	?_Memcpy_val_from@?$basic_string@DU?$char_traits@D@std@@V?$allocator@D@2@@std@@AAEXABV12@@Z ; std::basic_string<char,std::char_traits<char>,std::allocator<char> >::_Memcpy_val_from
PUBLIC	?_Take_contents@?$basic_string@DU?$char_traits@D@std@@V?$allocator@D@2@@std@@AAEXAAV12@@Z ; std::basic_string<char,std::char_traits<char>,std::allocator<char> >::_Take_contents
PUBLIC	??1?$basic_string@DU?$char_traits@D@std@@V?$allocator@D@2@@std@@QAE@XZ ; std::basic_string<char,std::char_traits<char>,std::allocator<char> >::~basic_string<char,std::char_traits<char>,std::allocator<char> >
PUBLIC	??4?$basic_string@DU?$char_traits@D@std@@V?$allocator@D@2@@std@@QAEAAV01@QBD@Z ; std::basic_string<char,std::char_traits<char>,std::allocator<char> >::operator=
PUBLIC	??Y?$basic_string@DU?$char_traits@D@std@@V?$allocator@D@2@@std@@QAEAAV01@QBD@Z ; std::basic_string<char,std::char_traits<char>,std::allocator<char> >::operator+=
PUBLIC	?append@?$basic_string@DU?$char_traits@D@std@@V?$allocator@D@2@@std@@QAEAAV12@QBDI@Z ; std::basic_string<char,std::char_traits<char>,std::allocator<char> >::append
PUBLIC	?append@?$basic_string@DU?$char_traits@D@std@@V?$allocator@D@2@@std@@QAEAAV12@QBD@Z ; std::basic_string<char,std::char_traits<char>,std::allocator<char> >::append
PUBLIC	?assign@?$basic_string@DU?$char_traits@D@std@@V?$allocator@D@2@@std@@QAEAAV12@QBDI@Z ; std::basic_string<char,std::char_traits<char>,std::allocator<char> >::assign
PUBLIC	?assign@?$basic_string@DU?$char_traits@D@std@@V?$allocator@D@2@@std@@QAEAAV12@QBD@Z ; std::basic_string<char,std::char_traits<char>,std::allocator<char> >::assign
PUBLIC	?max_size@?$basic_string@DU?$char_traits@D@std@@V?$allocator@D@2@@std@@QBEIXZ ; std::basic_string<char,std::char_traits<char>,std::allocator<char> >::max_size
PUBLIC	?_Calculate_growth@?$basic_string@DU?$char_traits@D@std@@V?$allocator@D@2@@std@@CAIIII@Z ; std::basic_string<char,std::char_traits<char>,std::allocator<char> >::_Calculate_growth
PUBLIC	?_Calculate_growth@?$basic_string@DU?$char_traits@D@std@@V?$allocator@D@2@@std@@ABEII@Z ; std::basic_string<char,std::char_traits<char>,std::allocator<char> >::_Calculate_growth
PUBLIC	?_Tidy_init@?$basic_string@DU?$char_traits@D@std@@V?$allocator@D@2@@std@@AAEXXZ ; std::basic_string<char,std::char_traits<char>,std::allocator<char> >::_Tidy_init
PUBLIC	?_Tidy_deallocate@?$basic_string@DU?$char_traits@D@std@@V?$allocator@D@2@@std@@AAEXXZ ; std::basic_string<char,std::char_traits<char>,std::allocator<char> >::_Tidy_deallocate
PUBLIC	?_Swap_proxy_and_iterators@?$basic_string@DU?$char_traits@D@std@@V?$allocator@D@2@@std@@AAEXAAV12@@Z ; std::basic_string<char,std::char_traits<char>,std::allocator<char> >::_Swap_proxy_and_iterators
PUBLIC	?_Getal@?$basic_string@DU?$char_traits@D@std@@V?$allocator@D@2@@std@@AAEAAV?$allocator@D@2@XZ ; std::basic_string<char,std::char_traits<char>,std::allocator<char> >::_Getal
PUBLIC	?_Getal@?$basic_string@DU?$char_traits@D@std@@V?$allocator@D@2@@std@@ABEABV?$allocator@D@2@XZ ; std::basic_string<char,std::char_traits<char>,std::allocator<char> >::_Getal
PUBLIC	?_Get_first@?$_Compressed_pair@V?$allocator@D@std@@V?$_String_val@U?$_Simple_types@D@std@@@2@$00@std@@QAEAAV?$allocator@D@2@XZ ; std::_Compressed_pair<std::allocator<char>,std::_String_val<std::_Simple_types<char> >,1>::_Get_first
PUBLIC	?_Get_first@?$_Compressed_pair@V?$allocator@D@std@@V?$_String_val@U?$_Simple_types@D@std@@@2@$00@std@@QBEABV?$allocator@D@2@XZ ; std::_Compressed_pair<std::allocator<char>,std::_String_val<std::_Simple_types<char> >,1>::_Get_first
PUBLIC	??1?$_Compressed_pair@V?$allocator@D@std@@V?$_String_val@U?$_Simple_types@D@std@@@2@$00@std@@QAE@XZ ; std::_Compressed_pair<std::allocator<char>,std::_String_val<std::_Simple_types<char> >,1>::~_Compressed_pair<std::allocator<char>,std::_String_val<std::_Simple_types<char> >,1>
PUBLIC	??0?$tuple@$$V@std@@QAE@ABV01@@Z		; std::tuple<>::tuple<>
PUBLIC	?_Throw_tree_length_error@std@@YAXXZ		; std::_Throw_tree_length_error
PUBLIC	?before@type_info@@QBE_NABV1@@Z			; type_info::before
PUBLIC	?name@type_info@@QBEPBDXZ			; type_info::name
PUBLIC	??Rltstr@detail@luabind@@QBE_NPBD0@Z		; luabind::detail::ltstr::operator()
PUBLIC	??0type_id@luabind@@QAE@XZ			; luabind::type_id::type_id
PUBLIC	??0type_id@luabind@@QAE@ABVtype_info@@@Z	; luabind::type_id::type_id
PUBLIC	??Mtype_id@luabind@@QBE_NABV01@@Z		; luabind::type_id::operator<
PUBLIC	?name@type_id@luabind@@QBEPBDXZ			; luabind::type_id::name
PUBLIC	??R?$less@Vtype_id@luabind@@@std@@QBE_NABVtype_id@luabind@@0@Z ; std::less<luabind::type_id>::operator()
PUBLIC	?put@class_id_map@detail@luabind@@QAEXIABVtype_id@3@@Z ; luabind::detail::class_id_map::put
PUBLIC	?deallocate@?$allocator@U?$_Tree_node@U?$pair@$$CBVtype_id@luabind@@I@std@@PAX@std@@@std@@QAEXQAU?$_Tree_node@U?$pair@$$CBVtype_id@luabind@@I@std@@PAX@2@I@Z ; std::allocator<std::_Tree_node<std::pair<luabind::type_id const ,unsigned int>,void *> >::deallocate
PUBLIC	?allocate@?$allocator@U?$_Tree_node@U?$pair@$$CBVtype_id@luabind@@I@std@@PAX@std@@@std@@QAEPAU?$_Tree_node@U?$pair@$$CBVtype_id@luabind@@I@std@@PAX@2@I@Z ; std::allocator<std::_Tree_node<std::pair<luabind::type_id const ,unsigned int>,void *> >::allocate
PUBLIC	?max_size@?$_Default_allocator_traits@V?$allocator@U?$_Tree_node@U?$pair@$$CBVtype_id@luabind@@I@std@@PAX@std@@@std@@@std@@SAIABV?$allocator@U?$_Tree_node@U?$pair@$$CBVtype_id@luabind@@I@std@@PAX@std@@@2@@Z ; std::_Default_allocator_traits<std::allocator<std::_Tree_node<std::pair<luabind::type_id const ,unsigned int>,void *> > >::max_size
PUBLIC	?max_size@?$_Tree@V?$_Tmap_traits@Vtype_id@luabind@@IU?$less@Vtype_id@luabind@@@std@@V?$allocator@U?$pair@$$CBVtype_id@luabind@@I@std@@@4@$0A@@std@@@std@@QBEIXZ ; std::_Tree<std::_Tmap_traits<luabind::type_id,unsigned int,std::less<luabind::type_id>,std::allocator<std::pair<luabind::type_id const ,unsigned int> >,0> >::max_size
PUBLIC	?_Check_grow_by_1@?$_Tree@V?$_Tmap_traits@Vtype_id@luabind@@IU?$less@Vtype_id@luabind@@@std@@V?$allocator@U?$pair@$$CBVtype_id@luabind@@I@std@@@4@$0A@@std@@@std@@IAEXXZ ; std::_Tree<std::_Tmap_traits<luabind::type_id,unsigned int,std::less<luabind::type_id>,std::allocator<std::pair<luabind::type_id const ,unsigned int> >,0> >::_Check_grow_by_1
PUBLIC	?_Getcomp@?$_Tree@V?$_Tmap_traits@Vtype_id@luabind@@IU?$less@Vtype_id@luabind@@@std@@V?$allocator@U?$pair@$$CBVtype_id@luabind@@I@std@@@4@$0A@@std@@@std@@IBEABU?$less@Vtype_id@luabind@@@2@XZ ; std::_Tree<std::_Tmap_traits<luabind::type_id,unsigned int,std::less<luabind::type_id>,std::allocator<std::pair<luabind::type_id const ,unsigned int> >,0> >::_Getcomp
PUBLIC	?_Getal@?$_Tree@V?$_Tmap_traits@Vtype_id@luabind@@IU?$less@Vtype_id@luabind@@@std@@V?$allocator@U?$pair@$$CBVtype_id@luabind@@I@std@@@4@$0A@@std@@@std@@IAEAAV?$allocator@U?$_Tree_node@U?$pair@$$CBVtype_id@luabind@@I@std@@PAX@std@@@2@XZ ; std::_Tree<std::_Tmap_traits<luabind::type_id,unsigned int,std::less<luabind::type_id>,std::allocator<std::pair<luabind::type_id const ,unsigned int> >,0> >::_Getal
PUBLIC	?_Getal@?$_Tree@V?$_Tmap_traits@Vtype_id@luabind@@IU?$less@Vtype_id@luabind@@@std@@V?$allocator@U?$pair@$$CBVtype_id@luabind@@I@std@@@4@$0A@@std@@@std@@IBEABV?$allocator@U?$_Tree_node@U?$pair@$$CBVtype_id@luabind@@I@std@@PAX@std@@@2@XZ ; std::_Tree<std::_Tmap_traits<luabind::type_id,unsigned int,std::less<luabind::type_id>,std::allocator<std::pair<luabind::type_id const ,unsigned int> >,0> >::_Getal
PUBLIC	?_Get_scary@?$_Tree@V?$_Tmap_traits@Vtype_id@luabind@@IU?$less@Vtype_id@luabind@@@std@@V?$allocator@U?$pair@$$CBVtype_id@luabind@@I@std@@@4@$0A@@std@@@std@@IAEPAV?$_Tree_val@U?$_Tree_simple_types@U?$pair@$$CBVtype_id@luabind@@I@std@@@std@@@2@XZ ; std::_Tree<std::_Tmap_traits<luabind::type_id,unsigned int,std::less<luabind::type_id>,std::allocator<std::pair<luabind::type_id const ,unsigned int> >,0> >::_Get_scary
PUBLIC	?_Get_scary@?$_Tree@V?$_Tmap_traits@Vtype_id@luabind@@IU?$less@Vtype_id@luabind@@@std@@V?$allocator@U?$pair@$$CBVtype_id@luabind@@I@std@@@4@$0A@@std@@@std@@IBEPBV?$_Tree_val@U?$_Tree_simple_types@U?$pair@$$CBVtype_id@luabind@@I@std@@@std@@@2@XZ ; std::_Tree<std::_Tmap_traits<luabind::type_id,unsigned int,std::less<luabind::type_id>,std::allocator<std::pair<luabind::type_id const ,unsigned int> >,0> >::_Get_scary
PUBLIC	?_Lrotate@?$_Tree_val@U?$_Tree_simple_types@U?$pair@$$CBVtype_id@luabind@@I@std@@@std@@@std@@QAEXPAU?$_Tree_node@U?$pair@$$CBVtype_id@luabind@@I@std@@PAX@2@@Z ; std::_Tree_val<std::_Tree_simple_types<std::pair<luabind::type_id const ,unsigned int> > >::_Lrotate
PUBLIC	?_Rrotate@?$_Tree_val@U?$_Tree_simple_types@U?$pair@$$CBVtype_id@luabind@@I@std@@@std@@@std@@QAEXPAU?$_Tree_node@U?$pair@$$CBVtype_id@luabind@@I@std@@PAX@2@@Z ; std::_Tree_val<std::_Tree_simple_types<std::pair<luabind::type_id const ,unsigned int> > >::_Rrotate
PUBLIC	?_Insert_node@?$_Tree_val@U?$_Tree_simple_types@U?$pair@$$CBVtype_id@luabind@@I@std@@@std@@@std@@QAEPAU?$_Tree_node@U?$pair@$$CBVtype_id@luabind@@I@std@@PAX@2@U?$_Tree_id@PAU?$_Tree_node@U?$pair@$$CBVtype_id@luabind@@I@std@@PAX@std@@@2@QAU32@@Z ; std::_Tree_val<std::_Tree_simple_types<std::pair<luabind::type_id const ,unsigned int> > >::_Insert_node
PUBLIC	?_Get_first@?$_Compressed_pair@V?$allocator@U?$_Tree_node@U?$pair@$$CBVtype_id@luabind@@I@std@@PAX@std@@@std@@V?$_Tree_val@U?$_Tree_simple_types@U?$pair@$$CBVtype_id@luabind@@I@std@@@std@@@2@$00@std@@QAEAAV?$allocator@U?$_Tree_node@U?$pair@$$CBVtype_id@luabind@@I@std@@PAX@std@@@2@XZ ; std::_Compressed_pair<std::allocator<std::_Tree_node<std::pair<luabind::type_id const ,unsigned int>,void *> >,std::_Tree_val<std::_Tree_simple_types<std::pair<luabind::type_id const ,unsigned int> > >,1>::_Get_first
PUBLIC	?_Get_first@?$_Compressed_pair@V?$allocator@U?$_Tree_node@U?$pair@$$CBVtype_id@luabind@@I@std@@PAX@std@@@std@@V?$_Tree_val@U?$_Tree_simple_types@U?$pair@$$CBVtype_id@luabind@@I@std@@@std@@@2@$00@std@@QBEABV?$allocator@U?$_Tree_node@U?$pair@$$CBVtype_id@luabind@@I@std@@PAX@std@@@2@XZ ; std::_Compressed_pair<std::allocator<std::_Tree_node<std::pair<luabind::type_id const ,unsigned int>,void *> >,std::_Tree_val<std::_Tree_simple_types<std::pair<luabind::type_id const ,unsigned int> > >,1>::_Get_first
PUBLIC	?_Get_first@?$_Compressed_pair@U?$less@Vtype_id@luabind@@@std@@V?$_Compressed_pair@V?$allocator@U?$_Tree_node@U?$pair@$$CBVtype_id@luabind@@I@std@@PAX@std@@@std@@V?$_Tree_val@U?$_Tree_simple_types@U?$pair@$$CBVtype_id@luabind@@I@std@@@std@@@2@$00@2@$00@std@@QBEABU?$less@Vtype_id@luabind@@@2@XZ ; std::_Compressed_pair<std::less<luabind::type_id>,std::_Compressed_pair<std::allocator<std::_Tree_node<std::pair<luabind::type_id const ,unsigned int>,void *> >,std::_Tree_val<std::_Tree_simple_types<std::pair<luabind::type_id const ,unsigned int> > >,1>,1>::_Get_first
PUBLIC	??0?$_Tree_unchecked_const_iterator@V?$_Tree_val@U?$_Tree_simple_types@U?$pair@$$CBVtype_id@luabind@@I@std@@@std@@@std@@U_Iterator_base12@2@@std@@QAE@PAU?$_Tree_node@U?$pair@$$CBVtype_id@luabind@@I@std@@PAX@1@PBV?$_Tree_val@U?$_Tree_simple_types@U?$pair@$$CBVtype_id@luabind@@I@std@@@std@@@1@@Z ; std::_Tree_unchecked_const_iterator<std::_Tree_val<std::_Tree_simple_types<std::pair<luabind::type_id const ,unsigned int> > >,std::_Iterator_base12>::_Tree_unchecked_const_iterator<std::_Tree_val<std::_Tree_simple_types<std::pair<luabind::type_id const ,unsigned int> > >,std::_Iterator_base12>
PUBLIC	??1?$_Tree_unchecked_const_iterator@V?$_Tree_val@U?$_Tree_simple_types@U?$pair@$$CBVtype_id@luabind@@I@std@@@std@@@std@@U_Iterator_base12@2@@std@@QAE@XZ ; std::_Tree_unchecked_const_iterator<std::_Tree_val<std::_Tree_simple_types<std::pair<luabind::type_id const ,unsigned int> > >,std::_Iterator_base12>::~_Tree_unchecked_const_iterator<std::_Tree_val<std::_Tree_simple_types<std::pair<luabind::type_id const ,unsigned int> > >,std::_Iterator_base12>
PUBLIC	??0?$_Tree_unchecked_const_iterator@V?$_Tree_val@U?$_Tree_simple_types@U?$pair@$$CBVtype_id@luabind@@I@std@@@std@@@std@@U_Iterator_base12@2@@std@@QAE@$$QAV01@@Z ; std::_Tree_unchecked_const_iterator<std::_Tree_val<std::_Tree_simple_types<std::pair<luabind::type_id const ,unsigned int> > >,std::_Iterator_base12>::_Tree_unchecked_const_iterator<std::_Tree_val<std::_Tree_simple_types<std::pair<luabind::type_id const ,unsigned int> > >,std::_Iterator_base12>
PUBLIC	??D?$_Tree_const_iterator@V?$_Tree_val@U?$_Tree_simple_types@U?$pair@$$CBVtype_id@luabind@@I@std@@@std@@@std@@@std@@QBEABU?$pair@$$CBVtype_id@luabind@@I@1@XZ ; std::_Tree_const_iterator<std::_Tree_val<std::_Tree_simple_types<std::pair<luabind::type_id const ,unsigned int> > > >::operator*
PUBLIC	??1?$_Tree_const_iterator@V?$_Tree_val@U?$_Tree_simple_types@U?$pair@$$CBVtype_id@luabind@@I@std@@@std@@@std@@@std@@QAE@XZ ; std::_Tree_const_iterator<std::_Tree_val<std::_Tree_simple_types<std::pair<luabind::type_id const ,unsigned int> > > >::~_Tree_const_iterator<std::_Tree_val<std::_Tree_simple_types<std::pair<luabind::type_id const ,unsigned int> > > >
PUBLIC	??0?$_Tree_const_iterator@V?$_Tree_val@U?$_Tree_simple_types@U?$pair@$$CBVtype_id@luabind@@I@std@@@std@@@std@@@std@@QAE@$$QAV01@@Z ; std::_Tree_const_iterator<std::_Tree_val<std::_Tree_simple_types<std::pair<luabind::type_id const ,unsigned int> > > >::_Tree_const_iterator<std::_Tree_val<std::_Tree_simple_types<std::pair<luabind::type_id const ,unsigned int> > > >
PUBLIC	??0?$_Tree_const_iterator@V?$_Tree_val@U?$_Tree_simple_types@U?$pair@$$CBVtype_id@luabind@@I@std@@@std@@@std@@@std@@QAE@PAU?$_Tree_node@U?$pair@$$CBVtype_id@luabind@@I@std@@PAX@1@PBV?$_Tree_val@U?$_Tree_simple_types@U?$pair@$$CBVtype_id@luabind@@I@std@@@std@@@1@@Z ; std::_Tree_const_iterator<std::_Tree_val<std::_Tree_simple_types<std::pair<luabind::type_id const ,unsigned int> > > >::_Tree_const_iterator<std::_Tree_val<std::_Tree_simple_types<std::pair<luabind::type_id const ,unsigned int> > > >
PUBLIC	??D?$_Tree_iterator@V?$_Tree_val@U?$_Tree_simple_types@U?$pair@$$CBVtype_id@luabind@@I@std@@@std@@@std@@@std@@QBEAAU?$pair@$$CBVtype_id@luabind@@I@1@XZ ; std::_Tree_iterator<std::_Tree_val<std::_Tree_simple_types<std::pair<luabind::type_id const ,unsigned int> > > >::operator*
PUBLIC	??C?$_Tree_iterator@V?$_Tree_val@U?$_Tree_simple_types@U?$pair@$$CBVtype_id@luabind@@I@std@@@std@@@std@@@std@@QBEPAU?$pair@$$CBVtype_id@luabind@@I@1@XZ ; std::_Tree_iterator<std::_Tree_val<std::_Tree_simple_types<std::pair<luabind::type_id const ,unsigned int> > > >::operator->
PUBLIC	??1?$_Tree_iterator@V?$_Tree_val@U?$_Tree_simple_types@U?$pair@$$CBVtype_id@luabind@@I@std@@@std@@@std@@@std@@QAE@XZ ; std::_Tree_iterator<std::_Tree_val<std::_Tree_simple_types<std::pair<luabind::type_id const ,unsigned int> > > >::~_Tree_iterator<std::_Tree_val<std::_Tree_simple_types<std::pair<luabind::type_id const ,unsigned int> > > >
PUBLIC	??0?$_Tree_iterator@V?$_Tree_val@U?$_Tree_simple_types@U?$pair@$$CBVtype_id@luabind@@I@std@@@std@@@std@@@std@@QAE@$$QAV01@@Z ; std::_Tree_iterator<std::_Tree_val<std::_Tree_simple_types<std::pair<luabind::type_id const ,unsigned int> > > >::_Tree_iterator<std::_Tree_val<std::_Tree_simple_types<std::pair<luabind::type_id const ,unsigned int> > > >
PUBLIC	??0?$_Tree_iterator@V?$_Tree_val@U?$_Tree_simple_types@U?$pair@$$CBVtype_id@luabind@@I@std@@@std@@@std@@@std@@QAE@PAU?$_Tree_node@U?$pair@$$CBVtype_id@luabind@@I@std@@PAX@1@PBV?$_Tree_val@U?$_Tree_simple_types@U?$pair@$$CBVtype_id@luabind@@I@std@@@std@@@1@@Z ; std::_Tree_iterator<std::_Tree_val<std::_Tree_simple_types<std::pair<luabind::type_id const ,unsigned int> > > >::_Tree_iterator<std::_Tree_val<std::_Tree_simple_types<std::pair<luabind::type_id const ,unsigned int> > > >
PUBLIC	??1?$pair@V?$_Tree_iterator@V?$_Tree_val@U?$_Tree_simple_types@U?$pair@$$CBVtype_id@luabind@@I@std@@@std@@@std@@@std@@_N@std@@QAE@XZ ; std::pair<std::_Tree_iterator<std::_Tree_val<std::_Tree_simple_types<std::pair<luabind::type_id const ,unsigned int> > > >,bool>::~pair<std::_Tree_iterator<std::_Tree_val<std::_Tree_simple_types<std::pair<luabind::type_id const ,unsigned int> > > >,bool>
PUBLIC	??$make_pair@ABVtype_id@luabind@@H@std@@YA?AU?$pair@Vtype_id@luabind@@H@0@ABVtype_id@luabind@@$$QAH@Z ; std::make_pair<luabind::type_id const &,int>
PUBLIC	??$?0Vtype_id@luabind@@H$0A@@?$pair@$$CBVtype_id@luabind@@I@std@@QAE@$$QAU?$pair@Vtype_id@luabind@@H@1@@Z ; std::pair<luabind::type_id const ,unsigned int>::pair<luabind::type_id const ,unsigned int><luabind::type_id,int,0>
PUBLIC	??$insert@U?$pair@Vtype_id@luabind@@H@std@@$0A@@?$map@Vtype_id@luabind@@IU?$less@Vtype_id@luabind@@@std@@V?$allocator@U?$pair@$$CBVtype_id@luabind@@I@std@@@4@@std@@QAE?AU?$pair@V?$_Tree_iterator@V?$_Tree_val@U?$_Tree_simple_types@U?$pair@$$CBVtype_id@luabind@@I@std@@@std@@@std@@@std@@_N@1@$$QAU?$pair@Vtype_id@luabind@@H@1@@Z ; std::map<luabind::type_id,unsigned int,std::less<luabind::type_id>,std::allocator<std::pair<luabind::type_id const ,unsigned int> > >::insert<std::pair<luabind::type_id,int>,0>
PUBLIC	?put@class_map@detail@luabind@@QAEXIPAVclass_rep@23@@Z ; luabind::detail::class_map::put
PUBLIC	?deallocate@?$allocator@PAVclass_rep@detail@luabind@@@std@@QAEXQAPAVclass_rep@detail@luabind@@I@Z ; std::allocator<luabind::detail::class_rep *>::deallocate
PUBLIC	?allocate@?$allocator@PAVclass_rep@detail@luabind@@@std@@QAEPAPAVclass_rep@detail@luabind@@I@Z ; std::allocator<luabind::detail::class_rep *>::allocate
PUBLIC	?max_size@?$_Default_allocator_traits@V?$allocator@PAVclass_rep@detail@luabind@@@std@@@std@@SAIABV?$allocator@PAVclass_rep@detail@luabind@@@2@@Z ; std::_Default_allocator_traits<std::allocator<luabind::detail::class_rep *> >::max_size
PUBLIC	?resize@?$vector@PAVclass_rep@detail@luabind@@V?$allocator@PAVclass_rep@detail@luabind@@@std@@@std@@QAEXI@Z ; std::vector<luabind::detail::class_rep *,std::allocator<luabind::detail::class_rep *> >::resize
PUBLIC	?size@?$vector@PAVclass_rep@detail@luabind@@V?$allocator@PAVclass_rep@detail@luabind@@@std@@@std@@QBEIXZ ; std::vector<luabind::detail::class_rep *,std::allocator<luabind::detail::class_rep *> >::size
PUBLIC	?max_size@?$vector@PAVclass_rep@detail@luabind@@V?$allocator@PAVclass_rep@detail@luabind@@@std@@@std@@QBEIXZ ; std::vector<luabind::detail::class_rep *,std::allocator<luabind::detail::class_rep *> >::max_size
PUBLIC	?capacity@?$vector@PAVclass_rep@detail@luabind@@V?$allocator@PAVclass_rep@detail@luabind@@@std@@@std@@QBEIXZ ; std::vector<luabind::detail::class_rep *,std::allocator<luabind::detail::class_rep *> >::capacity
PUBLIC	??A?$vector@PAVclass_rep@detail@luabind@@V?$allocator@PAVclass_rep@detail@luabind@@@std@@@std@@QAEAAPAVclass_rep@detail@luabind@@I@Z ; std::vector<luabind::detail::class_rep *,std::allocator<luabind::detail::class_rep *> >::operator[]
PUBLIC	?_Calculate_growth@?$vector@PAVclass_rep@detail@luabind@@V?$allocator@PAVclass_rep@detail@luabind@@@std@@@std@@ABEII@Z ; std::vector<luabind::detail::class_rep *,std::allocator<luabind::detail::class_rep *> >::_Calculate_growth
PUBLIC	?_Change_array@?$vector@PAVclass_rep@detail@luabind@@V?$allocator@PAVclass_rep@detail@luabind@@@std@@@std@@AAEXQAPAVclass_rep@detail@luabind@@II@Z ; std::vector<luabind::detail::class_rep *,std::allocator<luabind::detail::class_rep *> >::_Change_array
PUBLIC	?_Xlength@?$vector@PAVclass_rep@detail@luabind@@V?$allocator@PAVclass_rep@detail@luabind@@@std@@@std@@CAXXZ ; std::vector<luabind::detail::class_rep *,std::allocator<luabind::detail::class_rep *> >::_Xlength
PUBLIC	?_Orphan_range_unlocked@?$vector@PAVclass_rep@detail@luabind@@V?$allocator@PAVclass_rep@detail@luabind@@@std@@@std@@ABEXPAPAVclass_rep@detail@luabind@@0@Z ; std::vector<luabind::detail::class_rep *,std::allocator<luabind::detail::class_rep *> >::_Orphan_range_unlocked
PUBLIC	?_Orphan_range_locked@?$vector@PAVclass_rep@detail@luabind@@V?$allocator@PAVclass_rep@detail@luabind@@@std@@@std@@ABEXPAPAVclass_rep@detail@luabind@@0@Z ; std::vector<luabind::detail::class_rep *,std::allocator<luabind::detail::class_rep *> >::_Orphan_range_locked
PUBLIC	?_Orphan_range@?$vector@PAVclass_rep@detail@luabind@@V?$allocator@PAVclass_rep@detail@luabind@@@std@@@std@@ABEXPAPAVclass_rep@detail@luabind@@0@Z ; std::vector<luabind::detail::class_rep *,std::allocator<luabind::detail::class_rep *> >::_Orphan_range
PUBLIC	?_Getal@?$vector@PAVclass_rep@detail@luabind@@V?$allocator@PAVclass_rep@detail@luabind@@@std@@@std@@AAEAAV?$allocator@PAVclass_rep@detail@luabind@@@2@XZ ; std::vector<luabind::detail::class_rep *,std::allocator<luabind::detail::class_rep *> >::_Getal
PUBLIC	?_Getal@?$vector@PAVclass_rep@detail@luabind@@V?$allocator@PAVclass_rep@detail@luabind@@@std@@@std@@ABEABV?$allocator@PAVclass_rep@detail@luabind@@@2@XZ ; std::vector<luabind::detail::class_rep *,std::allocator<luabind::detail::class_rep *> >::_Getal
PUBLIC	?_Get_first@?$_Compressed_pair@V?$allocator@PAVclass_rep@detail@luabind@@@std@@V?$_Vector_val@U?$_Simple_types@PAVclass_rep@detail@luabind@@@std@@@2@$00@std@@QAEAAV?$allocator@PAVclass_rep@detail@luabind@@@2@XZ ; std::_Compressed_pair<std::allocator<luabind::detail::class_rep *>,std::_Vector_val<std::_Simple_types<luabind::detail::class_rep *> >,1>::_Get_first
PUBLIC	?_Get_first@?$_Compressed_pair@V?$allocator@PAVclass_rep@detail@luabind@@@std@@V?$_Vector_val@U?$_Simple_types@PAVclass_rep@detail@luabind@@@std@@@2@$00@std@@QBEABV?$allocator@PAVclass_rep@detail@luabind@@@2@XZ ; std::_Compressed_pair<std::allocator<luabind::detail::class_rep *>,std::_Vector_val<std::_Simple_types<luabind::detail::class_rep *> >,1>::_Get_first
PUBLIC	?push@handle@luabind@@QBEXPAUlua_State@@@Z	; luabind::handle::push
PUBLIC	?name@class_rep@detail@luabind@@QBEPBDXZ	; luabind::detail::class_rep::name
PUBLIC	?get_table@class_rep@detail@luabind@@QBEXPAUlua_State@@@Z ; luabind::detail::class_rep::get_table
PUBLIC	?get_default_table@class_rep@detail@luabind@@QBEXPAUlua_State@@@Z ; luabind::detail::class_rep::get_default_table
PUBLIC	??0?$allocator@U?$_Tree_node@U?$pair@QBDH@std@@PAX@std@@@std@@QAE@XZ ; std::allocator<std::_Tree_node<std::pair<char const * const,int>,void *> >::allocator<std::_Tree_node<std::pair<char const * const,int>,void *> >
PUBLIC	?deallocate@?$allocator@U?$_Tree_node@U?$pair@QBDH@std@@PAX@std@@@std@@QAEXQAU?$_Tree_node@U?$pair@QBDH@std@@PAX@2@I@Z ; std::allocator<std::_Tree_node<std::pair<char const * const,int>,void *> >::deallocate
PUBLIC	?allocate@?$allocator@U?$_Tree_node@U?$pair@QBDH@std@@PAX@std@@@std@@QAEPAU?$_Tree_node@U?$pair@QBDH@std@@PAX@2@I@Z ; std::allocator<std::_Tree_node<std::pair<char const * const,int>,void *> >::allocate
PUBLIC	?deallocate@?$_Default_allocator_traits@V?$allocator@U?$_Tree_node@U?$pair@QBDH@std@@PAX@std@@@std@@@std@@SAXAAV?$allocator@U?$_Tree_node@U?$pair@QBDH@std@@PAX@std@@@2@QAU?$_Tree_node@U?$pair@QBDH@std@@PAX@2@I@Z ; std::_Default_allocator_traits<std::allocator<std::_Tree_node<std::pair<char const * const,int>,void *> > >::deallocate
PUBLIC	?max_size@?$_Default_allocator_traits@V?$allocator@U?$_Tree_node@U?$pair@QBDH@std@@PAX@std@@@std@@@std@@SAIABV?$allocator@U?$_Tree_node@U?$pair@QBDH@std@@PAX@std@@@2@@Z ; std::_Default_allocator_traits<std::allocator<std::_Tree_node<std::pair<char const * const,int>,void *> > >::max_size
PUBLIC	??0?$_Tree@V?$_Tmap_traits@PBDHUltstr@detail@luabind@@V?$allocator@U?$pair@QBDH@std@@@std@@$0A@@std@@@std@@QAE@ABUltstr@detail@luabind@@@Z ; std::_Tree<std::_Tmap_traits<char const *,int,luabind::detail::ltstr,std::allocator<std::pair<char const * const,int> >,0> >::_Tree<std::_Tmap_traits<char const *,int,luabind::detail::ltstr,std::allocator<std::pair<char const * const,int> >,0> >
PUBLIC	?_Swap_val_excluding_comp@?$_Tree@V?$_Tmap_traits@PBDHUltstr@detail@luabind@@V?$allocator@U?$pair@QBDH@std@@@std@@$0A@@std@@@std@@AAEXAAV12@@Z ; std::_Tree<std::_Tmap_traits<char const *,int,luabind::detail::ltstr,std::allocator<std::pair<char const * const,int> >,0> >::_Swap_val_excluding_comp
PUBLIC	??1?$_Tree@V?$_Tmap_traits@PBDHUltstr@detail@luabind@@V?$allocator@U?$pair@QBDH@std@@@std@@$0A@@std@@@std@@QAE@XZ ; std::_Tree<std::_Tmap_traits<char const *,int,luabind::detail::ltstr,std::allocator<std::pair<char const * const,int> >,0> >::~_Tree<std::_Tmap_traits<char const *,int,luabind::detail::ltstr,std::allocator<std::pair<char const * const,int> >,0> >
PUBLIC	?max_size@?$_Tree@V?$_Tmap_traits@PBDHUltstr@detail@luabind@@V?$allocator@U?$pair@QBDH@std@@@std@@$0A@@std@@@std@@QBEIXZ ; std::_Tree<std::_Tmap_traits<char const *,int,luabind::detail::ltstr,std::allocator<std::pair<char const * const,int> >,0> >::max_size
PUBLIC	?swap@?$_Tree@V?$_Tmap_traits@PBDHUltstr@detail@luabind@@V?$allocator@U?$pair@QBDH@std@@@std@@$0A@@std@@@std@@QAEXAAV12@@Z ; std::_Tree<std::_Tmap_traits<char const *,int,luabind::detail::ltstr,std::allocator<std::pair<char const * const,int> >,0> >::swap
PUBLIC	?_Check_grow_by_1@?$_Tree@V?$_Tmap_traits@PBDHUltstr@detail@luabind@@V?$allocator@U?$pair@QBDH@std@@@std@@$0A@@std@@@std@@IAEXXZ ; std::_Tree<std::_Tmap_traits<char const *,int,luabind::detail::ltstr,std::allocator<std::pair<char const * const,int> >,0> >::_Check_grow_by_1
PUBLIC	?_Alloc_sentinel_and_proxy@?$_Tree@V?$_Tmap_traits@PBDHUltstr@detail@luabind@@V?$allocator@U?$pair@QBDH@std@@@std@@$0A@@std@@@std@@IAEXXZ ; std::_Tree<std::_Tmap_traits<char const *,int,luabind::detail::ltstr,std::allocator<std::pair<char const * const,int> >,0> >::_Alloc_sentinel_and_proxy
PUBLIC	?_Getcomp@?$_Tree@V?$_Tmap_traits@PBDHUltstr@detail@luabind@@V?$allocator@U?$pair@QBDH@std@@@std@@$0A@@std@@@std@@IAEAAUltstr@detail@luabind@@XZ ; std::_Tree<std::_Tmap_traits<char const *,int,luabind::detail::ltstr,std::allocator<std::pair<char const * const,int> >,0> >::_Getcomp
PUBLIC	?_Getcomp@?$_Tree@V?$_Tmap_traits@PBDHUltstr@detail@luabind@@V?$allocator@U?$pair@QBDH@std@@@std@@$0A@@std@@@std@@IBEABUltstr@detail@luabind@@XZ ; std::_Tree<std::_Tmap_traits<char const *,int,luabind::detail::ltstr,std::allocator<std::pair<char const * const,int> >,0> >::_Getcomp
PUBLIC	?_Getal@?$_Tree@V?$_Tmap_traits@PBDHUltstr@detail@luabind@@V?$allocator@U?$pair@QBDH@std@@@std@@$0A@@std@@@std@@IAEAAV?$allocator@U?$_Tree_node@U?$pair@QBDH@std@@PAX@std@@@2@XZ ; std::_Tree<std::_Tmap_traits<char const *,int,luabind::detail::ltstr,std::allocator<std::pair<char const * const,int> >,0> >::_Getal
PUBLIC	?_Getal@?$_Tree@V?$_Tmap_traits@PBDHUltstr@detail@luabind@@V?$allocator@U?$pair@QBDH@std@@@std@@$0A@@std@@@std@@IBEABV?$allocator@U?$_Tree_node@U?$pair@QBDH@std@@PAX@std@@@2@XZ ; std::_Tree<std::_Tmap_traits<char const *,int,luabind::detail::ltstr,std::allocator<std::pair<char const * const,int> >,0> >::_Getal
PUBLIC	?_Get_scary@?$_Tree@V?$_Tmap_traits@PBDHUltstr@detail@luabind@@V?$allocator@U?$pair@QBDH@std@@@std@@$0A@@std@@@std@@IAEPAV?$_Tree_val@U?$_Tree_simple_types@U?$pair@QBDH@std@@@std@@@2@XZ ; std::_Tree<std::_Tmap_traits<char const *,int,luabind::detail::ltstr,std::allocator<std::pair<char const * const,int> >,0> >::_Get_scary
PUBLIC	?_Get_scary@?$_Tree@V?$_Tmap_traits@PBDHUltstr@detail@luabind@@V?$allocator@U?$pair@QBDH@std@@@std@@$0A@@std@@@std@@IBEPBV?$_Tree_val@U?$_Tree_simple_types@U?$pair@QBDH@std@@@std@@@2@XZ ; std::_Tree<std::_Tmap_traits<char const *,int,luabind::detail::ltstr,std::allocator<std::pair<char const * const,int> >,0> >::_Get_scary
PUBLIC	??0?$_Tree_val@U?$_Tree_simple_types@U?$pair@QBDH@std@@@std@@@std@@QAE@XZ ; std::_Tree_val<std::_Tree_simple_types<std::pair<char const * const,int> > >::_Tree_val<std::_Tree_simple_types<std::pair<char const * const,int> > >
PUBLIC	?_Lrotate@?$_Tree_val@U?$_Tree_simple_types@U?$pair@QBDH@std@@@std@@@std@@QAEXPAU?$_Tree_node@U?$pair@QBDH@std@@PAX@2@@Z ; std::_Tree_val<std::_Tree_simple_types<std::pair<char const * const,int> > >::_Lrotate
PUBLIC	?_Rrotate@?$_Tree_val@U?$_Tree_simple_types@U?$pair@QBDH@std@@@std@@@std@@QAEXPAU?$_Tree_node@U?$pair@QBDH@std@@PAX@2@@Z ; std::_Tree_val<std::_Tree_simple_types<std::pair<char const * const,int> > >::_Rrotate
PUBLIC	?_Insert_node@?$_Tree_val@U?$_Tree_simple_types@U?$pair@QBDH@std@@@std@@@std@@QAEPAU?$_Tree_node@U?$pair@QBDH@std@@PAX@2@U?$_Tree_id@PAU?$_Tree_node@U?$pair@QBDH@std@@PAX@std@@@2@QAU32@@Z ; std::_Tree_val<std::_Tree_simple_types<std::pair<char const * const,int> > >::_Insert_node
PUBLIC	?_Get_first@?$_Compressed_pair@V?$allocator@U?$_Tree_node@U?$pair@QBDH@std@@PAX@std@@@std@@V?$_Tree_val@U?$_Tree_simple_types@U?$pair@QBDH@std@@@std@@@2@$00@std@@QAEAAV?$allocator@U?$_Tree_node@U?$pair@QBDH@std@@PAX@std@@@2@XZ ; std::_Compressed_pair<std::allocator<std::_Tree_node<std::pair<char const * const,int>,void *> >,std::_Tree_val<std::_Tree_simple_types<std::pair<char const * const,int> > >,1>::_Get_first
PUBLIC	?_Get_first@?$_Compressed_pair@V?$allocator@U?$_Tree_node@U?$pair@QBDH@std@@PAX@std@@@std@@V?$_Tree_val@U?$_Tree_simple_types@U?$pair@QBDH@std@@@std@@@2@$00@std@@QBEABV?$allocator@U?$_Tree_node@U?$pair@QBDH@std@@PAX@std@@@2@XZ ; std::_Compressed_pair<std::allocator<std::_Tree_node<std::pair<char const * const,int>,void *> >,std::_Tree_val<std::_Tree_simple_types<std::pair<char const * const,int> > >,1>::_Get_first
PUBLIC	?_Get_first@?$_Compressed_pair@Ultstr@detail@luabind@@V?$_Compressed_pair@V?$allocator@U?$_Tree_node@U?$pair@QBDH@std@@PAX@std@@@std@@V?$_Tree_val@U?$_Tree_simple_types@U?$pair@QBDH@std@@@std@@@2@$00@std@@$00@std@@QAEAAUltstr@detail@luabind@@XZ ; std::_Compressed_pair<luabind::detail::ltstr,std::_Compressed_pair<std::allocator<std::_Tree_node<std::pair<char const * const,int>,void *> >,std::_Tree_val<std::_Tree_simple_types<std::pair<char const * const,int> > >,1>,1>::_Get_first
PUBLIC	?_Get_first@?$_Compressed_pair@Ultstr@detail@luabind@@V?$_Compressed_pair@V?$allocator@U?$_Tree_node@U?$pair@QBDH@std@@PAX@std@@@std@@V?$_Tree_val@U?$_Tree_simple_types@U?$pair@QBDH@std@@@std@@@2@$00@std@@$00@std@@QBEABUltstr@detail@luabind@@XZ ; std::_Compressed_pair<luabind::detail::ltstr,std::_Compressed_pair<std::allocator<std::_Tree_node<std::pair<char const * const,int>,void *> >,std::_Tree_val<std::_Tree_simple_types<std::pair<char const * const,int> > >,1>,1>::_Get_first
PUBLIC	??0?$map@PBDHUltstr@detail@luabind@@V?$allocator@U?$pair@QBDH@std@@@std@@@std@@QAE@XZ ; std::map<char const *,int,luabind::detail::ltstr,std::allocator<std::pair<char const * const,int> > >::map<char const *,int,luabind::detail::ltstr,std::allocator<std::pair<char const * const,int> > >
PUBLIC	?swap@?$map@PBDHUltstr@detail@luabind@@V?$allocator@U?$pair@QBDH@std@@@std@@@std@@QAEXAAV12@@Z ; std::map<char const *,int,luabind::detail::ltstr,std::allocator<std::pair<char const * const,int> > >::swap
PUBLIC	??A?$map@PBDHUltstr@detail@luabind@@V?$allocator@U?$pair@QBDH@std@@@std@@@std@@QAEAAHABQBD@Z ; std::map<char const *,int,luabind::detail::ltstr,std::allocator<std::pair<char const * const,int> > >::operator[]
PUBLIC	??1?$map@PBDHUltstr@detail@luabind@@V?$allocator@U?$pair@QBDH@std@@@std@@@std@@QAE@XZ ; std::map<char const *,int,luabind::detail::ltstr,std::allocator<std::pair<char const * const,int> > >::~map<char const *,int,luabind::detail::ltstr,std::allocator<std::pair<char const * const,int> > >
PUBLIC	??0stack_checker_type@detail@luabind@@QAE@PAUlua_State@@@Z ; luabind::detail::stack_checker_type::stack_checker_type
PUBLIC	??1stack_checker_type@detail@luabind@@QAE@XZ	; luabind::detail::stack_checker_type::~stack_checker_type
PUBLIC	??0in_place_init_t@optional_ns@boost@@QAE@Uinit_tag@012@@Z ; boost::optional_ns::in_place_init_t::in_place_init_t
PUBLIC	??0in_place_init_if_t@optional_ns@boost@@QAE@Uinit_tag@012@@Z ; boost::optional_ns::in_place_init_if_t::in_place_init_if_t
PUBLIC	?get_class_name@detail@luabind@@YA?AV?$basic_string@DU?$char_traits@D@std@@V?$allocator@D@2@@std@@PAUlua_State@@ABVtype_id@2@@Z ; luabind::detail::get_class_name
PUBLIC	??0class_base@detail@luabind@@QAE@PBD@Z		; luabind::detail::class_base::class_base
PUBLIC	?init@class_base@detail@luabind@@QAEXABVtype_id@3@I0I@Z ; luabind::detail::class_base::init
PUBLIC	?add_base@class_base@detail@luabind@@QAEXABVtype_id@3@P6APAXPAX@Z@Z ; luabind::detail::class_base::add_base
PUBLIC	?add_member@class_base@detail@luabind@@QAEXPAUregistration@23@@Z ; luabind::detail::class_base::add_member
PUBLIC	?add_default_member@class_base@detail@luabind@@QAEXPAUregistration@23@@Z ; luabind::detail::class_base::add_default_member
PUBLIC	?name@class_base@detail@luabind@@QBEPBDXZ	; luabind::detail::class_base::name
PUBLIC	?add_static_constant@class_base@detail@luabind@@QAEXPBDH@Z ; luabind::detail::class_base::add_static_constant
PUBLIC	?add_inner_scope@class_base@detail@luabind@@QAEXAAUscope@3@@Z ; luabind::detail::class_base::add_inner_scope
PUBLIC	?add_cast@class_base@detail@luabind@@QAEXIIP6APAXPAX@Z@Z ; luabind::detail::class_base::add_cast
PUBLIC	??0class_registration@detail@luabind@@QAE@PBD@Z	; luabind::detail::class_registration::class_registration
PUBLIC	?register_@class_registration@detail@luabind@@UBEXPAUlua_State@@@Z ; luabind::detail::class_registration::register_
PUBLIC	??0?$allocator@U?$pair@Vtype_id@luabind@@P6APAXPAX@Z@std@@@std@@QAE@XZ ; std::allocator<std::pair<luabind::type_id,void * (__cdecl*)(void *)> >::allocator<std::pair<luabind::type_id,void * (__cdecl*)(void *)> >
PUBLIC	?deallocate@?$allocator@U?$pair@Vtype_id@luabind@@P6APAXPAX@Z@std@@@std@@QAEXQAU?$pair@Vtype_id@luabind@@P6APAXPAX@Z@2@I@Z ; std::allocator<std::pair<luabind::type_id,void * (__cdecl*)(void *)> >::deallocate
PUBLIC	?allocate@?$allocator@U?$pair@Vtype_id@luabind@@P6APAXPAX@Z@std@@@std@@QAEPAU?$pair@Vtype_id@luabind@@P6APAXPAX@Z@2@I@Z ; std::allocator<std::pair<luabind::type_id,void * (__cdecl*)(void *)> >::allocate
PUBLIC	?max_size@?$_Default_allocator_traits@V?$allocator@U?$pair@Vtype_id@luabind@@P6APAXPAX@Z@std@@@std@@@std@@SAIABV?$allocator@U?$pair@Vtype_id@luabind@@P6APAXPAX@Z@std@@@2@@Z ; std::_Default_allocator_traits<std::allocator<std::pair<luabind::type_id,void * (__cdecl*)(void *)> > >::max_size
PUBLIC	??0?$vector@U?$pair@Vtype_id@luabind@@P6APAXPAX@Z@std@@V?$allocator@U?$pair@Vtype_id@luabind@@P6APAXPAX@Z@std@@@2@@std@@QAE@XZ ; std::vector<std::pair<luabind::type_id,void * (__cdecl*)(void *)>,std::allocator<std::pair<luabind::type_id,void * (__cdecl*)(void *)> > >::vector<std::pair<luabind::type_id,void * (__cdecl*)(void *)>,std::allocator<std::pair<luabind::type_id,void * (__cdecl*)(void *)> > >
PUBLIC	??1?$vector@U?$pair@Vtype_id@luabind@@P6APAXPAX@Z@std@@V?$allocator@U?$pair@Vtype_id@luabind@@P6APAXPAX@Z@std@@@2@@std@@QAE@XZ ; std::vector<std::pair<luabind::type_id,void * (__cdecl*)(void *)>,std::allocator<std::pair<luabind::type_id,void * (__cdecl*)(void *)> > >::~vector<std::pair<luabind::type_id,void * (__cdecl*)(void *)>,std::allocator<std::pair<luabind::type_id,void * (__cdecl*)(void *)> > >
PUBLIC	?push_back@?$vector@U?$pair@Vtype_id@luabind@@P6APAXPAX@Z@std@@V?$allocator@U?$pair@Vtype_id@luabind@@P6APAXPAX@Z@std@@@2@@std@@QAEX$$QAU?$pair@Vtype_id@luabind@@P6APAXPAX@Z@2@@Z ; std::vector<std::pair<luabind::type_id,void * (__cdecl*)(void *)>,std::allocator<std::pair<luabind::type_id,void * (__cdecl*)(void *)> > >::push_back
PUBLIC	?begin@?$vector@U?$pair@Vtype_id@luabind@@P6APAXPAX@Z@std@@V?$allocator@U?$pair@Vtype_id@luabind@@P6APAXPAX@Z@std@@@2@@std@@QAE?AV?$_Vector_iterator@V?$_Vector_val@U?$_Simple_types@U?$pair@Vtype_id@luabind@@P6APAXPAX@Z@std@@@std@@@std@@@2@XZ ; std::vector<std::pair<luabind::type_id,void * (__cdecl*)(void *)>,std::allocator<std::pair<luabind::type_id,void * (__cdecl*)(void *)> > >::begin
PUBLIC	?end@?$vector@U?$pair@Vtype_id@luabind@@P6APAXPAX@Z@std@@V?$allocator@U?$pair@Vtype_id@luabind@@P6APAXPAX@Z@std@@@2@@std@@QAE?AV?$_Vector_iterator@V?$_Vector_val@U?$_Simple_types@U?$pair@Vtype_id@luabind@@P6APAXPAX@Z@std@@@std@@@std@@@2@XZ ; std::vector<std::pair<luabind::type_id,void * (__cdecl*)(void *)>,std::allocator<std::pair<luabind::type_id,void * (__cdecl*)(void *)> > >::end
PUBLIC	?max_size@?$vector@U?$pair@Vtype_id@luabind@@P6APAXPAX@Z@std@@V?$allocator@U?$pair@Vtype_id@luabind@@P6APAXPAX@Z@std@@@2@@std@@QBEIXZ ; std::vector<std::pair<luabind::type_id,void * (__cdecl*)(void *)>,std::allocator<std::pair<luabind::type_id,void * (__cdecl*)(void *)> > >::max_size
PUBLIC	?capacity@?$vector@U?$pair@Vtype_id@luabind@@P6APAXPAX@Z@std@@V?$allocator@U?$pair@Vtype_id@luabind@@P6APAXPAX@Z@std@@@2@@std@@QBEIXZ ; std::vector<std::pair<luabind::type_id,void * (__cdecl*)(void *)>,std::allocator<std::pair<luabind::type_id,void * (__cdecl*)(void *)> > >::capacity
PUBLIC	?_Calculate_growth@?$vector@U?$pair@Vtype_id@luabind@@P6APAXPAX@Z@std@@V?$allocator@U?$pair@Vtype_id@luabind@@P6APAXPAX@Z@std@@@2@@std@@ABEII@Z ; std::vector<std::pair<luabind::type_id,void * (__cdecl*)(void *)>,std::allocator<std::pair<luabind::type_id,void * (__cdecl*)(void *)> > >::_Calculate_growth
PUBLIC	?_Change_array@?$vector@U?$pair@Vtype_id@luabind@@P6APAXPAX@Z@std@@V?$allocator@U?$pair@Vtype_id@luabind@@P6APAXPAX@Z@std@@@2@@std@@AAEXQAU?$pair@Vtype_id@luabind@@P6APAXPAX@Z@2@II@Z ; std::vector<std::pair<luabind::type_id,void * (__cdecl*)(void *)>,std::allocator<std::pair<luabind::type_id,void * (__cdecl*)(void *)> > >::_Change_array
PUBLIC	?_Tidy@?$vector@U?$pair@Vtype_id@luabind@@P6APAXPAX@Z@std@@V?$allocator@U?$pair@Vtype_id@luabind@@P6APAXPAX@Z@std@@@2@@std@@AAEXXZ ; std::vector<std::pair<luabind::type_id,void * (__cdecl*)(void *)>,std::allocator<std::pair<luabind::type_id,void * (__cdecl*)(void *)> > >::_Tidy
PUBLIC	?_Xlength@?$vector@U?$pair@Vtype_id@luabind@@P6APAXPAX@Z@std@@V?$allocator@U?$pair@Vtype_id@luabind@@P6APAXPAX@Z@std@@@2@@std@@CAXXZ ; std::vector<std::pair<luabind::type_id,void * (__cdecl*)(void *)>,std::allocator<std::pair<luabind::type_id,void * (__cdecl*)(void *)> > >::_Xlength
PUBLIC	?_Orphan_range_unlocked@?$vector@U?$pair@Vtype_id@luabind@@P6APAXPAX@Z@std@@V?$allocator@U?$pair@Vtype_id@luabind@@P6APAXPAX@Z@std@@@2@@std@@ABEXPAU?$pair@Vtype_id@luabind@@P6APAXPAX@Z@2@0@Z ; std::vector<std::pair<luabind::type_id,void * (__cdecl*)(void *)>,std::allocator<std::pair<luabind::type_id,void * (__cdecl*)(void *)> > >::_Orphan_range_unlocked
PUBLIC	?_Orphan_range_locked@?$vector@U?$pair@Vtype_id@luabind@@P6APAXPAX@Z@std@@V?$allocator@U?$pair@Vtype_id@luabind@@P6APAXPAX@Z@std@@@2@@std@@ABEXPAU?$pair@Vtype_id@luabind@@P6APAXPAX@Z@2@0@Z ; std::vector<std::pair<luabind::type_id,void * (__cdecl*)(void *)>,std::allocator<std::pair<luabind::type_id,void * (__cdecl*)(void *)> > >::_Orphan_range_locked
PUBLIC	?_Orphan_range@?$vector@U?$pair@Vtype_id@luabind@@P6APAXPAX@Z@std@@V?$allocator@U?$pair@Vtype_id@luabind@@P6APAXPAX@Z@std@@@2@@std@@ABEXPAU?$pair@Vtype_id@luabind@@P6APAXPAX@Z@2@0@Z ; std::vector<std::pair<luabind::type_id,void * (__cdecl*)(void *)>,std::allocator<std::pair<luabind::type_id,void * (__cdecl*)(void *)> > >::_Orphan_range
PUBLIC	?_Getal@?$vector@U?$pair@Vtype_id@luabind@@P6APAXPAX@Z@std@@V?$allocator@U?$pair@Vtype_id@luabind@@P6APAXPAX@Z@std@@@2@@std@@AAEAAV?$allocator@U?$pair@Vtype_id@luabind@@P6APAXPAX@Z@std@@@2@XZ ; std::vector<std::pair<luabind::type_id,void * (__cdecl*)(void *)>,std::allocator<std::pair<luabind::type_id,void * (__cdecl*)(void *)> > >::_Getal
PUBLIC	?_Getal@?$vector@U?$pair@Vtype_id@luabind@@P6APAXPAX@Z@std@@V?$allocator@U?$pair@Vtype_id@luabind@@P6APAXPAX@Z@std@@@2@@std@@ABEABV?$allocator@U?$pair@Vtype_id@luabind@@P6APAXPAX@Z@std@@@2@XZ ; std::vector<std::pair<luabind::type_id,void * (__cdecl*)(void *)>,std::allocator<std::pair<luabind::type_id,void * (__cdecl*)(void *)> > >::_Getal
PUBLIC	??0?$_Vector_val@U?$_Simple_types@U?$pair@Vtype_id@luabind@@P6APAXPAX@Z@std@@@std@@@std@@QAE@XZ ; std::_Vector_val<std::_Simple_types<std::pair<luabind::type_id,void * (__cdecl*)(void *)> > >::_Vector_val<std::_Simple_types<std::pair<luabind::type_id,void * (__cdecl*)(void *)> > >
PUBLIC	?_Get_first@?$_Compressed_pair@V?$allocator@U?$pair@Vtype_id@luabind@@P6APAXPAX@Z@std@@@std@@V?$_Vector_val@U?$_Simple_types@U?$pair@Vtype_id@luabind@@P6APAXPAX@Z@std@@@std@@@2@$00@std@@QAEAAV?$allocator@U?$pair@Vtype_id@luabind@@P6APAXPAX@Z@std@@@2@XZ ; std::_Compressed_pair<std::allocator<std::pair<luabind::type_id,void * (__cdecl*)(void *)> >,std::_Vector_val<std::_Simple_types<std::pair<luabind::type_id,void * (__cdecl*)(void *)> > >,1>::_Get_first
PUBLIC	?_Get_first@?$_Compressed_pair@V?$allocator@U?$pair@Vtype_id@luabind@@P6APAXPAX@Z@std@@@std@@V?$_Vector_val@U?$_Simple_types@U?$pair@Vtype_id@luabind@@P6APAXPAX@Z@std@@@std@@@2@$00@std@@QBEABV?$allocator@U?$pair@Vtype_id@luabind@@P6APAXPAX@Z@std@@@2@XZ ; std::_Compressed_pair<std::allocator<std::pair<luabind::type_id,void * (__cdecl*)(void *)> >,std::_Vector_val<std::_Simple_types<std::pair<luabind::type_id,void * (__cdecl*)(void *)> > >,1>::_Get_first
PUBLIC	??1class_registration@detail@luabind@@UAE@XZ	; luabind::detail::class_registration::~class_registration
PUBLIC	??_Gclass_registration@detail@luabind@@UAEPAXI@Z ; luabind::detail::class_registration::`scalar deleting destructor'
PUBLIC	??$swap@Ultstr@detail@luabind@@$0A@@std@@YAXAAUltstr@detail@luabind@@0@Z ; std::swap<luabind::detail::ltstr,0>
PUBLIC	??0?$_Vector_const_iterator@V?$_Vector_val@U?$_Simple_types@U?$pair@Vtype_id@luabind@@P6APAXPAX@Z@std@@@std@@@std@@@std@@QAE@PAU?$pair@Vtype_id@luabind@@P6APAXPAX@Z@1@PBU_Container_base12@1@@Z ; std::_Vector_const_iterator<std::_Vector_val<std::_Simple_types<std::pair<luabind::type_id,void * (__cdecl*)(void *)> > > >::_Vector_const_iterator<std::_Vector_val<std::_Simple_types<std::pair<luabind::type_id,void * (__cdecl*)(void *)> > > >
PUBLIC	??E?$_Vector_const_iterator@V?$_Vector_val@U?$_Simple_types@U?$pair@Vtype_id@luabind@@P6APAXPAX@Z@std@@@std@@@std@@@std@@QAEAAV01@XZ ; std::_Vector_const_iterator<std::_Vector_val<std::_Simple_types<std::pair<luabind::type_id,void * (__cdecl*)(void *)> > > >::operator++
PUBLIC	??8?$_Vector_const_iterator@V?$_Vector_val@U?$_Simple_types@U?$pair@Vtype_id@luabind@@P6APAXPAX@Z@std@@@std@@@std@@@std@@QBE_NABV01@@Z ; std::_Vector_const_iterator<std::_Vector_val<std::_Simple_types<std::pair<luabind::type_id,void * (__cdecl*)(void *)> > > >::operator==
PUBLIC	??9?$_Vector_const_iterator@V?$_Vector_val@U?$_Simple_types@U?$pair@Vtype_id@luabind@@P6APAXPAX@Z@std@@@std@@@std@@@std@@QBE_NABV01@@Z ; std::_Vector_const_iterator<std::_Vector_val<std::_Simple_types<std::pair<luabind::type_id,void * (__cdecl*)(void *)> > > >::operator!=
PUBLIC	?_Compat@?$_Vector_const_iterator@V?$_Vector_val@U?$_Simple_types@U?$pair@Vtype_id@luabind@@P6APAXPAX@Z@std@@@std@@@std@@@std@@QBEXABV12@@Z ; std::_Vector_const_iterator<std::_Vector_val<std::_Simple_types<std::pair<luabind::type_id,void * (__cdecl*)(void *)> > > >::_Compat
PUBLIC	??1?$_Vector_const_iterator@V?$_Vector_val@U?$_Simple_types@U?$pair@Vtype_id@luabind@@P6APAXPAX@Z@std@@@std@@@std@@@std@@QAE@XZ ; std::_Vector_const_iterator<std::_Vector_val<std::_Simple_types<std::pair<luabind::type_id,void * (__cdecl*)(void *)> > > >::~_Vector_const_iterator<std::_Vector_val<std::_Simple_types<std::pair<luabind::type_id,void * (__cdecl*)(void *)> > > >
PUBLIC	??C?$_Vector_iterator@V?$_Vector_val@U?$_Simple_types@U?$pair@Vtype_id@luabind@@P6APAXPAX@Z@std@@@std@@@std@@@std@@QBEPAU?$pair@Vtype_id@luabind@@P6APAXPAX@Z@1@XZ ; std::_Vector_iterator<std::_Vector_val<std::_Simple_types<std::pair<luabind::type_id,void * (__cdecl*)(void *)> > > >::operator->
PUBLIC	??E?$_Vector_iterator@V?$_Vector_val@U?$_Simple_types@U?$pair@Vtype_id@luabind@@P6APAXPAX@Z@std@@@std@@@std@@@std@@QAEAAV01@XZ ; std::_Vector_iterator<std::_Vector_val<std::_Simple_types<std::pair<luabind::type_id,void * (__cdecl*)(void *)> > > >::operator++
PUBLIC	??1?$_Vector_iterator@V?$_Vector_val@U?$_Simple_types@U?$pair@Vtype_id@luabind@@P6APAXPAX@Z@std@@@std@@@std@@@std@@QAE@XZ ; std::_Vector_iterator<std::_Vector_val<std::_Simple_types<std::pair<luabind::type_id,void * (__cdecl*)(void *)> > > >::~_Vector_iterator<std::_Vector_val<std::_Simple_types<std::pair<luabind::type_id,void * (__cdecl*)(void *)> > > >
PUBLIC	??0?$_Vector_iterator@V?$_Vector_val@U?$_Simple_types@U?$pair@Vtype_id@luabind@@P6APAXPAX@Z@std@@@std@@@std@@@std@@QAE@PAU?$pair@Vtype_id@luabind@@P6APAXPAX@Z@1@PBU_Container_base12@1@@Z ; std::_Vector_iterator<std::_Vector_val<std::_Simple_types<std::pair<luabind::type_id,void * (__cdecl*)(void *)> > > >::_Vector_iterator<std::_Vector_val<std::_Simple_types<std::pair<luabind::type_id,void * (__cdecl*)(void *)> > > >
PUBLIC	??0?$auto_ptr@Uregistration@detail@luabind@@@std@@QAE@PAUregistration@detail@luabind@@@Z ; std::auto_ptr<luabind::detail::registration>::auto_ptr<luabind::detail::registration>
PUBLIC	??0?$auto_ptr@Uregistration@detail@luabind@@@std@@QAE@AAV01@@Z ; std::auto_ptr<luabind::detail::registration>::auto_ptr<luabind::detail::registration>
PUBLIC	??0?$auto_ptr@Uregistration@detail@luabind@@@std@@QAE@U?$auto_ptr_ref@Uregistration@detail@luabind@@@1@@Z ; std::auto_ptr<luabind::detail::registration>::auto_ptr<luabind::detail::registration>
PUBLIC	??1?$auto_ptr@Uregistration@detail@luabind@@@std@@QAE@XZ ; std::auto_ptr<luabind::detail::registration>::~auto_ptr<luabind::detail::registration>
PUBLIC	?release@?$auto_ptr@Uregistration@detail@luabind@@@std@@QAEPAUregistration@detail@luabind@@XZ ; std::auto_ptr<luabind::detail::registration>::release
PUBLIC	??0?$auto_ptr_ref@Uregistration@detail@luabind@@@std@@QAE@PAUregistration@detail@luabind@@@Z ; std::auto_ptr_ref<luabind::detail::registration>::auto_ptr_ref<luabind::detail::registration>
PUBLIC	??$?BUregistration@detail@luabind@@@?$auto_ptr@Uregistration@detail@luabind@@@std@@QAE?AU?$auto_ptr_ref@Uregistration@detail@luabind@@@1@XZ ; std::auto_ptr<luabind::detail::registration>::operator<luabind::detail::registration> std::auto_ptr_ref<luabind::detail::registration>
PUBLIC	??$make_pair@ABVtype_id@luabind@@AAP6APAXPAX@Z@std@@YA?AU?$pair@Vtype_id@luabind@@P6APAXPAX@Z@0@ABVtype_id@luabind@@AAP6APAXPAX@Z@Z ; std::make_pair<luabind::type_id const &,void * (__cdecl*&)(void *)>
PUBLIC	?add_custom_name@detail@luabind@@YAXABVtype_id@2@AAV?$basic_string@DU?$char_traits@D@std@@V?$allocator@D@2@@std@@@Z ; luabind::detail::add_custom_name
PUBLIC	?allocate@?$allocator@U_Container_proxy@std@@@std@@QAEPAU_Container_proxy@2@I@Z ; std::allocator<std::_Container_proxy>::allocate
PUBLIC	??$exchange@PAU_Container_proxy@std@@$$T@std@@YAPAU_Container_proxy@0@AAPAU10@$$QA$$T@Z ; std::exchange<std::_Container_proxy *,std::nullptr_t>
PUBLIC	??$_Delete_plain_internal@V?$allocator@U_Container_proxy@std@@@std@@@std@@YAXAAV?$allocator@U_Container_proxy@std@@@0@QAU_Container_proxy@0@@Z ; std::_Delete_plain_internal<std::allocator<std::_Container_proxy> >
PUBLIC	??$_Alloc_proxy@V?$allocator@U_Container_proxy@std@@@std@@@_Container_base12@std@@QAEX$$QAV?$allocator@U_Container_proxy@std@@@1@@Z ; std::_Container_base12::_Alloc_proxy<std::allocator<std::_Container_proxy> >
PUBLIC	??$addressof@V?$_Vector_val@U?$_Simple_types@U?$pair@Vtype_id@luabind@@P6APAXPAX@Z@std@@@std@@@std@@@std@@YAPAV?$_Vector_val@U?$_Simple_types@U?$pair@Vtype_id@luabind@@P6APAXPAX@Z@std@@@std@@@0@AAV10@@Z ; std::addressof<std::_Vector_val<std::_Simple_types<std::pair<luabind::type_id,void * (__cdecl*)(void *)> > > >
PUBLIC	??$move@AAU?$pair@Vtype_id@luabind@@P6APAXPAX@Z@std@@@std@@YA$$QAU?$pair@Vtype_id@luabind@@P6APAXPAX@Z@0@AAU10@@Z ; std::move<std::pair<luabind::type_id,void * (__cdecl*)(void *)> &>
PUBLIC	??$_Emplace_one_at_back@U?$pair@Vtype_id@luabind@@P6APAXPAX@Z@std@@@?$vector@U?$pair@Vtype_id@luabind@@P6APAXPAX@Z@std@@V?$allocator@U?$pair@Vtype_id@luabind@@P6APAXPAX@Z@std@@@2@@std@@AAEAAU?$pair@Vtype_id@luabind@@P6APAXPAX@Z@1@$$QAU21@@Z ; std::vector<std::pair<luabind::type_id,void * (__cdecl*)(void *)>,std::allocator<std::pair<luabind::type_id,void * (__cdecl*)(void *)> > >::_Emplace_one_at_back<std::pair<luabind::type_id,void * (__cdecl*)(void *)> >
PUBLIC	??$?0U?$pair@Vtype_id@luabind@@P6APAXPAX@Z@std@@@?$allocator@U_Container_proxy@std@@@std@@QAE@ABV?$allocator@U?$pair@Vtype_id@luabind@@P6APAXPAX@Z@std@@@1@@Z ; std::allocator<std::_Container_proxy>::allocator<std::_Container_proxy><std::pair<luabind::type_id,void * (__cdecl*)(void *)> >
PUBLIC	??$?0$$V@?$_Compressed_pair@V?$allocator@U?$pair@Vtype_id@luabind@@P6APAXPAX@Z@std@@@std@@V?$_Vector_val@U?$_Simple_types@U?$pair@Vtype_id@luabind@@P6APAXPAX@Z@std@@@std@@@2@$00@std@@QAE@U_Zero_then_variadic_args_t@1@@Z ; std::_Compressed_pair<std::allocator<std::pair<luabind::type_id,void * (__cdecl*)(void *)> >,std::_Vector_val<std::_Simple_types<std::pair<luabind::type_id,void * (__cdecl*)(void *)> > >,1>::_Compressed_pair<std::allocator<std::pair<luabind::type_id,void * (__cdecl*)(void *)> >,std::_Vector_val<std::_Simple_types<std::pair<luabind::type_id,void * (__cdecl*)(void *)> > >,1><>
PUBLIC	??$_Try_emplace@ABQBD$$V@?$map@PBDHUltstr@detail@luabind@@V?$allocator@U?$pair@QBDH@std@@@std@@@std@@AAE?AU?$pair@PAU?$_Tree_node@U?$pair@QBDH@std@@PAX@std@@_N@1@ABQBD@Z ; std::map<char const *,int,luabind::detail::ltstr,std::allocator<std::pair<char const * const,int> > >::_Try_emplace<char const * const &>
PUBLIC	??$_Erase_head@V?$allocator@U?$_Tree_node@U?$pair@QBDH@std@@PAX@std@@@std@@@?$_Tree_val@U?$_Tree_simple_types@U?$pair@QBDH@std@@@std@@@std@@QAEXAAV?$allocator@U?$_Tree_node@U?$pair@QBDH@std@@PAX@std@@@1@@Z ; std::_Tree_val<std::_Tree_simple_types<std::pair<char const * const,int> > >::_Erase_head<std::allocator<std::_Tree_node<std::pair<char const * const,int>,void *> > >
PUBLIC	??$?0U?$_Tree_node@U?$pair@QBDH@std@@PAX@std@@@?$allocator@U_Container_proxy@std@@@std@@QAE@ABV?$allocator@U?$_Tree_node@U?$pair@QBDH@std@@PAX@std@@@1@@Z ; std::allocator<std::_Container_proxy>::allocator<std::_Container_proxy><std::_Tree_node<std::pair<char const * const,int>,void *> >
PUBLIC	??$_Resize@U_Value_init_tag@std@@@?$vector@PAVclass_rep@detail@luabind@@V?$allocator@PAVclass_rep@detail@luabind@@@std@@@std@@AAEXIABU_Value_init_tag@1@@Z ; std::vector<luabind::detail::class_rep *,std::allocator<luabind::detail::class_rep *> >::_Resize<std::_Value_init_tag>
PUBLIC	?pointer_to@?$pointer_traits@PAU?$pair@$$CBVtype_id@luabind@@I@std@@@std@@SAPAU?$pair@$$CBVtype_id@luabind@@I@2@AAU32@@Z ; std::pointer_traits<std::pair<luabind::type_id const ,unsigned int> *>::pointer_to
PUBLIC	??$_Convert_size@II@std@@YAII@Z			; std::_Convert_size<unsigned int,unsigned int>
PUBLIC	??$?0D@?$allocator@U_Container_proxy@std@@@std@@QAE@ABV?$allocator@D@1@@Z ; std::allocator<std::_Container_proxy>::allocator<std::_Container_proxy><char>
PUBLIC	??$move@AAV?$allocator@D@std@@@std@@YA$$QAV?$allocator@D@0@AAV10@@Z ; std::move<std::allocator<char> &>
PUBLIC	??$?0V?$allocator@D@std@@$$V@?$_Compressed_pair@V?$allocator@D@std@@V?$_String_val@U?$_Simple_types@D@std@@@2@$00@std@@QAE@U_One_then_variadic_args_t@1@$$QAV?$allocator@D@1@@Z ; std::_Compressed_pair<std::allocator<char>,std::_String_val<std::_Simple_types<char> >,1>::_Compressed_pair<std::allocator<char>,std::_String_val<std::_Simple_types<char> >,1><std::allocator<char> >
PUBLIC	??$?0$$V@?$_Compressed_pair@V?$allocator@D@std@@V?$_String_val@U?$_Simple_types@D@std@@@2@$00@std@@QAE@U_Zero_then_variadic_args_t@1@@Z ; std::_Compressed_pair<std::allocator<char>,std::_String_val<std::_Simple_types<char> >,1>::_Compressed_pair<std::allocator<char>,std::_String_val<std::_Simple_types<char> >,1><>
PUBLIC	??$addressof@U?$pair@$$CBVtype_id@luabind@@I@std@@@std@@YAPAU?$pair@$$CBVtype_id@luabind@@I@0@AAU10@@Z ; std::addressof<std::pair<luabind::type_id const ,unsigned int> >
PUBLIC	??$_Destroy_range@V?$allocator@U?$pair@Vtype_id@luabind@@P6APAXPAX@Z@std@@@std@@@std@@YAXPAU?$pair@Vtype_id@luabind@@P6APAXPAX@Z@0@QAU10@AAV?$allocator@U?$pair@Vtype_id@luabind@@P6APAXPAX@Z@std@@@0@@Z ; std::_Destroy_range<std::allocator<std::pair<luabind::type_id,void * (__cdecl*)(void *)> > >
PUBLIC	??$addressof@V?$_Tree_val@U?$_Tree_simple_types@U?$pair@QBDH@std@@@std@@@std@@@std@@YAPAV?$_Tree_val@U?$_Tree_simple_types@U?$pair@QBDH@std@@@std@@@0@AAV10@@Z ; std::addressof<std::_Tree_val<std::_Tree_simple_types<std::pair<char const * const,int> > > >
PUBLIC	??$addressof@V?$_Tree@V?$_Tmap_traits@PBDHUltstr@detail@luabind@@V?$allocator@U?$pair@QBDH@std@@@std@@$0A@@std@@@std@@@std@@YAPAV?$_Tree@V?$_Tmap_traits@PBDHUltstr@detail@luabind@@V?$allocator@U?$pair@QBDH@std@@@std@@$0A@@std@@@0@AAV10@@Z ; std::addressof<std::_Tree<std::_Tmap_traits<char const *,int,luabind::detail::ltstr,std::allocator<std::pair<char const * const,int> >,0> > >
PUBLIC	??$_Pocs@V?$allocator@U?$_Tree_node@U?$pair@QBDH@std@@PAX@std@@@std@@@std@@YAXAAV?$allocator@U?$_Tree_node@U?$pair@QBDH@std@@PAX@std@@@0@0@Z ; std::_Pocs<std::allocator<std::_Tree_node<std::pair<char const * const,int>,void *> > >
PUBLIC	??$_Swap_adl@Ultstr@detail@luabind@@@std@@YAXAAUltstr@detail@luabind@@0@Z ; std::_Swap_adl<luabind::detail::ltstr>
PUBLIC	??$?0ABUltstr@detail@luabind@@U_Zero_then_variadic_args_t@std@@@?$_Compressed_pair@Ultstr@detail@luabind@@V?$_Compressed_pair@V?$allocator@U?$_Tree_node@U?$pair@QBDH@std@@PAX@std@@@std@@V?$_Tree_val@U?$_Tree_simple_types@U?$pair@QBDH@std@@@std@@@2@$00@std@@$00@std@@QAE@U_One_then_variadic_args_t@1@ABUltstr@detail@luabind@@$$QAU_Zero_then_variadic_args_t@1@@Z ; std::_Compressed_pair<luabind::detail::ltstr,std::_Compressed_pair<std::allocator<std::_Tree_node<std::pair<char const * const,int>,void *> >,std::_Tree_val<std::_Tree_simple_types<std::pair<char const * const,int> > >,1>,1>::_Compressed_pair<luabind::detail::ltstr,std::_Compressed_pair<std::allocator<std::_Tree_node<std::pair<char const * const,int>,void *> >,std::_Tree_val<std::_Tree_simple_types<std::pair<char const * const,int> > >,1>,1><luabind::detail::ltstr const &,std::_Zero_then_variadic_args_t>
PUBLIC	??$?0$$V@?$_Compressed_pair@V?$allocator@U?$_Tree_node@U?$pair@QBDH@std@@PAX@std@@@std@@V?$_Tree_val@U?$_Tree_simple_types@U?$pair@QBDH@std@@@std@@@2@$00@std@@QAE@U_Zero_then_variadic_args_t@1@@Z ; std::_Compressed_pair<std::allocator<std::_Tree_node<std::pair<char const * const,int>,void *> >,std::_Tree_val<std::_Tree_simple_types<std::pair<char const * const,int> > >,1>::_Compressed_pair<std::allocator<std::_Tree_node<std::pair<char const * const,int>,void *> >,std::_Tree_val<std::_Tree_simple_types<std::pair<char const * const,int> > >,1><>
PUBLIC	??$addressof@$$CBV?$_Tree_val@U?$_Tree_simple_types@U?$pair@$$CBVtype_id@luabind@@I@std@@@std@@@std@@@std@@YAPBV?$_Tree_val@U?$_Tree_simple_types@U?$pair@$$CBVtype_id@luabind@@I@std@@@std@@@0@ABV10@@Z ; std::addressof<std::_Tree_val<std::_Tree_simple_types<std::pair<luabind::type_id const ,unsigned int> > > const >
PUBLIC	??$addressof@V?$_Tree_val@U?$_Tree_simple_types@U?$pair@$$CBVtype_id@luabind@@I@std@@@std@@@std@@@std@@YAPAV?$_Tree_val@U?$_Tree_simple_types@U?$pair@$$CBVtype_id@luabind@@I@std@@@std@@@0@AAV10@@Z ; std::addressof<std::_Tree_val<std::_Tree_simple_types<std::pair<luabind::type_id const ,unsigned int> > > >
PUBLIC	??$_Destroy_in_place@PAD@std@@YAXAAPAD@Z	; std::_Destroy_in_place<char *>
PUBLIC	??R<lambda_ab246b20b9526e2ef7792587e4298a77>@@QBE@QADQBDI1I@Z ; <lambda_ab246b20b9526e2ef7792587e4298a77>::operator()
PUBLIC	??$_Reallocate_grow_by@V<lambda_ab246b20b9526e2ef7792587e4298a77>@@PBDI@?$basic_string@DU?$char_traits@D@std@@V?$allocator@D@2@@std@@AAEAAV01@IV<lambda_ab246b20b9526e2ef7792587e4298a77>@@PBDI@Z ; std::basic_string<char,std::char_traits<char>,std::allocator<char> >::_Reallocate_grow_by<<lambda_ab246b20b9526e2ef7792587e4298a77>,char const *,unsigned int>
PUBLIC	??$_Construct_in_place@PADAAPAD@std@@YAXAAPAD0@Z ; std::_Construct_in_place<char *,char * &>
PUBLIC	??$_Unfancy@D@std@@YAPADPAD@Z			; std::_Unfancy<char>
PUBLIC	??$max@I@std@@YAABIABI0@Z			; std::max<unsigned int>
PUBLIC	??$_Deallocate@$07$0A@@std@@YAXPAXI@Z		; std::_Deallocate<8,0>
PUBLIC	??0?$_Container_proxy_ptr12@V?$allocator@U_Container_proxy@std@@@std@@@std@@QAE@AAV?$allocator@U_Container_proxy@std@@@1@AAU_Container_base12@1@@Z ; std::_Container_proxy_ptr12<std::allocator<std::_Container_proxy> >::_Container_proxy_ptr12<std::allocator<std::_Container_proxy> >
PUBLIC	??1?$_Container_proxy_ptr12@V?$allocator@U_Container_proxy@std@@@std@@@std@@QAE@XZ ; std::_Container_proxy_ptr12<std::allocator<std::_Container_proxy> >::~_Container_proxy_ptr12<std::allocator<std::_Container_proxy> >
PUBLIC	??$_Buyheadnode@V?$allocator@U?$_Tree_node@U?$pair@QBDH@std@@PAX@std@@@std@@@?$_Tree_node@U?$pair@QBDH@std@@PAX@std@@SAPAU01@AAV?$allocator@U?$_Tree_node@U?$pair@QBDH@std@@PAX@std@@@1@@Z ; std::_Tree_node<std::pair<char const * const,int>,void *>::_Buyheadnode<std::allocator<std::_Tree_node<std::pair<char const * const,int>,void *> > >
PUBLIC	??$_Swap_adl@PAU?$_Tree_node@U?$pair@QBDH@std@@PAX@std@@@std@@YAXAAPAU?$_Tree_node@U?$pair@QBDH@std@@PAX@0@0@Z ; std::_Swap_adl<std::_Tree_node<std::pair<char const * const,int>,void *> *>
PUBLIC	??$swap@PAU?$_Tree_node@U?$pair@QBDH@std@@PAX@std@@$0A@@std@@YAXAAPAU?$_Tree_node@U?$pair@QBDH@std@@PAX@0@0@Z ; std::swap<std::_Tree_node<std::pair<char const * const,int>,void *> *,0>
PUBLIC	??$swap@I$0A@@std@@YAXAAI0@Z			; std::swap<unsigned int,0>
PUBLIC	??R<lambda_9366063389c5f42a00a5088cf24e69de>@@QBE@QADIQBD@Z ; <lambda_9366063389c5f42a00a5088cf24e69de>::operator()
PUBLIC	??$_Reallocate_for@V<lambda_9366063389c5f42a00a5088cf24e69de>@@PBD@?$basic_string@DU?$char_traits@D@std@@V?$allocator@D@2@@std@@AAEAAV01@IV<lambda_9366063389c5f42a00a5088cf24e69de>@@PBD@Z ; std::basic_string<char,std::char_traits<char>,std::allocator<char> >::_Reallocate_for<<lambda_9366063389c5f42a00a5088cf24e69de>,char const *>
PUBLIC	??$addressof@V?$_String_val@U?$_Simple_types@D@std@@@std@@@std@@YAPAV?$_String_val@U?$_Simple_types@D@std@@@0@AAV10@@Z ; std::addressof<std::_String_val<std::_Simple_types<char> > >
PUBLIC	??$addressof@$$CBV?$_String_val@U?$_Simple_types@D@std@@@std@@@std@@YAPBV?$_String_val@U?$_Simple_types@D@std@@@0@ABV10@@Z ; std::addressof<std::_String_val<std::_Simple_types<char> > const >
PUBLIC	??$_Unfancy@U_Container_proxy@std@@@std@@YAPAU_Container_proxy@0@PAU10@@Z ; std::_Unfancy<std::_Container_proxy>
PUBLIC	??$addressof@U_Container_base12@std@@@std@@YAPAU_Container_base12@0@AAU10@@Z ; std::addressof<std::_Container_base12>
PUBLIC	??$_Construct_in_place@U_Container_proxy@std@@PAU_Container_base12@2@@std@@YAXAAU_Container_proxy@0@$$QAPAU_Container_base12@0@@Z ; std::_Construct_in_place<std::_Container_proxy,std::_Container_base12 *>
PUBLIC	??$_Get_size_of_n@$07@std@@YAII@Z		; std::_Get_size_of_n<8>
PUBLIC	??$_Allocate@$07U_Default_allocate_traits@std@@$0A@@std@@YAPAXI@Z ; std::_Allocate<8,std::_Default_allocate_traits,0>
PUBLIC	??$forward@ABVtype_id@luabind@@@std@@YAABVtype_id@luabind@@ABV12@@Z ; std::forward<luabind::type_id const &>
PUBLIC	??$forward@H@std@@YA$$QAHAAH@Z			; std::forward<int>
PUBLIC	??$?0ABVtype_id@luabind@@H$0A@@?$pair@Vtype_id@luabind@@H@std@@QAE@ABVtype_id@luabind@@$$QAH@Z ; std::pair<luabind::type_id,int>::pair<luabind::type_id,int><luabind::type_id const &,int,0>
PUBLIC	??$forward@U?$pair@Vtype_id@luabind@@H@std@@@std@@YA$$QAU?$pair@Vtype_id@luabind@@H@0@AAU10@@Z ; std::forward<std::pair<luabind::type_id,int> >
PUBLIC	??$emplace@U?$pair@Vtype_id@luabind@@H@std@@@?$_Tree@V?$_Tmap_traits@Vtype_id@luabind@@IU?$less@Vtype_id@luabind@@@std@@V?$allocator@U?$pair@$$CBVtype_id@luabind@@I@std@@@4@$0A@@std@@@std@@QAE?AU?$pair@V?$_Tree_iterator@V?$_Tree_val@U?$_Tree_simple_types@U?$pair@$$CBVtype_id@luabind@@I@std@@@std@@@std@@@std@@_N@1@$$QAU?$pair@Vtype_id@luabind@@H@1@@Z ; std::_Tree<std::_Tmap_traits<luabind::type_id,unsigned int,std::less<luabind::type_id>,std::allocator<std::pair<luabind::type_id const ,unsigned int> >,0> >::emplace<std::pair<luabind::type_id,int> >
PUBLIC	??$min@I@std@@YAABIABI0@Z			; std::min<unsigned int>
PUBLIC	??$forward@AAP6APAXPAX@Z@std@@YAAAP6APAXPAX@ZAAP6APAX0@Z@Z ; std::forward<void * (__cdecl*&)(void *)>
PUBLIC	??$?0ABVtype_id@luabind@@AAP6APAXPAX@Z$0A@@?$pair@Vtype_id@luabind@@P6APAXPAX@Z@std@@QAE@ABVtype_id@luabind@@AAP6APAXPAX@Z@Z ; std::pair<luabind::type_id,void * (__cdecl*)(void *)>::pair<luabind::type_id,void * (__cdecl*)(void *)><luabind::type_id const &,void * (__cdecl*&)(void *),0>
PUBLIC	??$_Deallocate_plain@V?$allocator@U_Container_proxy@std@@@std@@@std@@YAXAAV?$allocator@U_Container_proxy@std@@@0@QAU_Container_proxy@0@@Z ; std::_Deallocate_plain<std::allocator<std::_Container_proxy> >
PUBLIC	??$forward@U?$pair@Vtype_id@luabind@@P6APAXPAX@Z@std@@@std@@YA$$QAU?$pair@Vtype_id@luabind@@P6APAXPAX@Z@0@AAU10@@Z ; std::forward<std::pair<luabind::type_id,void * (__cdecl*)(void *)> >
PUBLIC	??$_Emplace_back_with_unused_capacity@U?$pair@Vtype_id@luabind@@P6APAXPAX@Z@std@@@?$vector@U?$pair@Vtype_id@luabind@@P6APAXPAX@Z@std@@V?$allocator@U?$pair@Vtype_id@luabind@@P6APAXPAX@Z@std@@@2@@std@@AAEAAU?$pair@Vtype_id@luabind@@P6APAXPAX@Z@1@$$QAU21@@Z ; std::vector<std::pair<luabind::type_id,void * (__cdecl*)(void *)>,std::allocator<std::pair<luabind::type_id,void * (__cdecl*)(void *)> > >::_Emplace_back_with_unused_capacity<std::pair<luabind::type_id,void * (__cdecl*)(void *)> >
PUBLIC	??$_Emplace_reallocate@U?$pair@Vtype_id@luabind@@P6APAXPAX@Z@std@@@?$vector@U?$pair@Vtype_id@luabind@@P6APAXPAX@Z@std@@V?$allocator@U?$pair@Vtype_id@luabind@@P6APAXPAX@Z@std@@@2@@std@@AAEPAU?$pair@Vtype_id@luabind@@P6APAXPAX@Z@1@QAU21@$$QAU21@@Z ; std::vector<std::pair<luabind::type_id,void * (__cdecl*)(void *)>,std::allocator<std::pair<luabind::type_id,void * (__cdecl*)(void *)> > >::_Emplace_reallocate<std::pair<luabind::type_id,void * (__cdecl*)(void *)> >
PUBLIC	??$_Find_lower_bound@PBD@?$_Tree@V?$_Tmap_traits@PBDHUltstr@detail@luabind@@V?$allocator@U?$pair@QBDH@std@@@std@@$0A@@std@@@std@@IBE?AU?$_Tree_find_result@PAU?$_Tree_node@U?$pair@QBDH@std@@PAX@std@@@1@ABQBD@Z ; std::_Tree<std::_Tmap_traits<char const *,int,luabind::detail::ltstr,std::allocator<std::pair<char const * const,int> >,0> >::_Find_lower_bound<char const *>
PUBLIC	??$_Lower_bound_duplicate@PBD@?$_Tree@V?$_Tmap_traits@PBDHUltstr@detail@luabind@@V?$allocator@U?$pair@QBDH@std@@@std@@$0A@@std@@@std@@IBE_NQAU?$_Tree_node@U?$pair@QBDH@std@@PAX@1@ABQBD@Z ; std::_Tree<std::_Tmap_traits<char const *,int,luabind::detail::ltstr,std::allocator<std::pair<char const * const,int> >,0> >::_Lower_bound_duplicate<char const *>
PUBLIC	??$?0ABQAU?$_Tree_node@U?$pair@QBDH@std@@PAX@std@@_N$0A@@?$pair@PAU?$_Tree_node@U?$pair@QBDH@std@@PAX@std@@_N@std@@QAE@ABQAU?$_Tree_node@U?$pair@QBDH@std@@PAX@1@$$QA_N@Z ; std::pair<std::_Tree_node<std::pair<char const * const,int>,void *> *,bool>::pair<std::_Tree_node<std::pair<char const * const,int>,void *> *,bool><std::_Tree_node<std::pair<char const * const,int>,void *> * const &,bool,0>
PUBLIC	??$forward@ABQBD@std@@YAABQBDABQBD@Z		; std::forward<char const * const &>
PUBLIC	??$forward_as_tuple@ABQBD@std@@YA?AV?$tuple@ABQBD@0@ABQBD@Z ; std::forward_as_tuple<char const * const &>
PUBLIC	??0?$tuple@ABQBD@std@@QAE@$$QAV01@@Z		; std::tuple<char const * const &>::tuple<char const * const &>
PUBLIC	??$forward_as_tuple@$$V@std@@YA?AV?$tuple@$$V@0@XZ ; std::forward_as_tuple<>
PUBLIC	??0?$_Alloc_construct_ptr@V?$allocator@U?$_Tree_node@U?$pair@QBDH@std@@PAX@std@@@std@@@std@@QAE@AAV?$allocator@U?$_Tree_node@U?$pair@QBDH@std@@PAX@std@@@1@@Z ; std::_Alloc_construct_ptr<std::allocator<std::_Tree_node<std::pair<char const * const,int>,void *> > >::_Alloc_construct_ptr<std::allocator<std::_Tree_node<std::pair<char const * const,int>,void *> > >
PUBLIC	?_Release@?$_Alloc_construct_ptr@V?$allocator@U?$_Tree_node@U?$pair@QBDH@std@@PAX@std@@@std@@@std@@QAEPAU?$_Tree_node@U?$pair@QBDH@std@@PAX@2@XZ ; std::_Alloc_construct_ptr<std::allocator<std::_Tree_node<std::pair<char const * const,int>,void *> > >::_Release
PUBLIC	?_Allocate@?$_Alloc_construct_ptr@V?$allocator@U?$_Tree_node@U?$pair@QBDH@std@@PAX@std@@@std@@@std@@QAEXXZ ; std::_Alloc_construct_ptr<std::allocator<std::_Tree_node<std::pair<char const * const,int>,void *> > >::_Allocate
PUBLIC	??1?$_Alloc_construct_ptr@V?$allocator@U?$_Tree_node@U?$pair@QBDH@std@@PAX@std@@@std@@@std@@QAE@XZ ; std::_Alloc_construct_ptr<std::allocator<std::_Tree_node<std::pair<char const * const,int>,void *> > >::~_Alloc_construct_ptr<std::allocator<std::_Tree_node<std::pair<char const * const,int>,void *> > >
PUBLIC	??0?$_Tree_temp_node_alloc@V?$allocator@U?$_Tree_node@U?$pair@QBDH@std@@PAX@std@@@std@@@std@@QAE@AAV?$allocator@U?$_Tree_node@U?$pair@QBDH@std@@PAX@std@@@1@@Z ; std::_Tree_temp_node_alloc<std::allocator<std::_Tree_node<std::pair<char const * const,int>,void *> > >::_Tree_temp_node_alloc<std::allocator<std::_Tree_node<std::pair<char const * const,int>,void *> > >
PUBLIC	??1?$_Tree_temp_node_alloc@V?$allocator@U?$_Tree_node@U?$pair@QBDH@std@@PAX@std@@@std@@@std@@QAE@XZ ; std::_Tree_temp_node_alloc<std::allocator<std::_Tree_node<std::pair<char const * const,int>,void *> > >::~_Tree_temp_node_alloc<std::allocator<std::_Tree_node<std::pair<char const * const,int>,void *> > >
PUBLIC	??1?$_Tree_temp_node@V?$allocator@U?$_Tree_node@U?$pair@QBDH@std@@PAX@std@@@std@@@std@@QAE@XZ ; std::_Tree_temp_node<std::allocator<std::_Tree_node<std::pair<char const * const,int>,void *> > >::~_Tree_temp_node<std::allocator<std::_Tree_node<std::pair<char const * const,int>,void *> > >
PUBLIC	??$?0ABUpiecewise_construct_t@std@@V?$tuple@ABQBD@1@V?$tuple@$$V@1@@?$_Tree_temp_node@V?$allocator@U?$_Tree_node@U?$pair@QBDH@std@@PAX@std@@@std@@@std@@QAE@AAV?$allocator@U?$_Tree_node@U?$pair@QBDH@std@@PAX@std@@@1@PAU?$_Tree_node@U?$pair@QBDH@std@@PAX@1@ABUpiecewise_construct_t@1@$$QAV?$tuple@ABQBD@1@$$QAV?$tuple@$$V@1@@Z ; std::_Tree_temp_node<std::allocator<std::_Tree_node<std::pair<char const * const,int>,void *> > >::_Tree_temp_node<std::allocator<std::_Tree_node<std::pair<char const * const,int>,void *> > ><std::piecewise_construct_t const &,std::tuple<char const * const &>,std::tuple<> >
PUBLIC	??$?0PAU?$_Tree_node@U?$pair@QBDH@std@@PAX@std@@_N$0A@@?$pair@PAU?$_Tree_node@U?$pair@QBDH@std@@PAX@std@@_N@std@@QAE@$$QAPAU?$_Tree_node@U?$pair@QBDH@std@@PAX@1@$$QA_N@Z ; std::pair<std::_Tree_node<std::pair<char const * const,int>,void *> *,bool>::pair<std::_Tree_node<std::pair<char const * const,int>,void *> *,bool><std::_Tree_node<std::pair<char const * const,int>,void *> *,bool,0>
PUBLIC	??$_Erase_tree@V?$allocator@U?$_Tree_node@U?$pair@QBDH@std@@PAX@std@@@std@@@?$_Tree_val@U?$_Tree_simple_types@U?$pair@QBDH@std@@@std@@@std@@QAEXAAV?$allocator@U?$_Tree_node@U?$pair@QBDH@std@@PAX@std@@@1@PAU?$_Tree_node@U?$pair@QBDH@std@@PAX@1@@Z ; std::_Tree_val<std::_Tree_simple_types<std::pair<char const * const,int> > >::_Erase_tree<std::allocator<std::_Tree_node<std::pair<char const * const,int>,void *> > >
PUBLIC	??$_Freenode0@V?$allocator@U?$_Tree_node@U?$pair@QBDH@std@@PAX@std@@@std@@@?$_Tree_node@U?$pair@QBDH@std@@PAX@std@@SAXAAV?$allocator@U?$_Tree_node@U?$pair@QBDH@std@@PAX@std@@@1@PAU01@@Z ; std::_Tree_node<std::pair<char const * const,int>,void *>::_Freenode0<std::allocator<std::_Tree_node<std::pair<char const * const,int>,void *> > >
PUBLIC	??$_Destroy_range@V?$allocator@PAVclass_rep@detail@luabind@@@std@@@std@@YAXPAPAVclass_rep@detail@luabind@@QAPAV123@AAV?$allocator@PAVclass_rep@detail@luabind@@@0@@Z ; std::_Destroy_range<std::allocator<luabind::detail::class_rep *> >
PUBLIC	??$_Resize_reallocate@U_Value_init_tag@std@@@?$vector@PAVclass_rep@detail@luabind@@V?$allocator@PAVclass_rep@detail@luabind@@@std@@@std@@AAEXIABU_Value_init_tag@1@@Z ; std::vector<luabind::detail::class_rep *,std::allocator<luabind::detail::class_rep *> >::_Resize_reallocate<std::_Value_init_tag>
PUBLIC	??$_Uninitialized_value_construct_n@V?$allocator@PAVclass_rep@detail@luabind@@@std@@@std@@YAPAPAVclass_rep@detail@luabind@@PAPAV123@IAAV?$allocator@PAVclass_rep@detail@luabind@@@0@@Z ; std::_Uninitialized_value_construct_n<std::allocator<luabind::detail::class_rep *> >
PUBLIC	??$_Find_lower_bound@Vtype_id@luabind@@@?$_Tree@V?$_Tmap_traits@Vtype_id@luabind@@IU?$less@Vtype_id@luabind@@@std@@V?$allocator@U?$pair@$$CBVtype_id@luabind@@I@std@@@4@$0A@@std@@@std@@IBE?AU?$_Tree_find_result@PAU?$_Tree_node@U?$pair@$$CBVtype_id@luabind@@I@std@@PAX@std@@@1@ABVtype_id@luabind@@@Z ; std::_Tree<std::_Tmap_traits<luabind::type_id,unsigned int,std::less<luabind::type_id>,std::allocator<std::pair<luabind::type_id const ,unsigned int> >,0> >::_Find_lower_bound<luabind::type_id>
PUBLIC	??$_Lower_bound_duplicate@Vtype_id@luabind@@@?$_Tree@V?$_Tmap_traits@Vtype_id@luabind@@IU?$less@Vtype_id@luabind@@@std@@V?$allocator@U?$pair@$$CBVtype_id@luabind@@I@std@@@4@$0A@@std@@@std@@IBE_NQAU?$_Tree_node@U?$pair@$$CBVtype_id@luabind@@I@std@@PAX@1@ABVtype_id@luabind@@@Z ; std::_Tree<std::_Tmap_traits<luabind::type_id,unsigned int,std::less<luabind::type_id>,std::allocator<std::pair<luabind::type_id const ,unsigned int> >,0> >::_Lower_bound_duplicate<luabind::type_id>
PUBLIC	??$forward@V?$allocator@D@std@@@std@@YA$$QAV?$allocator@D@0@AAV10@@Z ; std::forward<std::allocator<char> >
PUBLIC	??$_Construct_in_place@PADABQAD@std@@YAXAAPADABQAD@Z ; std::_Construct_in_place<char *,char * const &>
PUBLIC	??$?8U?$_Tree_node@U?$pair@QBDH@std@@PAX@std@@U01@@std@@YA_NABV?$allocator@U?$_Tree_node@U?$pair@QBDH@std@@PAX@std@@@0@0@Z ; std::operator==<std::_Tree_node<std::pair<char const * const,int>,void *>,std::_Tree_node<std::pair<char const * const,int>,void *> >
PUBLIC	??$forward@ABUltstr@detail@luabind@@@std@@YAABUltstr@detail@luabind@@ABU123@@Z ; std::forward<luabind::detail::ltstr const &>
PUBLIC	??$forward@U_Zero_then_variadic_args_t@std@@@std@@YA$$QAU_Zero_then_variadic_args_t@0@AAU10@@Z ; std::forward<std::_Zero_then_variadic_args_t>
PUBLIC	??$addressof@PAD@std@@YAPAPADAAPAD@Z		; std::addressof<char *>
PUBLIC	??$_Voidify_iter@PAPAD@std@@YAPAXPAPAD@Z	; std::_Voidify_iter<char * *>
PUBLIC	??$forward@AAPAD@std@@YAAAPADAAPAD@Z		; std::forward<char * &>
PUBLIC	??$_Construct_in_place@PAU?$_Tree_node@U?$pair@QBDH@std@@PAX@std@@ABQAU12@@std@@YAXAAPAU?$_Tree_node@U?$pair@QBDH@std@@PAX@0@ABQAU10@@Z ; std::_Construct_in_place<std::_Tree_node<std::pair<char const * const,int>,void *> *,std::_Tree_node<std::pair<char const * const,int>,void *> * const &>
PUBLIC	??$move@AAI@std@@YA$$QAIAAI@Z			; std::move<unsigned int &>
PUBLIC	??$addressof@U_Container_proxy@std@@@std@@YAPAU_Container_proxy@0@AAU10@@Z ; std::addressof<std::_Container_proxy>
PUBLIC	??$_Voidify_iter@PAU_Container_proxy@std@@@std@@YAPAXPAU_Container_proxy@0@@Z ; std::_Voidify_iter<std::_Container_proxy *>
PUBLIC	??$forward@PAU_Container_base12@std@@@std@@YA$$QAPAU_Container_base12@0@AAPAU10@@Z ; std::forward<std::_Container_base12 *>
PUBLIC	??$_Allocate_manually_vector_aligned@U_Default_allocate_traits@std@@@std@@YAPAXI@Z ; std::_Allocate_manually_vector_aligned<std::_Default_allocate_traits>
PUBLIC	??$_Destroy_in_place@PAU?$_Tree_node@U?$pair@QBDH@std@@PAX@std@@@std@@YAXAAPAU?$_Tree_node@U?$pair@QBDH@std@@PAX@0@@Z ; std::_Destroy_in_place<std::_Tree_node<std::pair<char const * const,int>,void *> *>
PUBLIC	??$addressof@U?$pair@QBDH@std@@@std@@YAPAU?$pair@QBDH@0@AAU10@@Z ; std::addressof<std::pair<char const * const,int> >
PUBLIC	??$destroy@U?$pair@QBDH@std@@@?$_Default_allocator_traits@V?$allocator@U?$_Tree_node@U?$pair@QBDH@std@@PAX@std@@@std@@@std@@SAXAAV?$allocator@U?$_Tree_node@U?$pair@QBDH@std@@PAX@std@@@1@QAU?$pair@QBDH@1@@Z ; std::_Default_allocator_traits<std::allocator<std::_Tree_node<std::pair<char const * const,int>,void *> > >::destroy<std::pair<char const * const,int> >
PUBLIC	??$exchange@PAU?$_Tree_node@U?$pair@QBDH@std@@PAX@std@@$$T@std@@YAPAU?$_Tree_node@U?$pair@QBDH@std@@PAX@0@AAPAU10@$$QA$$T@Z ; std::exchange<std::_Tree_node<std::pair<char const * const,int>,void *> *,std::nullptr_t>
PUBLIC	??$_Get_size_of_n@$0BI@@std@@YAII@Z		; std::_Get_size_of_n<24>
PUBLIC	??$_Get_size_of_n@$03@std@@YAII@Z		; std::_Get_size_of_n<4>
PUBLIC	??$_Get_size_of_n@$00@std@@YAII@Z		; std::_Get_size_of_n<1>
PUBLIC	??$move@AAUltstr@detail@luabind@@@std@@YA$$QAUltstr@detail@luabind@@AAU123@@Z ; std::move<luabind::detail::ltstr &>
PUBLIC	??$move@AAPAU?$_Tree_node@U?$pair@QBDH@std@@PAX@std@@@std@@YA$$QAPAU?$_Tree_node@U?$pair@QBDH@std@@PAX@0@AAPAU10@@Z ; std::move<std::_Tree_node<std::pair<char const * const,int>,void *> * &>
PUBLIC	??$_Emplace@U?$pair@Vtype_id@luabind@@H@std@@@?$_Tree@V?$_Tmap_traits@Vtype_id@luabind@@IU?$less@Vtype_id@luabind@@@std@@V?$allocator@U?$pair@$$CBVtype_id@luabind@@I@std@@@4@$0A@@std@@@std@@IAE?AU?$pair@PAU?$_Tree_node@U?$pair@$$CBVtype_id@luabind@@I@std@@PAX@std@@_N@1@$$QAU?$pair@Vtype_id@luabind@@H@1@@Z ; std::_Tree<std::_Tmap_traits<luabind::type_id,unsigned int,std::less<luabind::type_id>,std::allocator<std::pair<luabind::type_id const ,unsigned int> >,0> >::_Emplace<std::pair<luabind::type_id,int> >
PUBLIC	??$?0V?$_Tree_iterator@V?$_Tree_val@U?$_Tree_simple_types@U?$pair@$$CBVtype_id@luabind@@I@std@@@std@@@std@@@std@@AB_N$0A@@?$pair@V?$_Tree_iterator@V?$_Tree_val@U?$_Tree_simple_types@U?$pair@$$CBVtype_id@luabind@@I@std@@@std@@@std@@@std@@_N@std@@QAE@$$QAV?$_Tree_iterator@V?$_Tree_val@U?$_Tree_simple_types@U?$pair@$$CBVtype_id@luabind@@I@std@@@std@@@std@@@1@AB_N@Z ; std::pair<std::_Tree_iterator<std::_Tree_val<std::_Tree_simple_types<std::pair<luabind::type_id const ,unsigned int> > > >,bool>::pair<std::_Tree_iterator<std::_Tree_val<std::_Tree_simple_types<std::pair<luabind::type_id const ,unsigned int> > > >,bool><std::_Tree_iterator<std::_Tree_val<std::_Tree_simple_types<std::pair<luabind::type_id const ,unsigned int> > > >,bool const &,0>
PUBLIC	?deallocate@?$_Default_allocator_traits@V?$allocator@U_Container_proxy@std@@@std@@@std@@SAXAAV?$allocator@U_Container_proxy@std@@@2@QAU_Container_proxy@2@I@Z ; std::_Default_allocator_traits<std::allocator<std::_Container_proxy> >::deallocate
PUBLIC	??$_Construct_in_place@U?$pair@Vtype_id@luabind@@P6APAXPAX@Z@std@@U12@@std@@YAXAAU?$pair@Vtype_id@luabind@@P6APAXPAX@Z@0@$$QAU10@@Z ; std::_Construct_in_place<std::pair<luabind::type_id,void * (__cdecl*)(void *)>,std::pair<luabind::type_id,void * (__cdecl*)(void *)> >
PUBLIC	??$_Unfancy@U?$pair@Vtype_id@luabind@@P6APAXPAX@Z@std@@@std@@YAPAU?$pair@Vtype_id@luabind@@P6APAXPAX@Z@0@PAU10@@Z ; std::_Unfancy<std::pair<luabind::type_id,void * (__cdecl*)(void *)> >
PUBLIC	??$construct@U?$pair@Vtype_id@luabind@@P6APAXPAX@Z@std@@U12@@?$_Default_allocator_traits@V?$allocator@U?$pair@Vtype_id@luabind@@P6APAXPAX@Z@std@@@std@@@std@@SAXAAV?$allocator@U?$pair@Vtype_id@luabind@@P6APAXPAX@Z@std@@@1@QAU?$pair@Vtype_id@luabind@@P6APAXPAX@Z@1@$$QAU31@@Z ; std::_Default_allocator_traits<std::allocator<std::pair<luabind::type_id,void * (__cdecl*)(void *)> > >::construct<std::pair<luabind::type_id,void * (__cdecl*)(void *)>,std::pair<luabind::type_id,void * (__cdecl*)(void *)> >
PUBLIC	??$_Uninitialized_move@PAU?$pair@Vtype_id@luabind@@P6APAXPAX@Z@std@@V?$allocator@U?$pair@Vtype_id@luabind@@P6APAXPAX@Z@std@@@2@@std@@YAPAU?$pair@Vtype_id@luabind@@P6APAXPAX@Z@0@QAU10@0PAU10@AAV?$allocator@U?$pair@Vtype_id@luabind@@P6APAXPAX@Z@std@@@0@@Z ; std::_Uninitialized_move<std::pair<luabind::type_id,void * (__cdecl*)(void *)> *,std::allocator<std::pair<luabind::type_id,void * (__cdecl*)(void *)> > >
PUBLIC	??$_Kfn@QBDH@?$_Tmap_traits@PBDHUltstr@detail@luabind@@V?$allocator@U?$pair@QBDH@std@@@std@@$0A@@std@@SAABQBDABU?$pair@QBDH@1@@Z ; std::_Tmap_traits<char const *,int,luabind::detail::ltstr,std::allocator<std::pair<char const * const,int> >,0>::_Kfn<char const * const,int>
PUBLIC	??$_Debug_lt_pred@ABUltstr@detail@luabind@@ABQBDABQBD$0A@@std@@YA_NABUltstr@detail@luabind@@ABQBD1@Z ; std::_Debug_lt_pred<luabind::detail::ltstr const &,char const * const &,char const * const &,0>
PUBLIC	??$forward@ABQAU?$_Tree_node@U?$pair@QBDH@std@@PAX@std@@@std@@YAABQAU?$_Tree_node@U?$pair@QBDH@std@@PAX@0@ABQAU10@@Z ; std::forward<std::_Tree_node<std::pair<char const * const,int>,void *> * const &>
PUBLIC	??$forward@_N@std@@YA$$QA_NAA_N@Z		; std::forward<bool>
PUBLIC	??$?0ABQBD$0A@@?$tuple@ABQBD@std@@QAE@ABQBD@Z	; std::tuple<char const * const &>::tuple<char const * const &><char const * const &,0>
PUBLIC	??$forward@ABUpiecewise_construct_t@std@@@std@@YAABUpiecewise_construct_t@0@ABU10@@Z ; std::forward<std::piecewise_construct_t const &>
PUBLIC	??$forward@V?$tuple@ABQBD@std@@@std@@YA$$QAV?$tuple@ABQBD@0@AAV10@@Z ; std::forward<std::tuple<char const * const &> >
PUBLIC	??$forward@V?$tuple@$$V@std@@@std@@YA$$QAV?$tuple@$$V@0@AAV10@@Z ; std::forward<std::tuple<> >
PUBLIC	??$construct@U?$pair@QBDH@std@@ABUpiecewise_construct_t@2@V?$tuple@ABQBD@2@V?$tuple@$$V@2@@?$_Default_allocator_traits@V?$allocator@U?$_Tree_node@U?$pair@QBDH@std@@PAX@std@@@std@@@std@@SAXAAV?$allocator@U?$_Tree_node@U?$pair@QBDH@std@@PAX@std@@@1@QAU?$pair@QBDH@1@ABUpiecewise_construct_t@1@$$QAV?$tuple@ABQBD@1@$$QAV?$tuple@$$V@1@@Z ; std::_Default_allocator_traits<std::allocator<std::_Tree_node<std::pair<char const * const,int>,void *> > >::construct<std::pair<char const * const,int>,std::piecewise_construct_t const &,std::tuple<char const * const &>,std::tuple<> >
PUBLIC	??$_Construct_in_place@PAU?$_Tree_node@U?$pair@QBDH@std@@PAX@std@@AAPAU12@@std@@YAXAAPAU?$_Tree_node@U?$pair@QBDH@std@@PAX@0@0@Z ; std::_Construct_in_place<std::_Tree_node<std::pair<char const * const,int>,void *> *,std::_Tree_node<std::pair<char const * const,int>,void *> * &>
PUBLIC	??$forward@PAU?$_Tree_node@U?$pair@QBDH@std@@PAX@std@@@std@@YA$$QAPAU?$_Tree_node@U?$pair@QBDH@std@@PAX@0@AAPAU10@@Z ; std::forward<std::_Tree_node<std::pair<char const * const,int>,void *> *>
PUBLIC	??$exchange@PAU?$_Tree_node@U?$pair@QBDH@std@@PAX@std@@AAPAU12@@std@@YAPAU?$_Tree_node@U?$pair@QBDH@std@@PAX@0@AAPAU10@0@Z ; std::exchange<std::_Tree_node<std::pair<char const * const,int>,void *> *,std::_Tree_node<std::pair<char const * const,int>,void *> * &>
PUBLIC	??$_Freenode@V?$allocator@U?$_Tree_node@U?$pair@QBDH@std@@PAX@std@@@std@@@?$_Tree_node@U?$pair@QBDH@std@@PAX@std@@SAXAAV?$allocator@U?$_Tree_node@U?$pair@QBDH@std@@PAX@std@@@1@PAU01@@Z ; std::_Tree_node<std::pair<char const * const,int>,void *>::_Freenode<std::allocator<std::_Tree_node<std::pair<char const * const,int>,void *> > >
PUBLIC	??$_Uninitialized_move@PAPAVclass_rep@detail@luabind@@V?$allocator@PAVclass_rep@detail@luabind@@@std@@@std@@YAPAPAVclass_rep@detail@luabind@@QAPAV123@0PAPAV123@AAV?$allocator@PAVclass_rep@detail@luabind@@@0@@Z ; std::_Uninitialized_move<luabind::detail::class_rep * *,std::allocator<luabind::detail::class_rep *> >
PUBLIC	??$_Unfancy@PAVclass_rep@detail@luabind@@@std@@YAPAPAVclass_rep@detail@luabind@@PAPAV123@@Z ; std::_Unfancy<luabind::detail::class_rep *>
PUBLIC	??$_Zero_range@PAPAVclass_rep@detail@luabind@@@std@@YAPAPAVclass_rep@detail@luabind@@QAPAV123@0@Z ; std::_Zero_range<luabind::detail::class_rep * *>
PUBLIC	??0?$_Uninitialized_backout_al@V?$allocator@PAVclass_rep@detail@luabind@@@std@@@std@@QAE@PAPAVclass_rep@detail@luabind@@AAV?$allocator@PAVclass_rep@detail@luabind@@@1@@Z ; std::_Uninitialized_backout_al<std::allocator<luabind::detail::class_rep *> >::_Uninitialized_backout_al<std::allocator<luabind::detail::class_rep *> >
PUBLIC	??1?$_Uninitialized_backout_al@V?$allocator@PAVclass_rep@detail@luabind@@@std@@@std@@QAE@XZ ; std::_Uninitialized_backout_al<std::allocator<luabind::detail::class_rep *> >::~_Uninitialized_backout_al<std::allocator<luabind::detail::class_rep *> >
PUBLIC	?_Release@?$_Uninitialized_backout_al@V?$allocator@PAVclass_rep@detail@luabind@@@std@@@std@@QAEPAPAVclass_rep@detail@luabind@@XZ ; std::_Uninitialized_backout_al<std::allocator<luabind::detail::class_rep *> >::_Release
PUBLIC	??$_Emplace_back@$$V@?$_Uninitialized_backout_al@V?$allocator@PAVclass_rep@detail@luabind@@@std@@@std@@QAEXXZ ; std::_Uninitialized_backout_al<std::allocator<luabind::detail::class_rep *> >::_Emplace_back<>
PUBLIC	??$_Kfn@$$CBVtype_id@luabind@@I@?$_Tmap_traits@Vtype_id@luabind@@IU?$less@Vtype_id@luabind@@@std@@V?$allocator@U?$pair@$$CBVtype_id@luabind@@I@std@@@4@$0A@@std@@SAABVtype_id@luabind@@ABU?$pair@$$CBVtype_id@luabind@@I@1@@Z ; std::_Tmap_traits<luabind::type_id,unsigned int,std::less<luabind::type_id>,std::allocator<std::pair<luabind::type_id const ,unsigned int> >,0>::_Kfn<luabind::type_id const ,unsigned int>
PUBLIC	??$_Debug_lt_pred@ABU?$less@Vtype_id@luabind@@@std@@ABVtype_id@luabind@@ABV34@$0A@@std@@YA_NABU?$less@Vtype_id@luabind@@@0@ABVtype_id@luabind@@1@Z ; std::_Debug_lt_pred<std::less<luabind::type_id> const &,luabind::type_id const &,luabind::type_id const &,0>
PUBLIC	??$_Destroy_in_place@PAU?$_Tree_node@U?$pair@$$CBVtype_id@luabind@@I@std@@PAX@std@@@std@@YAXAAPAU?$_Tree_node@U?$pair@$$CBVtype_id@luabind@@I@std@@PAX@0@@Z ; std::_Destroy_in_place<std::_Tree_node<std::pair<luabind::type_id const ,unsigned int>,void *> *>
PUBLIC	??$forward@ABQAD@std@@YAABQADABQAD@Z		; std::forward<char * const &>
PUBLIC	??$addressof@PAU?$_Tree_node@U?$pair@QBDH@std@@PAX@std@@@std@@YAPAPAU?$_Tree_node@U?$pair@QBDH@std@@PAX@0@AAPAU10@@Z ; std::addressof<std::_Tree_node<std::pair<char const * const,int>,void *> *>
PUBLIC	??$_Voidify_iter@PAPAU?$_Tree_node@U?$pair@QBDH@std@@PAX@std@@@std@@YAPAXPAPAU?$_Tree_node@U?$pair@QBDH@std@@PAX@0@@Z ; std::_Voidify_iter<std::_Tree_node<std::pair<char const * const,int>,void *> * *>
PUBLIC	??$addressof@PAU?$_Tree_node@U?$pair@$$CBVtype_id@luabind@@I@std@@PAX@std@@@std@@YAPAPAU?$_Tree_node@U?$pair@$$CBVtype_id@luabind@@I@std@@PAX@0@AAPAU10@@Z ; std::addressof<std::_Tree_node<std::pair<luabind::type_id const ,unsigned int>,void *> *>
PUBLIC	??$_Voidify_iter@PAPAU?$_Tree_node@U?$pair@$$CBVtype_id@luabind@@I@std@@PAX@std@@@std@@YAPAXPAPAU?$_Tree_node@U?$pair@$$CBVtype_id@luabind@@I@std@@PAX@0@@Z ; std::_Voidify_iter<std::_Tree_node<std::pair<luabind::type_id const ,unsigned int>,void *> * *>
PUBLIC	??$_Get_size_of_n@$0M@@std@@YAII@Z		; std::_Get_size_of_n<12>
PUBLIC	??$addressof@$$CBV?$_Tree_val@U?$_Tree_simple_types@U?$pair@QBDH@std@@@std@@@std@@@std@@YAPBV?$_Tree_val@U?$_Tree_simple_types@U?$pair@QBDH@std@@@std@@@0@ABV10@@Z ; std::addressof<std::_Tree_val<std::_Tree_simple_types<std::pair<char const * const,int> > > const >
PUBLIC	?_Extract@?$_In_place_key_extract_map@Vtype_id@luabind@@U?$pair@Vtype_id@luabind@@H@std@@@std@@SAABVtype_id@luabind@@ABU?$pair@Vtype_id@luabind@@H@2@@Z ; std::_In_place_key_extract_map<luabind::type_id,std::pair<luabind::type_id,int> >::_Extract
PUBLIC	??$?0AAPAU?$_Tree_node@U?$pair@$$CBVtype_id@luabind@@I@std@@PAX@std@@_N$0A@@?$pair@PAU?$_Tree_node@U?$pair@$$CBVtype_id@luabind@@I@std@@PAX@std@@_N@std@@QAE@AAPAU?$_Tree_node@U?$pair@$$CBVtype_id@luabind@@I@std@@PAX@1@$$QA_N@Z ; std::pair<std::_Tree_node<std::pair<luabind::type_id const ,unsigned int>,void *> *,bool>::pair<std::_Tree_node<std::pair<luabind::type_id const ,unsigned int>,void *> *,bool><std::_Tree_node<std::pair<luabind::type_id const ,unsigned int>,void *> * &,bool,0>
PUBLIC	??0?$_Alloc_construct_ptr@V?$allocator@U?$_Tree_node@U?$pair@$$CBVtype_id@luabind@@I@std@@PAX@std@@@std@@@std@@QAE@AAV?$allocator@U?$_Tree_node@U?$pair@$$CBVtype_id@luabind@@I@std@@PAX@std@@@1@@Z ; std::_Alloc_construct_ptr<std::allocator<std::_Tree_node<std::pair<luabind::type_id const ,unsigned int>,void *> > >::_Alloc_construct_ptr<std::allocator<std::_Tree_node<std::pair<luabind::type_id const ,unsigned int>,void *> > >
PUBLIC	?_Release@?$_Alloc_construct_ptr@V?$allocator@U?$_Tree_node@U?$pair@$$CBVtype_id@luabind@@I@std@@PAX@std@@@std@@@std@@QAEPAU?$_Tree_node@U?$pair@$$CBVtype_id@luabind@@I@std@@PAX@2@XZ ; std::_Alloc_construct_ptr<std::allocator<std::_Tree_node<std::pair<luabind::type_id const ,unsigned int>,void *> > >::_Release
PUBLIC	?_Allocate@?$_Alloc_construct_ptr@V?$allocator@U?$_Tree_node@U?$pair@$$CBVtype_id@luabind@@I@std@@PAX@std@@@std@@@std@@QAEXXZ ; std::_Alloc_construct_ptr<std::allocator<std::_Tree_node<std::pair<luabind::type_id const ,unsigned int>,void *> > >::_Allocate
PUBLIC	??1?$_Alloc_construct_ptr@V?$allocator@U?$_Tree_node@U?$pair@$$CBVtype_id@luabind@@I@std@@PAX@std@@@std@@@std@@QAE@XZ ; std::_Alloc_construct_ptr<std::allocator<std::_Tree_node<std::pair<luabind::type_id const ,unsigned int>,void *> > >::~_Alloc_construct_ptr<std::allocator<std::_Tree_node<std::pair<luabind::type_id const ,unsigned int>,void *> > >
PUBLIC	??0?$_Tree_temp_node_alloc@V?$allocator@U?$_Tree_node@U?$pair@$$CBVtype_id@luabind@@I@std@@PAX@std@@@std@@@std@@QAE@AAV?$allocator@U?$_Tree_node@U?$pair@$$CBVtype_id@luabind@@I@std@@PAX@std@@@1@@Z ; std::_Tree_temp_node_alloc<std::allocator<std::_Tree_node<std::pair<luabind::type_id const ,unsigned int>,void *> > >::_Tree_temp_node_alloc<std::allocator<std::_Tree_node<std::pair<luabind::type_id const ,unsigned int>,void *> > >
PUBLIC	??1?$_Tree_temp_node_alloc@V?$allocator@U?$_Tree_node@U?$pair@$$CBVtype_id@luabind@@I@std@@PAX@std@@@std@@@std@@QAE@XZ ; std::_Tree_temp_node_alloc<std::allocator<std::_Tree_node<std::pair<luabind::type_id const ,unsigned int>,void *> > >::~_Tree_temp_node_alloc<std::allocator<std::_Tree_node<std::pair<luabind::type_id const ,unsigned int>,void *> > >
PUBLIC	??1?$_Tree_temp_node@V?$allocator@U?$_Tree_node@U?$pair@$$CBVtype_id@luabind@@I@std@@PAX@std@@@std@@@std@@QAE@XZ ; std::_Tree_temp_node<std::allocator<std::_Tree_node<std::pair<luabind::type_id const ,unsigned int>,void *> > >::~_Tree_temp_node<std::allocator<std::_Tree_node<std::pair<luabind::type_id const ,unsigned int>,void *> > >
PUBLIC	??$?0U?$pair@Vtype_id@luabind@@H@std@@@?$_Tree_temp_node@V?$allocator@U?$_Tree_node@U?$pair@$$CBVtype_id@luabind@@I@std@@PAX@std@@@std@@@std@@QAE@AAV?$allocator@U?$_Tree_node@U?$pair@$$CBVtype_id@luabind@@I@std@@PAX@std@@@1@PAU?$_Tree_node@U?$pair@$$CBVtype_id@luabind@@I@std@@PAX@1@$$QAU?$pair@Vtype_id@luabind@@H@1@@Z ; std::_Tree_temp_node<std::allocator<std::_Tree_node<std::pair<luabind::type_id const ,unsigned int>,void *> > >::_Tree_temp_node<std::allocator<std::_Tree_node<std::pair<luabind::type_id const ,unsigned int>,void *> > ><std::pair<luabind::type_id,int> >
PUBLIC	??$?0PAU?$_Tree_node@U?$pair@$$CBVtype_id@luabind@@I@std@@PAX@std@@_N$0A@@?$pair@PAU?$_Tree_node@U?$pair@$$CBVtype_id@luabind@@I@std@@PAX@std@@_N@std@@QAE@$$QAPAU?$_Tree_node@U?$pair@$$CBVtype_id@luabind@@I@std@@PAX@1@$$QA_N@Z ; std::pair<std::_Tree_node<std::pair<luabind::type_id const ,unsigned int>,void *> *,bool>::pair<std::_Tree_node<std::pair<luabind::type_id const ,unsigned int>,void *> *,bool><std::_Tree_node<std::pair<luabind::type_id const ,unsigned int>,void *> *,bool,0>
PUBLIC	??$forward@V?$_Tree_iterator@V?$_Tree_val@U?$_Tree_simple_types@U?$pair@$$CBVtype_id@luabind@@I@std@@@std@@@std@@@std@@@std@@YA$$QAV?$_Tree_iterator@V?$_Tree_val@U?$_Tree_simple_types@U?$pair@$$CBVtype_id@luabind@@I@std@@@std@@@std@@@0@AAV10@@Z ; std::forward<std::_Tree_iterator<std::_Tree_val<std::_Tree_simple_types<std::pair<luabind::type_id const ,unsigned int> > > > >
PUBLIC	??$forward@AB_N@std@@YAAB_NAB_N@Z		; std::forward<bool const &>
PUBLIC	??$addressof@U?$pair@Vtype_id@luabind@@P6APAXPAX@Z@std@@@std@@YAPAU?$pair@Vtype_id@luabind@@P6APAXPAX@Z@0@AAU10@@Z ; std::addressof<std::pair<luabind::type_id,void * (__cdecl*)(void *)> >
PUBLIC	??$_Voidify_iter@PAU?$pair@Vtype_id@luabind@@P6APAXPAX@Z@std@@@std@@YAPAXPAU?$pair@Vtype_id@luabind@@P6APAXPAX@Z@0@@Z ; std::_Voidify_iter<std::pair<luabind::type_id,void * (__cdecl*)(void *)> *>
PUBLIC	??$_Get_unwrapped@ABQAU?$pair@Vtype_id@luabind@@P6APAXPAX@Z@std@@@std@@YA?A_TABQAU?$pair@Vtype_id@luabind@@P6APAXPAX@Z@0@@Z ; std::_Get_unwrapped<std::pair<luabind::type_id,void * (__cdecl*)(void *)> * const &>
PUBLIC	??$_Copy_memmove@PAU?$pair@Vtype_id@luabind@@P6APAXPAX@Z@std@@PAU12@@std@@YAPAU?$pair@Vtype_id@luabind@@P6APAXPAX@Z@0@PAU10@00@Z ; std::_Copy_memmove<std::pair<luabind::type_id,void * (__cdecl*)(void *)> *,std::pair<luabind::type_id,void * (__cdecl*)(void *)> *>
PUBLIC	??0?$_Uninitialized_backout_al@V?$allocator@U?$pair@Vtype_id@luabind@@P6APAXPAX@Z@std@@@std@@@std@@QAE@PAU?$pair@Vtype_id@luabind@@P6APAXPAX@Z@1@AAV?$allocator@U?$pair@Vtype_id@luabind@@P6APAXPAX@Z@std@@@1@@Z ; std::_Uninitialized_backout_al<std::allocator<std::pair<luabind::type_id,void * (__cdecl*)(void *)> > >::_Uninitialized_backout_al<std::allocator<std::pair<luabind::type_id,void * (__cdecl*)(void *)> > >
PUBLIC	??1?$_Uninitialized_backout_al@V?$allocator@U?$pair@Vtype_id@luabind@@P6APAXPAX@Z@std@@@std@@@std@@QAE@XZ ; std::_Uninitialized_backout_al<std::allocator<std::pair<luabind::type_id,void * (__cdecl*)(void *)> > >::~_Uninitialized_backout_al<std::allocator<std::pair<luabind::type_id,void * (__cdecl*)(void *)> > >
PUBLIC	?_Release@?$_Uninitialized_backout_al@V?$allocator@U?$pair@Vtype_id@luabind@@P6APAXPAX@Z@std@@@std@@@std@@QAEPAU?$pair@Vtype_id@luabind@@P6APAXPAX@Z@2@XZ ; std::_Uninitialized_backout_al<std::allocator<std::pair<luabind::type_id,void * (__cdecl*)(void *)> > >::_Release
PUBLIC	??$_Emplace_back@U?$pair@Vtype_id@luabind@@P6APAXPAX@Z@std@@@?$_Uninitialized_backout_al@V?$allocator@U?$pair@Vtype_id@luabind@@P6APAXPAX@Z@std@@@std@@@std@@QAEX$$QAU?$pair@Vtype_id@luabind@@P6APAXPAX@Z@1@@Z ; std::_Uninitialized_backout_al<std::allocator<std::pair<luabind::type_id,void * (__cdecl*)(void *)> > >::_Emplace_back<std::pair<luabind::type_id,void * (__cdecl*)(void *)> >
PUBLIC	??$?0U_Exact_args_t@std@@ABQBD$$V$0A@@?$tuple@ABQBD@std@@QAE@U_Exact_args_t@1@ABQBD@Z ; std::tuple<char const * const &>::tuple<char const * const &><std::_Exact_args_t,char const * const &,0>
PUBLIC	??$_Voidify_iter@PAU?$pair@QBDH@std@@@std@@YAPAXPAU?$pair@QBDH@0@@Z ; std::_Voidify_iter<std::pair<char const * const,int> *>
PUBLIC	??$?0ABQBD$$Z$$V@?$pair@QBDH@std@@QAE@Upiecewise_construct_t@1@V?$tuple@ABQBD@1@V?$tuple@$$V@1@@Z ; std::pair<char const * const,int>::pair<char const * const,int><char const * const &>
PUBLIC	??$forward@AAPAU?$_Tree_node@U?$pair@QBDH@std@@PAX@std@@@std@@YAAAPAU?$_Tree_node@U?$pair@QBDH@std@@PAX@0@AAPAU10@@Z ; std::forward<std::_Tree_node<std::pair<char const * const,int>,void *> * &>
PUBLIC	??$_Get_unwrapped@ABQAPAVclass_rep@detail@luabind@@@std@@YA?A_TABQAPAVclass_rep@detail@luabind@@@Z ; std::_Get_unwrapped<luabind::detail::class_rep * * const &>
PUBLIC	??$move@AAPAVclass_rep@detail@luabind@@@std@@YA$$QAPAVclass_rep@detail@luabind@@AAPAV123@@Z ; std::move<luabind::detail::class_rep * &>
PUBLIC	??$_Copy_memmove@PAPAVclass_rep@detail@luabind@@PAPAV123@@std@@YAPAPAVclass_rep@detail@luabind@@PAPAV123@00@Z ; std::_Copy_memmove<luabind::detail::class_rep * *,luabind::detail::class_rep * *>
PUBLIC	??$_Emplace_back@PAVclass_rep@detail@luabind@@@?$_Uninitialized_backout_al@V?$allocator@PAVclass_rep@detail@luabind@@@std@@@std@@QAEX$$QAPAVclass_rep@detail@luabind@@@Z ; std::_Uninitialized_backout_al<std::allocator<luabind::detail::class_rep *> >::_Emplace_back<luabind::detail::class_rep *>
PUBLIC	??$_To_address@PAPAVclass_rep@detail@luabind@@@std@@YA?A_PABQAPAVclass_rep@detail@luabind@@@Z ; std::_To_address<luabind::detail::class_rep * *>
PUBLIC	??$construct@PAVclass_rep@detail@luabind@@$$V@?$_Default_allocator_traits@V?$allocator@PAVclass_rep@detail@luabind@@@std@@@std@@SAXAAV?$allocator@PAVclass_rep@detail@luabind@@@1@QAPAVclass_rep@detail@luabind@@@Z ; std::_Default_allocator_traits<std::allocator<luabind::detail::class_rep *> >::construct<luabind::detail::class_rep *>
PUBLIC	??$destroy@U?$pair@$$CBVtype_id@luabind@@I@std@@@?$_Default_allocator_traits@V?$allocator@U?$_Tree_node@U?$pair@$$CBVtype_id@luabind@@I@std@@PAX@std@@@std@@@std@@SAXAAV?$allocator@U?$_Tree_node@U?$pair@$$CBVtype_id@luabind@@I@std@@PAX@std@@@1@QAU?$pair@$$CBVtype_id@luabind@@I@1@@Z ; std::_Default_allocator_traits<std::allocator<std::_Tree_node<std::pair<luabind::type_id const ,unsigned int>,void *> > >::destroy<std::pair<luabind::type_id const ,unsigned int> >
PUBLIC	??$exchange@PAU?$_Tree_node@U?$pair@$$CBVtype_id@luabind@@I@std@@PAX@std@@$$T@std@@YAPAU?$_Tree_node@U?$pair@$$CBVtype_id@luabind@@I@std@@PAX@0@AAPAU10@$$QA$$T@Z ; std::exchange<std::_Tree_node<std::pair<luabind::type_id const ,unsigned int>,void *> *,std::nullptr_t>
PUBLIC	??$forward@AAPAU?$_Tree_node@U?$pair@$$CBVtype_id@luabind@@I@std@@PAX@std@@@std@@YAAAPAU?$_Tree_node@U?$pair@$$CBVtype_id@luabind@@I@std@@PAX@0@AAPAU10@@Z ; std::forward<std::_Tree_node<std::pair<luabind::type_id const ,unsigned int>,void *> * &>
PUBLIC	??$construct@U?$pair@$$CBVtype_id@luabind@@I@std@@U?$pair@Vtype_id@luabind@@H@2@@?$_Default_allocator_traits@V?$allocator@U?$_Tree_node@U?$pair@$$CBVtype_id@luabind@@I@std@@PAX@std@@@std@@@std@@SAXAAV?$allocator@U?$_Tree_node@U?$pair@$$CBVtype_id@luabind@@I@std@@PAX@std@@@1@QAU?$pair@$$CBVtype_id@luabind@@I@1@$$QAU?$pair@Vtype_id@luabind@@H@1@@Z ; std::_Default_allocator_traits<std::allocator<std::_Tree_node<std::pair<luabind::type_id const ,unsigned int>,void *> > >::construct<std::pair<luabind::type_id const ,unsigned int>,std::pair<luabind::type_id,int> >
PUBLIC	??$_Construct_in_place@PAU?$_Tree_node@U?$pair@$$CBVtype_id@luabind@@I@std@@PAX@std@@AAPAU12@@std@@YAXAAPAU?$_Tree_node@U?$pair@$$CBVtype_id@luabind@@I@std@@PAX@0@0@Z ; std::_Construct_in_place<std::_Tree_node<std::pair<luabind::type_id const ,unsigned int>,void *> *,std::_Tree_node<std::pair<luabind::type_id const ,unsigned int>,void *> * &>
PUBLIC	??$forward@PAU?$_Tree_node@U?$pair@$$CBVtype_id@luabind@@I@std@@PAX@std@@@std@@YA$$QAPAU?$_Tree_node@U?$pair@$$CBVtype_id@luabind@@I@std@@PAX@0@AAPAU10@@Z ; std::forward<std::_Tree_node<std::pair<luabind::type_id const ,unsigned int>,void *> *>
PUBLIC	??$_To_address@PAU?$pair@Vtype_id@luabind@@P6APAXPAX@Z@std@@@std@@YA?A_PABQAU?$pair@Vtype_id@luabind@@P6APAXPAX@Z@0@@Z ; std::_To_address<std::pair<luabind::type_id,void * (__cdecl*)(void *)> *>
PUBLIC	??$?0U_Exact_args_t@std@@$0A@@?$tuple@$$V@std@@QAE@U_Exact_args_t@1@@Z ; std::tuple<>::tuple<><std::_Exact_args_t,0>
PUBLIC	??$?0ABQBD@?$_Tuple_val@ABQBD@std@@QAE@ABQBD@Z	; std::_Tuple_val<char const * const &>::_Tuple_val<char const * const &><char const * const &>
PUBLIC	??$?0V?$tuple@ABQBD@std@@V?$tuple@$$V@1@$0A@$$Z$S@?$pair@QBDH@std@@QAE@AAV?$tuple@ABQBD@1@AAV?$tuple@$$V@1@U?$integer_sequence@I$0A@@1@U?$integer_sequence@I$S@1@@Z ; std::pair<char const * const,int>::pair<char const * const,int><std::tuple<char const * const &>,std::tuple<>,0>
PUBLIC	??$forward@PAVclass_rep@detail@luabind@@@std@@YA$$QAPAVclass_rep@detail@luabind@@AAPAV123@@Z ; std::forward<luabind::detail::class_rep *>
PUBLIC	??$construct@PAVclass_rep@detail@luabind@@PAV123@@?$_Default_allocator_traits@V?$allocator@PAVclass_rep@detail@luabind@@@std@@@std@@SAXAAV?$allocator@PAVclass_rep@detail@luabind@@@1@QAPAVclass_rep@detail@luabind@@$$QAPAV345@@Z ; std::_Default_allocator_traits<std::allocator<luabind::detail::class_rep *> >::construct<luabind::detail::class_rep *,luabind::detail::class_rep *>
PUBLIC	??$_Voidify_iter@PAPAVclass_rep@detail@luabind@@@std@@YAPAXPAPAVclass_rep@detail@luabind@@@Z ; std::_Voidify_iter<luabind::detail::class_rep * *>
PUBLIC	??$_Voidify_iter@PAU?$pair@$$CBVtype_id@luabind@@I@std@@@std@@YAPAXPAU?$pair@$$CBVtype_id@luabind@@I@0@@Z ; std::_Voidify_iter<std::pair<luabind::type_id const ,unsigned int> *>
PUBLIC	??$move@AAV?$tuple@ABQBD@std@@@std@@YA$$QAV?$tuple@ABQBD@0@AAV10@@Z ; std::move<std::tuple<char const * const &> &>
PUBLIC	??$_Tuple_get@$0A@ABQBD@std@@YA$$QA_P$$QAV?$tuple@ABQBD@0@@Z ; std::_Tuple_get<0,char const * const &>
PUBLIC	??$forward@Vtype_id@luabind@@@std@@YA$$QAVtype_id@luabind@@AAV12@@Z ; std::forward<luabind::type_id>
PUBLIC	??_7exception@std@@6B@				; std::exception::`vftable'
PUBLIC	??_C@_0BC@EOODALEL@Unknown?5exception@		; `string'
PUBLIC	??_7bad_alloc@std@@6B@				; std::bad_alloc::`vftable'
PUBLIC	??_7bad_array_new_length@std@@6B@		; std::bad_array_new_length::`vftable'
PUBLIC	??_C@_0BF@KINCDENJ@bad?5array?5new?5length@	; `string'
PUBLIC	__TI3?AVbad_array_new_length@std@@
PUBLIC	__CTA3?AVbad_array_new_length@std@@
PUBLIC	??_R0?AVbad_array_new_length@std@@@8		; std::bad_array_new_length `RTTI Type Descriptor'
PUBLIC	__CT??_R0?AVbad_array_new_length@std@@@8??0bad_array_new_length@std@@QAE@ABV01@@Z12
PUBLIC	??_R0?AVbad_alloc@std@@@8			; std::bad_alloc `RTTI Type Descriptor'
PUBLIC	__CT??_R0?AVbad_alloc@std@@@8??0bad_alloc@std@@QAE@ABV01@@Z12
PUBLIC	??_R0?AVexception@std@@@8			; std::exception `RTTI Type Descriptor'
PUBLIC	__CT??_R0?AVexception@std@@@8??0exception@std@@QAE@ABV01@@Z12
PUBLIC	??_C@_0BB@FCMFBGOM@invalid?5argument@		; `string'
PUBLIC	??_C@_02DKCKIIND@?$CFs@				; `string'
PUBLIC	??_C@_0GC@ONGHGEHM@C?3?2Program?5Files?2Microsoft?5Visu@ ; `string'
PUBLIC	??_C@_1ME@DGNBIMPE@?$AAC?$AA?3?$AA?2?$AAP?$AAr?$AAo?$AAg?$AAr?$AAa?$AAm?$AA?5?$AAF?$AAi?$AAl?$AAe@ ; `string'
PUBLIC	??_C@_11LOCGONAA@@				; `string'
PUBLIC	??_C@_1CG@JNLFBNGN@?$AA?$CC?$AAi?$AAn?$AAv?$AAa?$AAl?$AAi?$AAd?$AA?5?$AAa?$AAr?$AAg?$AAu?$AAm?$AAe@ ; `string'
PUBLIC	??_C@_0BJ@LFDBABJJ@ITERATOR?5LIST?5CORRUPTED?$CB@ ; `string'
PUBLIC	??_C@_1DG@PLBPCAEM@?$AA?$CC?$AAI?$AAT?$AAE?$AAR?$AAA?$AAT?$AAO?$AAR?$AA?5?$AAL?$AAI?$AAS?$AAT?$AA?5@ ; `string'
PUBLIC	??_C@_0BA@JFNIOLAK@string?5too?5long@		; `string'
PUBLIC	??_C@_0BB@GCADKGJO@map?1set?5too?5long@		; `string'
PUBLIC	??_R0?AUnull_type@detail@luabind@@@8		; luabind::detail::null_type `RTTI Type Descriptor'
PUBLIC	??_C@_1KM@EAPOGOKM@?$AAD?$AA?3?$AA?2?$AA_?$AA_?$AAR?$AAe?$AAp?$AAo?$AAs?$AA?2?$AA_?$AA_?$AAM?$AAy@ ; `string'
PUBLIC	??_C@_1CG@PBEMIDNO@?$AAi?$AAd?$AA?5?$AA?$DM?$AA?5?$AAl?$AAo?$AAc?$AAa?$AAl?$AA_?$AAi?$AAd?$AA_?$AAb@ ; `string'
PUBLIC	??_C@_1KK@BKHOEKNE@?$AAr?$AAe?$AAs?$AAu?$AAl?$AAt?$AA?4?$AAs?$AAe?$AAc?$AAo?$AAn?$AAd?$AA?5?$AA?$HM@ ; `string'
PUBLIC	??_C@_1KA@FDCAJHLM@?$AAD?$AA?3?$AA?2?$AA_?$AA_?$AAR?$AAe?$AAp?$AAo?$AAs?$AA?2?$AA_?$AA_?$AAM?$AAy@ ; `string'
PUBLIC	??_C@_1DG@CAPFJFIB@?$AAm?$AA_?$AAs?$AAt?$AAa?$AAc?$AAk?$AA?5?$AA?$DN?$AA?$DN?$AA?5?$AAl?$AAu?$AAa?$AA_@ ; `string'
PUBLIC	??_7class_registration@detail@luabind@@6B@	; luabind::detail::class_registration::`vftable'
PUBLIC	?id@?$registered_class@Unull_type@detail@luabind@@@detail@luabind@@2IB ; luabind::detail::registered_class<luabind::detail::null_type>::id
PUBLIC	??_C@_0DE@CHADHGFF@can?8t?5dereference?5value?9initial@ ; `string'
PUBLIC	??_C@_0GB@OIADIBJN@C?3?2Program?5Files?2Microsoft?5Visu@ ; `string'
PUBLIC	??_C@_1MC@JGAHOMKA@?$AAC?$AA?3?$AA?2?$AAP?$AAr?$AAo?$AAg?$AAr?$AAa?$AAm?$AA?5?$AAF?$AAi?$AAl?$AAe@ ; `string'
PUBLIC	??_C@_1GM@FNBFNBEL@?$AA?$CC?$AAc?$AAa?$AAn?$AA?8?$AAt?$AA?5?$AAd?$AAe?$AAr?$AAe?$AAf?$AAe?$AAr?$AAe@ ; `string'
PUBLIC	??_C@_0CP@MDHADBHN@can?8t?5dereference?5out?5of?5range?5@ ; `string'
PUBLIC	??_C@_1GC@JDCKOLAC@?$AA?$CC?$AAc?$AAa?$AAn?$AA?8?$AAt?$AA?5?$AAd?$AAe?$AAr?$AAe?$AAf?$AAe?$AAr?$AAe@ ; `string'
PUBLIC	??_C@_0BO@PFKOHNJC@vector?5subscript?5out?5of?5range@ ; `string'
PUBLIC	??_C@_1EA@LEKOKFNB@?$AA?$CC?$AAv?$AAe?$AAc?$AAt?$AAo?$AAr?$AA?5?$AAs?$AAu?$AAb?$AAs?$AAc?$AAr?$AAi@ ; `string'
PUBLIC	??_C@_0GA@GNHKHACC@C?3?2Program?5Files?2Microsoft?5Visu@ ; `string'
PUBLIC	??_C@_1MA@LENEFKFL@?$AAC?$AA?3?$AA?2?$AAP?$AAr?$AAo?$AAg?$AAr?$AAa?$AAm?$AA?5?$AAF?$AAi?$AAl?$AAe@ ; `string'
PUBLIC	??_C@_0DC@KEKNBAEB@can?8t?5increment?5value?9initializ@ ; `string'
PUBLIC	??_C@_1GI@EDCILPL@?$AA?$CC?$AAc?$AAa?$AAn?$AA?8?$AAt?$AA?5?$AAi?$AAn?$AAc?$AAr?$AAe?$AAm?$AAe?$AAn@ ; `string'
PUBLIC	??_C@_0CJ@OAAAAGPM@can?8t?5increment?5vector?5iterator@ ; `string'
PUBLIC	??_C@_1FG@LDPPKMGP@?$AA?$CC?$AAc?$AAa?$AAn?$AA?8?$AAt?$AA?5?$AAi?$AAn?$AAc?$AAr?$AAe?$AAm?$AAe?$AAn@ ; `string'
PUBLIC	??_C@_0DG@LCFNIIPB@cannot?5dereference?5value?9initia@ ; `string'
PUBLIC	??_C@_1HA@ILGCNILF@?$AA?$CC?$AAc?$AAa?$AAn?$AAn?$AAo?$AAt?$AA?5?$AAd?$AAe?$AAr?$AAe?$AAf?$AAe?$AAr@ ; `string'
PUBLIC	??_C@_0CI@OKFEHCEB@cannot?5dereference?5end?5map?1set?5@ ; `string'
PUBLIC	??_C@_1FE@NKHAAGMB@?$AA?$CC?$AAc?$AAa?$AAn?$AAn?$AAo?$AAt?$AA?5?$AAd?$AAe?$AAr?$AAe?$AAf?$AAe?$AAr@ ; `string'
PUBLIC	??_C@_0BO@CAOBBIOC@vector?5iterators?5incompatible@ ; `string'
PUBLIC	??_C@_1EA@DJDGNIII@?$AA?$CC?$AAv?$AAe?$AAc?$AAt?$AAo?$AAr?$AA?5?$AAi?$AAt?$AAe?$AAr?$AAa?$AAt?$AAo@ ; `string'
PUBLIC	??_C@_0DG@KGHKKGBC@null?5pointer?5cannot?5point?5to?5a?5@ ; `string'
PUBLIC	??_C@_1HA@FACCKGGH@?$AA?$CC?$AAn?$AAu?$AAl?$AAl?$AA?5?$AAp?$AAo?$AAi?$AAn?$AAt?$AAe?$AAr?$AA?5?$AAc@ ; `string'
PUBLIC	??_C@_0CB@PKNBJHCN@containers?5incompatible?5for?5swa@ ; `string'
PUBLIC	??_C@_1EG@DFCHKBDO@?$AA?$CC?$AAc?$AAo?$AAn?$AAt?$AAa?$AAi?$AAn?$AAe?$AAr?$AAs?$AA?5?$AAi?$AAn?$AAc@ ; `string'
PUBLIC	??_C@_0BA@FOIKENOD@vector?5too?5long@		; `string'
PUBLIC	??_C@_0GD@JKKFFOCD@C?3?2Program?5Files?2Microsoft?5Visu@ ; `string'
PUBLIC	??_C@_1MG@JJBOPAGB@?$AAC?$AA?3?$AA?2?$AAP?$AAr?$AAo?$AAg?$AAr?$AAa?$AAm?$AA?5?$AAF?$AAi?$AAl?$AAe@ ; `string'
PUBLIC	??_C@_0BD@FEEMDEPI@invalid?5comparator@		; `string'
PUBLIC	??_C@_1CK@NDNHPKPI@?$AA?$CC?$AAi?$AAn?$AAv?$AAa?$AAl?$AAi?$AAd?$AA?5?$AAc?$AAo?$AAm?$AAp?$AAa?$AAr@ ; `string'
PUBLIC	??_R4exception@std@@6B@				; std::exception::`RTTI Complete Object Locator'
PUBLIC	??_R3exception@std@@8				; std::exception::`RTTI Class Hierarchy Descriptor'
PUBLIC	??_R2exception@std@@8				; std::exception::`RTTI Base Class Array'
PUBLIC	??_R1A@?0A@EA@exception@std@@8			; std::exception::`RTTI Base Class Descriptor at (0,-1,0,64)'
PUBLIC	??_R4bad_alloc@std@@6B@				; std::bad_alloc::`RTTI Complete Object Locator'
PUBLIC	??_R3bad_alloc@std@@8				; std::bad_alloc::`RTTI Class Hierarchy Descriptor'
PUBLIC	??_R2bad_alloc@std@@8				; std::bad_alloc::`RTTI Base Class Array'
PUBLIC	??_R1A@?0A@EA@bad_alloc@std@@8			; std::bad_alloc::`RTTI Base Class Descriptor at (0,-1,0,64)'
PUBLIC	??_R4bad_array_new_length@std@@6B@		; std::bad_array_new_length::`RTTI Complete Object Locator'
PUBLIC	??_R3bad_array_new_length@std@@8		; std::bad_array_new_length::`RTTI Class Hierarchy Descriptor'
PUBLIC	??_R2bad_array_new_length@std@@8		; std::bad_array_new_length::`RTTI Base Class Array'
PUBLIC	??_R1A@?0A@EA@bad_array_new_length@std@@8	; std::bad_array_new_length::`RTTI Base Class Descriptor at (0,-1,0,64)'
PUBLIC	??_R4class_registration@detail@luabind@@6B@	; luabind::detail::class_registration::`RTTI Complete Object Locator'
PUBLIC	??_R0?AUclass_registration@detail@luabind@@@8	; luabind::detail::class_registration `RTTI Type Descriptor'
PUBLIC	??_R3class_registration@detail@luabind@@8	; luabind::detail::class_registration::`RTTI Class Hierarchy Descriptor'
PUBLIC	??_R2class_registration@detail@luabind@@8	; luabind::detail::class_registration::`RTTI Base Class Array'
PUBLIC	??_R1A@?0A@EA@class_registration@detail@luabind@@8 ; luabind::detail::class_registration::`RTTI Base Class Descriptor at (0,-1,0,64)'
PUBLIC	??_R1A@?0A@EA@registration@detail@luabind@@8	; luabind::detail::registration::`RTTI Base Class Descriptor at (0,-1,0,64)'
PUBLIC	??_R0?AUregistration@detail@luabind@@@8		; luabind::detail::registration `RTTI Type Descriptor'
PUBLIC	??_R3registration@detail@luabind@@8		; luabind::detail::registration::`RTTI Class Hierarchy Descriptor'
PUBLIC	??_R2registration@detail@luabind@@8		; luabind::detail::registration::`RTTI Base Class Array'
EXTRN	??2@YAPAXI@Z:PROC				; operator new
EXTRN	??3@YAXPAXI@Z:PROC				; operator delete
EXTRN	__invalid_parameter:PROC
EXTRN	_memcpy:PROC
EXTRN	_memmove:PROC
EXTRN	_memset:PROC
EXTRN	_strcmp:PROC
EXTRN	_strlen:PROC
EXTRN	__CrtDbgReport:PROC
EXTRN	??0_Lockit@std@@QAE@H@Z:PROC			; std::_Lockit::_Lockit
EXTRN	??1_Lockit@std@@QAE@XZ:PROC			; std::_Lockit::~_Lockit
EXTRN	?_Xlength_error@std@@YAXPBD@Z:PROC		; std::_Xlength_error
EXTRN	_lua_gettop:PROC
EXTRN	_lua_settop:PROC
EXTRN	_lua_pushvalue:PROC
EXTRN	_lua_insert:PROC
EXTRN	_lua_type:PROC
EXTRN	_lua_touserdata:PROC
EXTRN	_lua_pushnil:PROC
EXTRN	_lua_pushstring:PROC
EXTRN	_lua_gettable:PROC
EXTRN	_lua_rawget:PROC
EXTRN	_lua_rawgeti:PROC
EXTRN	_lua_newuserdata:PROC
EXTRN	_lua_settable:PROC
EXTRN	_lua_next:PROC
EXTRN	___std_exception_copy:PROC
EXTRN	___std_exception_destroy:PROC
EXTRN	??_Eexception@std@@UAEPAXI@Z:PROC		; std::exception::`vector deleting destructor'
EXTRN	??_Ebad_alloc@std@@UAEPAXI@Z:PROC		; std::bad_alloc::`vector deleting destructor'
EXTRN	??_Ebad_array_new_length@std@@UAEPAXI@Z:PROC	; std::bad_array_new_length::`vector deleting destructor'
EXTRN	__wassert:PROC
EXTRN	___std_type_info_compare:PROC
EXTRN	___std_type_info_name:PROC
EXTRN	??0registration@detail@luabind@@QAE@XZ:PROC	; luabind::detail::registration::registration
EXTRN	??1registration@detail@luabind@@UAE@XZ:PROC	; luabind::detail::registration::~registration
EXTRN	??0scope@luabind@@QAE@XZ:PROC			; luabind::scope::scope
EXTRN	??0scope@luabind@@QAE@V?$auto_ptr@Uregistration@detail@luabind@@@std@@@Z:PROC ; luabind::scope::scope
EXTRN	??0scope@luabind@@QAE@ABU01@@Z:PROC		; luabind::scope::scope
EXTRN	??1scope@luabind@@QAE@XZ:PROC			; luabind::scope::~scope
EXTRN	??Qscope@luabind@@QAEAAU01@U01@@Z:PROC		; luabind::scope::operator,
EXTRN	?register_@scope@luabind@@QBEXPAUlua_State@@@Z:PROC ; luabind::scope::register_
EXTRN	?get_registry@class_registry@detail@luabind@@SAPAU123@PAUlua_State@@@Z:PROC ; luabind::detail::class_registry::get_registry
EXTRN	?add_class@class_registry@detail@luabind@@QAEXABVtype_id@3@PAVclass_rep@23@@Z:PROC ; luabind::detail::class_registry::add_class
EXTRN	?find_class@class_registry@detail@luabind@@QBEPAVclass_rep@23@ABVtype_id@3@@Z:PROC ; luabind::detail::class_registry::find_class
EXTRN	?insert@cast_graph@detail@luabind@@QAEXIIP6APAXPAX@Z@Z:PROC ; luabind::detail::cast_graph::insert
EXTRN	?allocate_class_id@detail@luabind@@YAIABVtype_id@2@@Z:PROC ; luabind::detail::allocate_class_id
EXTRN	??0class_rep@detail@luabind@@QAE@ABVtype_id@2@PBDPAUlua_State@@@Z:PROC ; luabind::detail::class_rep::class_rep
EXTRN	?add_base_class@class_rep@detail@luabind@@QAEXABUbase_info@123@@Z:PROC ; luabind::detail::class_rep::add_base_class
EXTRN	??_Eclass_registration@detail@luabind@@UAEPAXI@Z:PROC ; luabind::detail::class_registration::`vector deleting destructor'
EXTRN	@_RTC_CheckStackVars@8:PROC
EXTRN	@__security_check_cookie@4:PROC
EXTRN	__CxxThrowException@8:PROC
EXTRN	__RTC_CheckEsp:PROC
EXTRN	__RTC_InitBase:PROC
EXTRN	__RTC_Shutdown:PROC
EXTRN	___CxxFrameHandler3:PROC
EXTRN	_memset:PROC
EXTRN	??_7type_info@@6B@:QWORD			; type_info::`vftable'
EXTRN	?__type_info_root_node@@3U__type_info_node@@A:BYTE ; __type_info_root_node
EXTRN	?local_id_base@class_id_map@detail@luabind@@0IB:DWORD ; luabind::detail::class_id_map::local_id_base
EXTRN	___security_cookie:DWORD
_BSS	SEGMENT
?in_place_init@optional_ns@boost@@3Uin_place_init_t@12@B DB 01H DUP (?) ; boost::optional_ns::in_place_init
?in_place_init_if@optional_ns@boost@@3Uin_place_init_if_t@12@B DB 01H DUP (?) ; boost::optional_ns::in_place_init_if
_BSS	ENDS
;	COMDAT ?id@?$registered_class@Unull_type@detail@luabind@@@detail@luabind@@2IB
_BSS	SEGMENT
?id@?$registered_class@Unull_type@detail@luabind@@@detail@luabind@@2IB DD 01H DUP (?) ; luabind::detail::registered_class<luabind::detail::null_type>::id
_BSS	ENDS
;	COMDAT ?t@?1???$to_ptr@V?$vector@Ucast_entry@?A0x440dba7a@detail@luabind@@V?$allocator@Ucast_entry@?A0x440dba7a@detail@luabind@@@std@@@std@@@foreach_detail_@boost@@YAAAPAV?$vector@Ucast_entry@?A0x440dba7a@detail@luabind@@V?$allocator@Ucast_entry@?A0x440dba7a@detail@luabind@@@std@@@std@@ABV34@@Z@4PAV34@A
_BSS	SEGMENT
?t@?1???$to_ptr@V?$vector@Ucast_entry@?A0x440dba7a@detail@luabind@@V?$allocator@Ucast_entry@?A0x440dba7a@detail@luabind@@@std@@@std@@@foreach_detail_@boost@@YAAAPAV?$vector@Ucast_entry@?A0x440dba7a@detail@luabind@@V?$allocator@Ucast_entry@?A0x440dba7a@detail@luabind@@@std@@@std@@ABV34@@Z@4PAV34@A DD 01H DUP (?) ; `boost::foreach_detail_::to_ptr<std::vector<luabind::detail::`anonymous namespace'::cast_entry,std::allocator<luabind::detail::`anonymous namespace'::cast_entry> > >'::`2'::t
_BSS	ENDS
CRT$XCU	SEGMENT
?in_place_init$initializer$@optional_ns@boost@@3P6AXXZA DD FLAT:??__Ein_place_init@optional_ns@boost@@YAXXZ ; boost::optional_ns::in_place_init$initializer$
CRT$XCU	ENDS
;	COMDAT rtc$TMZ
rtc$TMZ	SEGMENT
__RTC_Shutdown.rtc$TMZ DD FLAT:__RTC_Shutdown
rtc$TMZ	ENDS
;	COMDAT rtc$IMZ
rtc$IMZ	SEGMENT
__RTC_InitBase.rtc$IMZ DD FLAT:__RTC_InitBase
rtc$IMZ	ENDS
;	COMDAT ??_R2registration@detail@luabind@@8
rdata$r	SEGMENT
??_R2registration@detail@luabind@@8 DD FLAT:??_R1A@?0A@EA@registration@detail@luabind@@8 ; luabind::detail::registration::`RTTI Base Class Array'
rdata$r	ENDS
;	COMDAT ??_R3registration@detail@luabind@@8
rdata$r	SEGMENT
??_R3registration@detail@luabind@@8 DD 00H		; luabind::detail::registration::`RTTI Class Hierarchy Descriptor'
	DD	00H
	DD	01H
	DD	FLAT:??_R2registration@detail@luabind@@8
rdata$r	ENDS
;	COMDAT ??_R0?AUregistration@detail@luabind@@@8
data$rs	SEGMENT
??_R0?AUregistration@detail@luabind@@@8 DD FLAT:??_7type_info@@6B@ ; luabind::detail::registration `RTTI Type Descriptor'
	DD	00H
	DB	'.?AUregistration@detail@luabind@@', 00H
data$rs	ENDS
;	COMDAT ??_R1A@?0A@EA@registration@detail@luabind@@8
rdata$r	SEGMENT
??_R1A@?0A@EA@registration@detail@luabind@@8 DD FLAT:??_R0?AUregistration@detail@luabind@@@8 ; luabind::detail::registration::`RTTI Base Class Descriptor at (0,-1,0,64)'
	DD	00H
	DD	00H
	DD	0ffffffffH
	DD	00H
	DD	040H
	DD	FLAT:??_R3registration@detail@luabind@@8
rdata$r	ENDS
;	COMDAT ??_R1A@?0A@EA@class_registration@detail@luabind@@8
rdata$r	SEGMENT
??_R1A@?0A@EA@class_registration@detail@luabind@@8 DD FLAT:??_R0?AUclass_registration@detail@luabind@@@8 ; luabind::detail::class_registration::`RTTI Base Class Descriptor at (0,-1,0,64)'
	DD	01H
	DD	00H
	DD	0ffffffffH
	DD	00H
	DD	040H
	DD	FLAT:??_R3class_registration@detail@luabind@@8
rdata$r	ENDS
;	COMDAT ??_R2class_registration@detail@luabind@@8
rdata$r	SEGMENT
??_R2class_registration@detail@luabind@@8 DD FLAT:??_R1A@?0A@EA@class_registration@detail@luabind@@8 ; luabind::detail::class_registration::`RTTI Base Class Array'
	DD	FLAT:??_R1A@?0A@EA@registration@detail@luabind@@8
rdata$r	ENDS
;	COMDAT ??_R3class_registration@detail@luabind@@8
rdata$r	SEGMENT
??_R3class_registration@detail@luabind@@8 DD 00H	; luabind::detail::class_registration::`RTTI Class Hierarchy Descriptor'
	DD	00H
	DD	02H
	DD	FLAT:??_R2class_registration@detail@luabind@@8
rdata$r	ENDS
;	COMDAT ??_R0?AUclass_registration@detail@luabind@@@8
data$rs	SEGMENT
??_R0?AUclass_registration@detail@luabind@@@8 DD FLAT:??_7type_info@@6B@ ; luabind::detail::class_registration `RTTI Type Descriptor'
	DD	00H
	DB	'.?AUclass_registration@detail@luabind@@', 00H
data$rs	ENDS
;	COMDAT ??_R4class_registration@detail@luabind@@6B@
rdata$r	SEGMENT
??_R4class_registration@detail@luabind@@6B@ DD 00H	; luabind::detail::class_registration::`RTTI Complete Object Locator'
	DD	00H
	DD	00H
	DD	FLAT:??_R0?AUclass_registration@detail@luabind@@@8
	DD	FLAT:??_R3class_registration@detail@luabind@@8
rdata$r	ENDS
;	COMDAT ??_R1A@?0A@EA@bad_array_new_length@std@@8
rdata$r	SEGMENT
??_R1A@?0A@EA@bad_array_new_length@std@@8 DD FLAT:??_R0?AVbad_array_new_length@std@@@8 ; std::bad_array_new_length::`RTTI Base Class Descriptor at (0,-1,0,64)'
	DD	02H
	DD	00H
	DD	0ffffffffH
	DD	00H
	DD	040H
	DD	FLAT:??_R3bad_array_new_length@std@@8
rdata$r	ENDS
;	COMDAT ??_R2bad_array_new_length@std@@8
rdata$r	SEGMENT
??_R2bad_array_new_length@std@@8 DD FLAT:??_R1A@?0A@EA@bad_array_new_length@std@@8 ; std::bad_array_new_length::`RTTI Base Class Array'
	DD	FLAT:??_R1A@?0A@EA@bad_alloc@std@@8
	DD	FLAT:??_R1A@?0A@EA@exception@std@@8
rdata$r	ENDS
;	COMDAT ??_R3bad_array_new_length@std@@8
rdata$r	SEGMENT
??_R3bad_array_new_length@std@@8 DD 00H			; std::bad_array_new_length::`RTTI Class Hierarchy Descriptor'
	DD	00H
	DD	03H
	DD	FLAT:??_R2bad_array_new_length@std@@8
rdata$r	ENDS
;	COMDAT ??_R4bad_array_new_length@std@@6B@
rdata$r	SEGMENT
??_R4bad_array_new_length@std@@6B@ DD 00H		; std::bad_array_new_length::`RTTI Complete Object Locator'
	DD	00H
	DD	00H
	DD	FLAT:??_R0?AVbad_array_new_length@std@@@8
	DD	FLAT:??_R3bad_array_new_length@std@@8
rdata$r	ENDS
;	COMDAT ??_R1A@?0A@EA@bad_alloc@std@@8
rdata$r	SEGMENT
??_R1A@?0A@EA@bad_alloc@std@@8 DD FLAT:??_R0?AVbad_alloc@std@@@8 ; std::bad_alloc::`RTTI Base Class Descriptor at (0,-1,0,64)'
	DD	01H
	DD	00H
	DD	0ffffffffH
	DD	00H
	DD	040H
	DD	FLAT:??_R3bad_alloc@std@@8
rdata$r	ENDS
;	COMDAT ??_R2bad_alloc@std@@8
rdata$r	SEGMENT
??_R2bad_alloc@std@@8 DD FLAT:??_R1A@?0A@EA@bad_alloc@std@@8 ; std::bad_alloc::`RTTI Base Class Array'
	DD	FLAT:??_R1A@?0A@EA@exception@std@@8
rdata$r	ENDS
;	COMDAT ??_R3bad_alloc@std@@8
rdata$r	SEGMENT
??_R3bad_alloc@std@@8 DD 00H				; std::bad_alloc::`RTTI Class Hierarchy Descriptor'
	DD	00H
	DD	02H
	DD	FLAT:??_R2bad_alloc@std@@8
rdata$r	ENDS
;	COMDAT ??_R4bad_alloc@std@@6B@
rdata$r	SEGMENT
??_R4bad_alloc@std@@6B@ DD 00H				; std::bad_alloc::`RTTI Complete Object Locator'
	DD	00H
	DD	00H
	DD	FLAT:??_R0?AVbad_alloc@std@@@8
	DD	FLAT:??_R3bad_alloc@std@@8
rdata$r	ENDS
;	COMDAT ??_R1A@?0A@EA@exception@std@@8
rdata$r	SEGMENT
??_R1A@?0A@EA@exception@std@@8 DD FLAT:??_R0?AVexception@std@@@8 ; std::exception::`RTTI Base Class Descriptor at (0,-1,0,64)'
	DD	00H
	DD	00H
	DD	0ffffffffH
	DD	00H
	DD	040H
	DD	FLAT:??_R3exception@std@@8
rdata$r	ENDS
;	COMDAT ??_R2exception@std@@8
rdata$r	SEGMENT
??_R2exception@std@@8 DD FLAT:??_R1A@?0A@EA@exception@std@@8 ; std::exception::`RTTI Base Class Array'
rdata$r	ENDS
;	COMDAT ??_R3exception@std@@8
rdata$r	SEGMENT
??_R3exception@std@@8 DD 00H				; std::exception::`RTTI Class Hierarchy Descriptor'
	DD	00H
	DD	01H
	DD	FLAT:??_R2exception@std@@8
rdata$r	ENDS
;	COMDAT ??_R4exception@std@@6B@
rdata$r	SEGMENT
??_R4exception@std@@6B@ DD 00H				; std::exception::`RTTI Complete Object Locator'
	DD	00H
	DD	00H
	DD	FLAT:??_R0?AVexception@std@@@8
	DD	FLAT:??_R3exception@std@@8
rdata$r	ENDS
;	COMDAT ??_C@_1CK@NDNHPKPI@?$AA?$CC?$AAi?$AAn?$AAv?$AAa?$AAl?$AAi?$AAd?$AA?5?$AAc?$AAo?$AAm?$AAp?$AAa?$AAr@
CONST	SEGMENT
??_C@_1CK@NDNHPKPI@?$AA?$CC?$AAi?$AAn?$AAv?$AAa?$AAl?$AAi?$AAd?$AA?5?$AAc?$AAo?$AAm?$AAp?$AAa?$AAr@ DB '"'
	DB	00H, 'i', 00H, 'n', 00H, 'v', 00H, 'a', 00H, 'l', 00H, 'i', 00H
	DB	'd', 00H, ' ', 00H, 'c', 00H, 'o', 00H, 'm', 00H, 'p', 00H, 'a'
	DB	00H, 'r', 00H, 'a', 00H, 't', 00H, 'o', 00H, 'r', 00H, '"', 00H
	DB	00H, 00H					; `string'
CONST	ENDS
;	COMDAT ??_C@_0BD@FEEMDEPI@invalid?5comparator@
CONST	SEGMENT
??_C@_0BD@FEEMDEPI@invalid?5comparator@ DB 'invalid comparator', 00H ; `string'
CONST	ENDS
;	COMDAT ??_C@_1MG@JJBOPAGB@?$AAC?$AA?3?$AA?2?$AAP?$AAr?$AAo?$AAg?$AAr?$AAa?$AAm?$AA?5?$AAF?$AAi?$AAl?$AAe@
CONST	SEGMENT
??_C@_1MG@JJBOPAGB@?$AAC?$AA?3?$AA?2?$AAP?$AAr?$AAo?$AAg?$AAr?$AAa?$AAm?$AA?5?$AAF?$AAi?$AAl?$AAe@ DB 'C'
	DB	00H, ':', 00H, '\', 00H, 'P', 00H, 'r', 00H, 'o', 00H, 'g', 00H
	DB	'r', 00H, 'a', 00H, 'm', 00H, ' ', 00H, 'F', 00H, 'i', 00H, 'l'
	DB	00H, 'e', 00H, 's', 00H, '\', 00H, 'M', 00H, 'i', 00H, 'c', 00H
	DB	'r', 00H, 'o', 00H, 's', 00H, 'o', 00H, 'f', 00H, 't', 00H, ' '
	DB	00H, 'V', 00H, 'i', 00H, 's', 00H, 'u', 00H, 'a', 00H, 'l', 00H
	DB	' ', 00H, 'S', 00H, 't', 00H, 'u', 00H, 'd', 00H, 'i', 00H, 'o'
	DB	00H, '\', 00H, '2', 00H, '0', 00H, '2', 00H, '2', 00H, '\', 00H
	DB	'C', 00H, 'o', 00H, 'm', 00H, 'm', 00H, 'u', 00H, 'n', 00H, 'i'
	DB	00H, 't', 00H, 'y', 00H, '\', 00H, 'V', 00H, 'C', 00H, '\', 00H
	DB	'T', 00H, 'o', 00H, 'o', 00H, 'l', 00H, 's', 00H, '\', 00H, 'M'
	DB	00H, 'S', 00H, 'V', 00H, 'C', 00H, '\', 00H, '1', 00H, '4', 00H
	DB	'.', 00H, '3', 00H, '4', 00H, '.', 00H, '3', 00H, '1', 00H, '9'
	DB	00H, '3', 00H, '3', 00H, '\', 00H, 'i', 00H, 'n', 00H, 'c', 00H
	DB	'l', 00H, 'u', 00H, 'd', 00H, 'e', 00H, '\', 00H, 'x', 00H, 'u'
	DB	00H, 't', 00H, 'i', 00H, 'l', 00H, 'i', 00H, 't', 00H, 'y', 00H
	DB	00H, 00H					; `string'
CONST	ENDS
;	COMDAT ??_C@_0GD@JKKFFOCD@C?3?2Program?5Files?2Microsoft?5Visu@
CONST	SEGMENT
??_C@_0GD@JKKFFOCD@C?3?2Program?5Files?2Microsoft?5Visu@ DB 'C:\Program F'
	DB	'iles\Microsoft Visual Studio\2022\Community\VC\Tools\MSVC\14.'
	DB	'34.31933\include\xutility', 00H		; `string'
CONST	ENDS
;	COMDAT ??_C@_0BA@FOIKENOD@vector?5too?5long@
CONST	SEGMENT
??_C@_0BA@FOIKENOD@vector?5too?5long@ DB 'vector too long', 00H ; `string'
CONST	ENDS
;	COMDAT ??_C@_1EG@DFCHKBDO@?$AA?$CC?$AAc?$AAo?$AAn?$AAt?$AAa?$AAi?$AAn?$AAe?$AAr?$AAs?$AA?5?$AAi?$AAn?$AAc@
CONST	SEGMENT
??_C@_1EG@DFCHKBDO@?$AA?$CC?$AAc?$AAo?$AAn?$AAt?$AAa?$AAi?$AAn?$AAe?$AAr?$AAs?$AA?5?$AAi?$AAn?$AAc@ DB '"'
	DB	00H, 'c', 00H, 'o', 00H, 'n', 00H, 't', 00H, 'a', 00H, 'i', 00H
	DB	'n', 00H, 'e', 00H, 'r', 00H, 's', 00H, ' ', 00H, 'i', 00H, 'n'
	DB	00H, 'c', 00H, 'o', 00H, 'm', 00H, 'p', 00H, 'a', 00H, 't', 00H
	DB	'i', 00H, 'b', 00H, 'l', 00H, 'e', 00H, ' ', 00H, 'f', 00H, 'o'
	DB	00H, 'r', 00H, ' ', 00H, 's', 00H, 'w', 00H, 'a', 00H, 'p', 00H
	DB	'"', 00H, 00H, 00H				; `string'
CONST	ENDS
;	COMDAT ??_C@_0CB@PKNBJHCN@containers?5incompatible?5for?5swa@
CONST	SEGMENT
??_C@_0CB@PKNBJHCN@containers?5incompatible?5for?5swa@ DB 'containers inc'
	DB	'ompatible for swap', 00H			; `string'
CONST	ENDS
;	COMDAT ??_C@_1HA@FACCKGGH@?$AA?$CC?$AAn?$AAu?$AAl?$AAl?$AA?5?$AAp?$AAo?$AAi?$AAn?$AAt?$AAe?$AAr?$AA?5?$AAc@
CONST	SEGMENT
??_C@_1HA@FACCKGGH@?$AA?$CC?$AAn?$AAu?$AAl?$AAl?$AA?5?$AAp?$AAo?$AAi?$AAn?$AAt?$AAe?$AAr?$AA?5?$AAc@ DB '"'
	DB	00H, 'n', 00H, 'u', 00H, 'l', 00H, 'l', 00H, ' ', 00H, 'p', 00H
	DB	'o', 00H, 'i', 00H, 'n', 00H, 't', 00H, 'e', 00H, 'r', 00H, ' '
	DB	00H, 'c', 00H, 'a', 00H, 'n', 00H, 'n', 00H, 'o', 00H, 't', 00H
	DB	' ', 00H, 'p', 00H, 'o', 00H, 'i', 00H, 'n', 00H, 't', 00H, ' '
	DB	00H, 't', 00H, 'o', 00H, ' ', 00H, 'a', 00H, ' ', 00H, 'b', 00H
	DB	'l', 00H, 'o', 00H, 'c', 00H, 'k', 00H, ' ', 00H, 'o', 00H, 'f'
	DB	00H, ' ', 00H, 'n', 00H, 'o', 00H, 'n', 00H, '-', 00H, 'z', 00H
	DB	'e', 00H, 'r', 00H, 'o', 00H, ' ', 00H, 's', 00H, 'i', 00H, 'z'
	DB	00H, 'e', 00H, '"', 00H, 00H, 00H		; `string'
CONST	ENDS
;	COMDAT ??_C@_0DG@KGHKKGBC@null?5pointer?5cannot?5point?5to?5a?5@
CONST	SEGMENT
??_C@_0DG@KGHKKGBC@null?5pointer?5cannot?5point?5to?5a?5@ DB 'null pointe'
	DB	'r cannot point to a block of non-zero size', 00H ; `string'
CONST	ENDS
;	COMDAT ??_C@_1EA@DJDGNIII@?$AA?$CC?$AAv?$AAe?$AAc?$AAt?$AAo?$AAr?$AA?5?$AAi?$AAt?$AAe?$AAr?$AAa?$AAt?$AAo@
CONST	SEGMENT
??_C@_1EA@DJDGNIII@?$AA?$CC?$AAv?$AAe?$AAc?$AAt?$AAo?$AAr?$AA?5?$AAi?$AAt?$AAe?$AAr?$AAa?$AAt?$AAo@ DB '"'
	DB	00H, 'v', 00H, 'e', 00H, 'c', 00H, 't', 00H, 'o', 00H, 'r', 00H
	DB	' ', 00H, 'i', 00H, 't', 00H, 'e', 00H, 'r', 00H, 'a', 00H, 't'
	DB	00H, 'o', 00H, 'r', 00H, 's', 00H, ' ', 00H, 'i', 00H, 'n', 00H
	DB	'c', 00H, 'o', 00H, 'm', 00H, 'p', 00H, 'a', 00H, 't', 00H, 'i'
	DB	00H, 'b', 00H, 'l', 00H, 'e', 00H, '"', 00H, 00H, 00H ; `string'
CONST	ENDS
;	COMDAT ??_C@_0BO@CAOBBIOC@vector?5iterators?5incompatible@
CONST	SEGMENT
??_C@_0BO@CAOBBIOC@vector?5iterators?5incompatible@ DB 'vector iterators '
	DB	'incompatible', 00H				; `string'
CONST	ENDS
;	COMDAT ??_C@_1FE@NKHAAGMB@?$AA?$CC?$AAc?$AAa?$AAn?$AAn?$AAo?$AAt?$AA?5?$AAd?$AAe?$AAr?$AAe?$AAf?$AAe?$AAr@
CONST	SEGMENT
??_C@_1FE@NKHAAGMB@?$AA?$CC?$AAc?$AAa?$AAn?$AAn?$AAo?$AAt?$AA?5?$AAd?$AAe?$AAr?$AAe?$AAf?$AAe?$AAr@ DB '"'
	DB	00H, 'c', 00H, 'a', 00H, 'n', 00H, 'n', 00H, 'o', 00H, 't', 00H
	DB	' ', 00H, 'd', 00H, 'e', 00H, 'r', 00H, 'e', 00H, 'f', 00H, 'e'
	DB	00H, 'r', 00H, 'e', 00H, 'n', 00H, 'c', 00H, 'e', 00H, ' ', 00H
	DB	'e', 00H, 'n', 00H, 'd', 00H, ' ', 00H, 'm', 00H, 'a', 00H, 'p'
	DB	00H, '/', 00H, 's', 00H, 'e', 00H, 't', 00H, ' ', 00H, 'i', 00H
	DB	't', 00H, 'e', 00H, 'r', 00H, 'a', 00H, 't', 00H, 'o', 00H, 'r'
	DB	00H, '"', 00H, 00H, 00H			; `string'
CONST	ENDS
;	COMDAT ??_C@_0CI@OKFEHCEB@cannot?5dereference?5end?5map?1set?5@
CONST	SEGMENT
??_C@_0CI@OKFEHCEB@cannot?5dereference?5end?5map?1set?5@ DB 'cannot deref'
	DB	'erence end map/set iterator', 00H		; `string'
CONST	ENDS
;	COMDAT ??_C@_1HA@ILGCNILF@?$AA?$CC?$AAc?$AAa?$AAn?$AAn?$AAo?$AAt?$AA?5?$AAd?$AAe?$AAr?$AAe?$AAf?$AAe?$AAr@
CONST	SEGMENT
??_C@_1HA@ILGCNILF@?$AA?$CC?$AAc?$AAa?$AAn?$AAn?$AAo?$AAt?$AA?5?$AAd?$AAe?$AAr?$AAe?$AAf?$AAe?$AAr@ DB '"'
	DB	00H, 'c', 00H, 'a', 00H, 'n', 00H, 'n', 00H, 'o', 00H, 't', 00H
	DB	' ', 00H, 'd', 00H, 'e', 00H, 'r', 00H, 'e', 00H, 'f', 00H, 'e'
	DB	00H, 'r', 00H, 'e', 00H, 'n', 00H, 'c', 00H, 'e', 00H, ' ', 00H
	DB	'v', 00H, 'a', 00H, 'l', 00H, 'u', 00H, 'e', 00H, '-', 00H, 'i'
	DB	00H, 'n', 00H, 'i', 00H, 't', 00H, 'i', 00H, 'a', 00H, 'l', 00H
	DB	'i', 00H, 'z', 00H, 'e', 00H, 'd', 00H, ' ', 00H, 'm', 00H, 'a'
	DB	00H, 'p', 00H, '/', 00H, 's', 00H, 'e', 00H, 't', 00H, ' ', 00H
	DB	'i', 00H, 't', 00H, 'e', 00H, 'r', 00H, 'a', 00H, 't', 00H, 'o'
	DB	00H, 'r', 00H, '"', 00H, 00H, 00H		; `string'
CONST	ENDS
;	COMDAT ??_C@_0DG@LCFNIIPB@cannot?5dereference?5value?9initia@
CONST	SEGMENT
??_C@_0DG@LCFNIIPB@cannot?5dereference?5value?9initia@ DB 'cannot derefer'
	DB	'ence value-initialized map/set iterator', 00H ; `string'
CONST	ENDS
;	COMDAT ??_C@_1FG@LDPPKMGP@?$AA?$CC?$AAc?$AAa?$AAn?$AA?8?$AAt?$AA?5?$AAi?$AAn?$AAc?$AAr?$AAe?$AAm?$AAe?$AAn@
CONST	SEGMENT
??_C@_1FG@LDPPKMGP@?$AA?$CC?$AAc?$AAa?$AAn?$AA?8?$AAt?$AA?5?$AAi?$AAn?$AAc?$AAr?$AAe?$AAm?$AAe?$AAn@ DB '"'
	DB	00H, 'c', 00H, 'a', 00H, 'n', 00H, '''', 00H, 't', 00H, ' ', 00H
	DB	'i', 00H, 'n', 00H, 'c', 00H, 'r', 00H, 'e', 00H, 'm', 00H, 'e'
	DB	00H, 'n', 00H, 't', 00H, ' ', 00H, 'v', 00H, 'e', 00H, 'c', 00H
	DB	't', 00H, 'o', 00H, 'r', 00H, ' ', 00H, 'i', 00H, 't', 00H, 'e'
	DB	00H, 'r', 00H, 'a', 00H, 't', 00H, 'o', 00H, 'r', 00H, ' ', 00H
	DB	'p', 00H, 'a', 00H, 's', 00H, 't', 00H, ' ', 00H, 'e', 00H, 'n'
	DB	00H, 'd', 00H, '"', 00H, 00H, 00H		; `string'
CONST	ENDS
;	COMDAT ??_C@_0CJ@OAAAAGPM@can?8t?5increment?5vector?5iterator@
CONST	SEGMENT
??_C@_0CJ@OAAAAGPM@can?8t?5increment?5vector?5iterator@ DB 'can''t increm'
	DB	'ent vector iterator past end', 00H		; `string'
CONST	ENDS
;	COMDAT ??_C@_1GI@EDCILPL@?$AA?$CC?$AAc?$AAa?$AAn?$AA?8?$AAt?$AA?5?$AAi?$AAn?$AAc?$AAr?$AAe?$AAm?$AAe?$AAn@
CONST	SEGMENT
??_C@_1GI@EDCILPL@?$AA?$CC?$AAc?$AAa?$AAn?$AA?8?$AAt?$AA?5?$AAi?$AAn?$AAc?$AAr?$AAe?$AAm?$AAe?$AAn@ DB '"'
	DB	00H, 'c', 00H, 'a', 00H, 'n', 00H, '''', 00H, 't', 00H, ' ', 00H
	DB	'i', 00H, 'n', 00H, 'c', 00H, 'r', 00H, 'e', 00H, 'm', 00H, 'e'
	DB	00H, 'n', 00H, 't', 00H, ' ', 00H, 'v', 00H, 'a', 00H, 'l', 00H
	DB	'u', 00H, 'e', 00H, '-', 00H, 'i', 00H, 'n', 00H, 'i', 00H, 't'
	DB	00H, 'i', 00H, 'a', 00H, 'l', 00H, 'i', 00H, 'z', 00H, 'e', 00H
	DB	'd', 00H, ' ', 00H, 'v', 00H, 'e', 00H, 'c', 00H, 't', 00H, 'o'
	DB	00H, 'r', 00H, ' ', 00H, 'i', 00H, 't', 00H, 'e', 00H, 'r', 00H
	DB	'a', 00H, 't', 00H, 'o', 00H, 'r', 00H, '"', 00H, 00H, 00H ; `string'
CONST	ENDS
;	COMDAT ??_C@_0DC@KEKNBAEB@can?8t?5increment?5value?9initializ@
CONST	SEGMENT
??_C@_0DC@KEKNBAEB@can?8t?5increment?5value?9initializ@ DB 'can''t increm'
	DB	'ent value-initialized vector iterator', 00H	; `string'
CONST	ENDS
;	COMDAT ??_C@_1MA@LENEFKFL@?$AAC?$AA?3?$AA?2?$AAP?$AAr?$AAo?$AAg?$AAr?$AAa?$AAm?$AA?5?$AAF?$AAi?$AAl?$AAe@
CONST	SEGMENT
??_C@_1MA@LENEFKFL@?$AAC?$AA?3?$AA?2?$AAP?$AAr?$AAo?$AAg?$AAr?$AAa?$AAm?$AA?5?$AAF?$AAi?$AAl?$AAe@ DB 'C'
	DB	00H, ':', 00H, '\', 00H, 'P', 00H, 'r', 00H, 'o', 00H, 'g', 00H
	DB	'r', 00H, 'a', 00H, 'm', 00H, ' ', 00H, 'F', 00H, 'i', 00H, 'l'
	DB	00H, 'e', 00H, 's', 00H, '\', 00H, 'M', 00H, 'i', 00H, 'c', 00H
	DB	'r', 00H, 'o', 00H, 's', 00H, 'o', 00H, 'f', 00H, 't', 00H, ' '
	DB	00H, 'V', 00H, 'i', 00H, 's', 00H, 'u', 00H, 'a', 00H, 'l', 00H
	DB	' ', 00H, 'S', 00H, 't', 00H, 'u', 00H, 'd', 00H, 'i', 00H, 'o'
	DB	00H, '\', 00H, '2', 00H, '0', 00H, '2', 00H, '2', 00H, '\', 00H
	DB	'C', 00H, 'o', 00H, 'm', 00H, 'm', 00H, 'u', 00H, 'n', 00H, 'i'
	DB	00H, 't', 00H, 'y', 00H, '\', 00H, 'V', 00H, 'C', 00H, '\', 00H
	DB	'T', 00H, 'o', 00H, 'o', 00H, 'l', 00H, 's', 00H, '\', 00H, 'M'
	DB	00H, 'S', 00H, 'V', 00H, 'C', 00H, '\', 00H, '1', 00H, '4', 00H
	DB	'.', 00H, '3', 00H, '4', 00H, '.', 00H, '3', 00H, '1', 00H, '9'
	DB	00H, '3', 00H, '3', 00H, '\', 00H, 'i', 00H, 'n', 00H, 'c', 00H
	DB	'l', 00H, 'u', 00H, 'd', 00H, 'e', 00H, '\', 00H, 'x', 00H, 't'
	DB	00H, 'r', 00H, 'e', 00H, 'e', 00H, 00H, 00H	; `string'
CONST	ENDS
;	COMDAT ??_C@_0GA@GNHKHACC@C?3?2Program?5Files?2Microsoft?5Visu@
CONST	SEGMENT
??_C@_0GA@GNHKHACC@C?3?2Program?5Files?2Microsoft?5Visu@ DB 'C:\Program F'
	DB	'iles\Microsoft Visual Studio\2022\Community\VC\Tools\MSVC\14.'
	DB	'34.31933\include\xtree', 00H		; `string'
CONST	ENDS
;	COMDAT ??_C@_1EA@LEKOKFNB@?$AA?$CC?$AAv?$AAe?$AAc?$AAt?$AAo?$AAr?$AA?5?$AAs?$AAu?$AAb?$AAs?$AAc?$AAr?$AAi@
CONST	SEGMENT
??_C@_1EA@LEKOKFNB@?$AA?$CC?$AAv?$AAe?$AAc?$AAt?$AAo?$AAr?$AA?5?$AAs?$AAu?$AAb?$AAs?$AAc?$AAr?$AAi@ DB '"'
	DB	00H, 'v', 00H, 'e', 00H, 'c', 00H, 't', 00H, 'o', 00H, 'r', 00H
	DB	' ', 00H, 's', 00H, 'u', 00H, 'b', 00H, 's', 00H, 'c', 00H, 'r'
	DB	00H, 'i', 00H, 'p', 00H, 't', 00H, ' ', 00H, 'o', 00H, 'u', 00H
	DB	't', 00H, ' ', 00H, 'o', 00H, 'f', 00H, ' ', 00H, 'r', 00H, 'a'
	DB	00H, 'n', 00H, 'g', 00H, 'e', 00H, '"', 00H, 00H, 00H ; `string'
CONST	ENDS
;	COMDAT ??_C@_0BO@PFKOHNJC@vector?5subscript?5out?5of?5range@
CONST	SEGMENT
??_C@_0BO@PFKOHNJC@vector?5subscript?5out?5of?5range@ DB 'vector subscrip'
	DB	't out of range', 00H			; `string'
CONST	ENDS
;	COMDAT ??_C@_1GC@JDCKOLAC@?$AA?$CC?$AAc?$AAa?$AAn?$AA?8?$AAt?$AA?5?$AAd?$AAe?$AAr?$AAe?$AAf?$AAe?$AAr?$AAe@
CONST	SEGMENT
??_C@_1GC@JDCKOLAC@?$AA?$CC?$AAc?$AAa?$AAn?$AA?8?$AAt?$AA?5?$AAd?$AAe?$AAr?$AAe?$AAf?$AAe?$AAr?$AAe@ DB '"'
	DB	00H, 'c', 00H, 'a', 00H, 'n', 00H, '''', 00H, 't', 00H, ' ', 00H
	DB	'd', 00H, 'e', 00H, 'r', 00H, 'e', 00H, 'f', 00H, 'e', 00H, 'r'
	DB	00H, 'e', 00H, 'n', 00H, 'c', 00H, 'e', 00H, ' ', 00H, 'o', 00H
	DB	'u', 00H, 't', 00H, ' ', 00H, 'o', 00H, 'f', 00H, ' ', 00H, 'r'
	DB	00H, 'a', 00H, 'n', 00H, 'g', 00H, 'e', 00H, ' ', 00H, 'v', 00H
	DB	'e', 00H, 'c', 00H, 't', 00H, 'o', 00H, 'r', 00H, ' ', 00H, 'i'
	DB	00H, 't', 00H, 'e', 00H, 'r', 00H, 'a', 00H, 't', 00H, 'o', 00H
	DB	'r', 00H, '"', 00H, 00H, 00H			; `string'
CONST	ENDS
;	COMDAT ??_C@_0CP@MDHADBHN@can?8t?5dereference?5out?5of?5range?5@
CONST	SEGMENT
??_C@_0CP@MDHADBHN@can?8t?5dereference?5out?5of?5range?5@ DB 'can''t dere'
	DB	'ference out of range vector iterator', 00H	; `string'
CONST	ENDS
;	COMDAT ??_C@_1GM@FNBFNBEL@?$AA?$CC?$AAc?$AAa?$AAn?$AA?8?$AAt?$AA?5?$AAd?$AAe?$AAr?$AAe?$AAf?$AAe?$AAr?$AAe@
CONST	SEGMENT
??_C@_1GM@FNBFNBEL@?$AA?$CC?$AAc?$AAa?$AAn?$AA?8?$AAt?$AA?5?$AAd?$AAe?$AAr?$AAe?$AAf?$AAe?$AAr?$AAe@ DB '"'
	DB	00H, 'c', 00H, 'a', 00H, 'n', 00H, '''', 00H, 't', 00H, ' ', 00H
	DB	'd', 00H, 'e', 00H, 'r', 00H, 'e', 00H, 'f', 00H, 'e', 00H, 'r'
	DB	00H, 'e', 00H, 'n', 00H, 'c', 00H, 'e', 00H, ' ', 00H, 'v', 00H
	DB	'a', 00H, 'l', 00H, 'u', 00H, 'e', 00H, '-', 00H, 'i', 00H, 'n'
	DB	00H, 'i', 00H, 't', 00H, 'i', 00H, 'a', 00H, 'l', 00H, 'i', 00H
	DB	'z', 00H, 'e', 00H, 'd', 00H, ' ', 00H, 'v', 00H, 'e', 00H, 'c'
	DB	00H, 't', 00H, 'o', 00H, 'r', 00H, ' ', 00H, 'i', 00H, 't', 00H
	DB	'e', 00H, 'r', 00H, 'a', 00H, 't', 00H, 'o', 00H, 'r', 00H, '"'
	DB	00H, 00H, 00H				; `string'
CONST	ENDS
;	COMDAT ??_C@_1MC@JGAHOMKA@?$AAC?$AA?3?$AA?2?$AAP?$AAr?$AAo?$AAg?$AAr?$AAa?$AAm?$AA?5?$AAF?$AAi?$AAl?$AAe@
CONST	SEGMENT
??_C@_1MC@JGAHOMKA@?$AAC?$AA?3?$AA?2?$AAP?$AAr?$AAo?$AAg?$AAr?$AAa?$AAm?$AA?5?$AAF?$AAi?$AAl?$AAe@ DB 'C'
	DB	00H, ':', 00H, '\', 00H, 'P', 00H, 'r', 00H, 'o', 00H, 'g', 00H
	DB	'r', 00H, 'a', 00H, 'm', 00H, ' ', 00H, 'F', 00H, 'i', 00H, 'l'
	DB	00H, 'e', 00H, 's', 00H, '\', 00H, 'M', 00H, 'i', 00H, 'c', 00H
	DB	'r', 00H, 'o', 00H, 's', 00H, 'o', 00H, 'f', 00H, 't', 00H, ' '
	DB	00H, 'V', 00H, 'i', 00H, 's', 00H, 'u', 00H, 'a', 00H, 'l', 00H
	DB	' ', 00H, 'S', 00H, 't', 00H, 'u', 00H, 'd', 00H, 'i', 00H, 'o'
	DB	00H, '\', 00H, '2', 00H, '0', 00H, '2', 00H, '2', 00H, '\', 00H
	DB	'C', 00H, 'o', 00H, 'm', 00H, 'm', 00H, 'u', 00H, 'n', 00H, 'i'
	DB	00H, 't', 00H, 'y', 00H, '\', 00H, 'V', 00H, 'C', 00H, '\', 00H
	DB	'T', 00H, 'o', 00H, 'o', 00H, 'l', 00H, 's', 00H, '\', 00H, 'M'
	DB	00H, 'S', 00H, 'V', 00H, 'C', 00H, '\', 00H, '1', 00H, '4', 00H
	DB	'.', 00H, '3', 00H, '4', 00H, '.', 00H, '3', 00H, '1', 00H, '9'
	DB	00H, '3', 00H, '3', 00H, '\', 00H, 'i', 00H, 'n', 00H, 'c', 00H
	DB	'l', 00H, 'u', 00H, 'd', 00H, 'e', 00H, '\', 00H, 'v', 00H, 'e'
	DB	00H, 'c', 00H, 't', 00H, 'o', 00H, 'r', 00H, 00H, 00H ; `string'
CONST	ENDS
;	COMDAT ??_C@_0GB@OIADIBJN@C?3?2Program?5Files?2Microsoft?5Visu@
CONST	SEGMENT
??_C@_0GB@OIADIBJN@C?3?2Program?5Files?2Microsoft?5Visu@ DB 'C:\Program F'
	DB	'iles\Microsoft Visual Studio\2022\Community\VC\Tools\MSVC\14.'
	DB	'34.31933\include\vector', 00H		; `string'
CONST	ENDS
;	COMDAT ??_C@_0DE@CHADHGFF@can?8t?5dereference?5value?9initial@
CONST	SEGMENT
??_C@_0DE@CHADHGFF@can?8t?5dereference?5value?9initial@ DB 'can''t derefe'
	DB	'rence value-initialized vector iterator', 00H ; `string'
CONST	ENDS
;	COMDAT ??_7class_registration@detail@luabind@@6B@
CONST	SEGMENT
??_7class_registration@detail@luabind@@6B@ DD FLAT:??_R4class_registration@detail@luabind@@6B@ ; luabind::detail::class_registration::`vftable'
	DD	FLAT:??_Eclass_registration@detail@luabind@@UAEPAXI@Z
	DD	FLAT:?register_@class_registration@detail@luabind@@UBEXPAUlua_State@@@Z
CONST	ENDS
;	COMDAT ??_C@_1DG@CAPFJFIB@?$AAm?$AA_?$AAs?$AAt?$AAa?$AAc?$AAk?$AA?5?$AA?$DN?$AA?$DN?$AA?5?$AAl?$AAu?$AAa?$AA_@
CONST	SEGMENT
??_C@_1DG@CAPFJFIB@?$AAm?$AA_?$AAs?$AAt?$AAa?$AAc?$AAk?$AA?5?$AA?$DN?$AA?$DN?$AA?5?$AAl?$AAu?$AAa?$AA_@ DB 'm'
	DB	00H, '_', 00H, 's', 00H, 't', 00H, 'a', 00H, 'c', 00H, 'k', 00H
	DB	' ', 00H, '=', 00H, '=', 00H, ' ', 00H, 'l', 00H, 'u', 00H, 'a'
	DB	00H, '_', 00H, 'g', 00H, 'e', 00H, 't', 00H, 't', 00H, 'o', 00H
	DB	'p', 00H, '(', 00H, 'm', 00H, '_', 00H, 'L', 00H, ')', 00H, 00H
	DB	00H						; `string'
CONST	ENDS
;	COMDAT ??_C@_1KA@FDCAJHLM@?$AAD?$AA?3?$AA?2?$AA_?$AA_?$AAR?$AAe?$AAp?$AAo?$AAs?$AA?2?$AA_?$AA_?$AAM?$AAy@
CONST	SEGMENT
??_C@_1KA@FDCAJHLM@?$AAD?$AA?3?$AA?2?$AA_?$AA_?$AAR?$AAe?$AAp?$AAo?$AAs?$AA?2?$AA_?$AA_?$AAM?$AAy@ DB 'D'
	DB	00H, ':', 00H, '\', 00H, '_', 00H, '_', 00H, 'R', 00H, 'e', 00H
	DB	'p', 00H, 'o', 00H, 's', 00H, '\', 00H, '_', 00H, '_', 00H, 'M'
	DB	00H, 'y', 00H, 'R', 00H, 'e', 00H, 'p', 00H, 'o', 00H, 's', 00H
	DB	'\', 00H, 'R', 00H, 'a', 00H, 'v', 00H, 'e', 00H, 'n', 00H, '_'
	DB	00H, 'V', 00H, 'S', 00H, '2', 00H, '0', 00H, '2', 00H, '2', 00H
	DB	'\', 00H, 'C', 00H, 'o', 00H, 'm', 00H, 'm', 00H, 'o', 00H, 'n'
	DB	00H, '\', 00H, 'l', 00H, 'u', 00H, 'a', 00H, 'b', 00H, 'i', 00H
	DB	'n', 00H, 'd', 00H, '-', 00H, '0', 00H, '.', 00H, '9', 00H, '.'
	DB	00H, '1', 00H, '\', 00H, 'l', 00H, 'u', 00H, 'a', 00H, 'b', 00H
	DB	'i', 00H, 'n', 00H, 'd', 00H, '\', 00H, 'd', 00H, 'e', 00H, 't'
	DB	00H, 'a', 00H, 'i', 00H, 'l', 00H, '\', 00H, 'd', 00H, 'e', 00H
	DB	'b', 00H, 'u', 00H, 'g', 00H, '.', 00H, 'h', 00H, 'p', 00H, 'p'
	DB	00H, 00H, 00H				; `string'
CONST	ENDS
;	COMDAT ??_C@_1KK@BKHOEKNE@?$AAr?$AAe?$AAs?$AAu?$AAl?$AAt?$AA?4?$AAs?$AAe?$AAc?$AAo?$AAn?$AAd?$AA?5?$AA?$HM@
CONST	SEGMENT
??_C@_1KK@BKHOEKNE@?$AAr?$AAe?$AAs?$AAu?$AAl?$AAt?$AA?4?$AAs?$AAe?$AAc?$AAo?$AAn?$AAd?$AA?5?$AA?$HM@ DB 'r'
	DB	00H, 'e', 00H, 's', 00H, 'u', 00H, 'l', 00H, 't', 00H, '.', 00H
	DB	's', 00H, 'e', 00H, 'c', 00H, 'o', 00H, 'n', 00H, 'd', 00H, ' '
	DB	00H, '|', 00H, '|', 00H, ' ', 00H, 'r', 00H, 'e', 00H, 's', 00H
	DB	'u', 00H, 'l', 00H, 't', 00H, '.', 00H, 'f', 00H, 'i', 00H, 'r'
	DB	00H, 's', 00H, 't', 00H, '-', 00H, '>', 00H, 's', 00H, 'e', 00H
	DB	'c', 00H, 'o', 00H, 'n', 00H, 'd', 00H, ' ', 00H, '=', 00H, '='
	DB	00H, ' ', 00H, 'i', 00H, 'd', 00H, ' ', 00H, '|', 00H, '|', 00H
	DB	' ', 00H, 'r', 00H, 'e', 00H, 's', 00H, 'u', 00H, 'l', 00H, 't'
	DB	00H, '.', 00H, 'f', 00H, 'i', 00H, 'r', 00H, 's', 00H, 't', 00H
	DB	'-', 00H, '>', 00H, 's', 00H, 'e', 00H, 'c', 00H, 'o', 00H, 'n'
	DB	00H, 'd', 00H, ' ', 00H, '>', 00H, '=', 00H, ' ', 00H, 'l', 00H
	DB	'o', 00H, 'c', 00H, 'a', 00H, 'l', 00H, '_', 00H, 'i', 00H, 'd'
	DB	00H, '_', 00H, 'b', 00H, 'a', 00H, 's', 00H, 'e', 00H, 00H, 00H ; `string'
CONST	ENDS
;	COMDAT ??_C@_1CG@PBEMIDNO@?$AAi?$AAd?$AA?5?$AA?$DM?$AA?5?$AAl?$AAo?$AAc?$AAa?$AAl?$AA_?$AAi?$AAd?$AA_?$AAb@
CONST	SEGMENT
??_C@_1CG@PBEMIDNO@?$AAi?$AAd?$AA?5?$AA?$DM?$AA?5?$AAl?$AAo?$AAc?$AAa?$AAl?$AA_?$AAi?$AAd?$AA_?$AAb@ DB 'i'
	DB	00H, 'd', 00H, ' ', 00H, '<', 00H, ' ', 00H, 'l', 00H, 'o', 00H
	DB	'c', 00H, 'a', 00H, 'l', 00H, '_', 00H, 'i', 00H, 'd', 00H, '_'
	DB	00H, 'b', 00H, 'a', 00H, 's', 00H, 'e', 00H, 00H, 00H ; `string'
CONST	ENDS
;	COMDAT ??_C@_1KM@EAPOGOKM@?$AAD?$AA?3?$AA?2?$AA_?$AA_?$AAR?$AAe?$AAp?$AAo?$AAs?$AA?2?$AA_?$AA_?$AAM?$AAy@
CONST	SEGMENT
??_C@_1KM@EAPOGOKM@?$AAD?$AA?3?$AA?2?$AA_?$AA_?$AAR?$AAe?$AAp?$AAo?$AAs?$AA?2?$AA_?$AA_?$AAM?$AAy@ DB 'D'
	DB	00H, ':', 00H, '\', 00H, '_', 00H, '_', 00H, 'R', 00H, 'e', 00H
	DB	'p', 00H, 'o', 00H, 's', 00H, '\', 00H, '_', 00H, '_', 00H, 'M'
	DB	00H, 'y', 00H, 'R', 00H, 'e', 00H, 'p', 00H, 'o', 00H, 's', 00H
	DB	'\', 00H, 'R', 00H, 'a', 00H, 'v', 00H, 'e', 00H, 'n', 00H, '_'
	DB	00H, 'V', 00H, 'S', 00H, '2', 00H, '0', 00H, '2', 00H, '2', 00H
	DB	'\', 00H, 'C', 00H, 'o', 00H, 'm', 00H, 'm', 00H, 'o', 00H, 'n'
	DB	00H, '\', 00H, 'l', 00H, 'u', 00H, 'a', 00H, 'b', 00H, 'i', 00H
	DB	'n', 00H, 'd', 00H, '-', 00H, '0', 00H, '.', 00H, '9', 00H, '.'
	DB	00H, '1', 00H, '\', 00H, 'l', 00H, 'u', 00H, 'a', 00H, 'b', 00H
	DB	'i', 00H, 'n', 00H, 'd', 00H, '\', 00H, 'd', 00H, 'e', 00H, 't'
	DB	00H, 'a', 00H, 'i', 00H, 'l', 00H, '\', 00H, 'i', 00H, 'n', 00H
	DB	'h', 00H, 'e', 00H, 'r', 00H, 'i', 00H, 't', 00H, 'a', 00H, 'n'
	DB	00H, 'c', 00H, 'e', 00H, '.', 00H, 'h', 00H, 'p', 00H, 'p', 00H
	DB	00H, 00H					; `string'
CONST	ENDS
;	COMDAT ??_R0?AUnull_type@detail@luabind@@@8
data$r	SEGMENT
??_R0?AUnull_type@detail@luabind@@@8 DD FLAT:??_7type_info@@6B@ ; luabind::detail::null_type `RTTI Type Descriptor'
	DD	00H
	DB	'.?AUnull_type@detail@luabind@@', 00H
data$r	ENDS
;	COMDAT ??_C@_0BB@GCADKGJO@map?1set?5too?5long@
CONST	SEGMENT
??_C@_0BB@GCADKGJO@map?1set?5too?5long@ DB 'map/set too long', 00H ; `string'
CONST	ENDS
;	COMDAT ??_C@_0BA@JFNIOLAK@string?5too?5long@
CONST	SEGMENT
??_C@_0BA@JFNIOLAK@string?5too?5long@ DB 'string too long', 00H ; `string'
CONST	ENDS
;	COMDAT ??_C@_1DG@PLBPCAEM@?$AA?$CC?$AAI?$AAT?$AAE?$AAR?$AAA?$AAT?$AAO?$AAR?$AA?5?$AAL?$AAI?$AAS?$AAT?$AA?5@
CONST	SEGMENT
??_C@_1DG@PLBPCAEM@?$AA?$CC?$AAI?$AAT?$AAE?$AAR?$AAA?$AAT?$AAO?$AAR?$AA?5?$AAL?$AAI?$AAS?$AAT?$AA?5@ DB '"'
	DB	00H, 'I', 00H, 'T', 00H, 'E', 00H, 'R', 00H, 'A', 00H, 'T', 00H
	DB	'O', 00H, 'R', 00H, ' ', 00H, 'L', 00H, 'I', 00H, 'S', 00H, 'T'
	DB	00H, ' ', 00H, 'C', 00H, 'O', 00H, 'R', 00H, 'R', 00H, 'U', 00H
	DB	'P', 00H, 'T', 00H, 'E', 00H, 'D', 00H, '!', 00H, '"', 00H, 00H
	DB	00H						; `string'
CONST	ENDS
;	COMDAT ??_C@_0BJ@LFDBABJJ@ITERATOR?5LIST?5CORRUPTED?$CB@
CONST	SEGMENT
??_C@_0BJ@LFDBABJJ@ITERATOR?5LIST?5CORRUPTED?$CB@ DB 'ITERATOR LIST CORRU'
	DB	'PTED!', 00H					; `string'
CONST	ENDS
;	COMDAT ??_C@_1CG@JNLFBNGN@?$AA?$CC?$AAi?$AAn?$AAv?$AAa?$AAl?$AAi?$AAd?$AA?5?$AAa?$AAr?$AAg?$AAu?$AAm?$AAe@
CONST	SEGMENT
??_C@_1CG@JNLFBNGN@?$AA?$CC?$AAi?$AAn?$AAv?$AAa?$AAl?$AAi?$AAd?$AA?5?$AAa?$AAr?$AAg?$AAu?$AAm?$AAe@ DB '"'
	DB	00H, 'i', 00H, 'n', 00H, 'v', 00H, 'a', 00H, 'l', 00H, 'i', 00H
	DB	'd', 00H, ' ', 00H, 'a', 00H, 'r', 00H, 'g', 00H, 'u', 00H, 'm'
	DB	00H, 'e', 00H, 'n', 00H, 't', 00H, '"', 00H, 00H, 00H ; `string'
CONST	ENDS
;	COMDAT ??_C@_11LOCGONAA@@
CONST	SEGMENT
??_C@_11LOCGONAA@@ DB 00H, 00H				; `string'
CONST	ENDS
;	COMDAT ??_C@_1ME@DGNBIMPE@?$AAC?$AA?3?$AA?2?$AAP?$AAr?$AAo?$AAg?$AAr?$AAa?$AAm?$AA?5?$AAF?$AAi?$AAl?$AAe@
CONST	SEGMENT
??_C@_1ME@DGNBIMPE@?$AAC?$AA?3?$AA?2?$AAP?$AAr?$AAo?$AAg?$AAr?$AAa?$AAm?$AA?5?$AAF?$AAi?$AAl?$AAe@ DB 'C'
	DB	00H, ':', 00H, '\', 00H, 'P', 00H, 'r', 00H, 'o', 00H, 'g', 00H
	DB	'r', 00H, 'a', 00H, 'm', 00H, ' ', 00H, 'F', 00H, 'i', 00H, 'l'
	DB	00H, 'e', 00H, 's', 00H, '\', 00H, 'M', 00H, 'i', 00H, 'c', 00H
	DB	'r', 00H, 'o', 00H, 's', 00H, 'o', 00H, 'f', 00H, 't', 00H, ' '
	DB	00H, 'V', 00H, 'i', 00H, 's', 00H, 'u', 00H, 'a', 00H, 'l', 00H
	DB	' ', 00H, 'S', 00H, 't', 00H, 'u', 00H, 'd', 00H, 'i', 00H, 'o'
	DB	00H, '\', 00H, '2', 00H, '0', 00H, '2', 00H, '2', 00H, '\', 00H
	DB	'C', 00H, 'o', 00H, 'm', 00H, 'm', 00H, 'u', 00H, 'n', 00H, 'i'
	DB	00H, 't', 00H, 'y', 00H, '\', 00H, 'V', 00H, 'C', 00H, '\', 00H
	DB	'T', 00H, 'o', 00H, 'o', 00H, 'l', 00H, 's', 00H, '\', 00H, 'M'
	DB	00H, 'S', 00H, 'V', 00H, 'C', 00H, '\', 00H, '1', 00H, '4', 00H
	DB	'.', 00H, '3', 00H, '4', 00H, '.', 00H, '3', 00H, '1', 00H, '9'
	DB	00H, '3', 00H, '3', 00H, '\', 00H, 'i', 00H, 'n', 00H, 'c', 00H
	DB	'l', 00H, 'u', 00H, 'd', 00H, 'e', 00H, '\', 00H, 'x', 00H, 'm'
	DB	00H, 'e', 00H, 'm', 00H, 'o', 00H, 'r', 00H, 'y', 00H, 00H, 00H ; `string'
CONST	ENDS
;	COMDAT ??_C@_0GC@ONGHGEHM@C?3?2Program?5Files?2Microsoft?5Visu@
CONST	SEGMENT
??_C@_0GC@ONGHGEHM@C?3?2Program?5Files?2Microsoft?5Visu@ DB 'C:\Program F'
	DB	'iles\Microsoft Visual Studio\2022\Community\VC\Tools\MSVC\14.'
	DB	'34.31933\include\xmemory', 00H		; `string'
CONST	ENDS
;	COMDAT ??_C@_02DKCKIIND@?$CFs@
CONST	SEGMENT
??_C@_02DKCKIIND@?$CFs@ DB '%s', 00H			; `string'
CONST	ENDS
;	COMDAT ??_C@_0BB@FCMFBGOM@invalid?5argument@
CONST	SEGMENT
??_C@_0BB@FCMFBGOM@invalid?5argument@ DB 'invalid argument', 00H ; `string'
CONST	ENDS
;	COMDAT __CT??_R0?AVexception@std@@@8??0exception@std@@QAE@ABV01@@Z12
xdata$x	SEGMENT
__CT??_R0?AVexception@std@@@8??0exception@std@@QAE@ABV01@@Z12 DD 00H
	DD	FLAT:??_R0?AVexception@std@@@8
	DD	00H
	DD	0ffffffffH
	ORG $+4
	DD	0cH
	DD	FLAT:??0exception@std@@QAE@ABV01@@Z
xdata$x	ENDS
;	COMDAT ??_R0?AVexception@std@@@8
data$r	SEGMENT
??_R0?AVexception@std@@@8 DD FLAT:??_7type_info@@6B@	; std::exception `RTTI Type Descriptor'
	DD	00H
	DB	'.?AVexception@std@@', 00H
data$r	ENDS
;	COMDAT __CT??_R0?AVbad_alloc@std@@@8??0bad_alloc@std@@QAE@ABV01@@Z12
xdata$x	SEGMENT
__CT??_R0?AVbad_alloc@std@@@8??0bad_alloc@std@@QAE@ABV01@@Z12 DD 010H
	DD	FLAT:??_R0?AVbad_alloc@std@@@8
	DD	00H
	DD	0ffffffffH
	ORG $+4
	DD	0cH
	DD	FLAT:??0bad_alloc@std@@QAE@ABV01@@Z
xdata$x	ENDS
;	COMDAT ??_R0?AVbad_alloc@std@@@8
data$r	SEGMENT
??_R0?AVbad_alloc@std@@@8 DD FLAT:??_7type_info@@6B@	; std::bad_alloc `RTTI Type Descriptor'
	DD	00H
	DB	'.?AVbad_alloc@std@@', 00H
data$r	ENDS
;	COMDAT __CT??_R0?AVbad_array_new_length@std@@@8??0bad_array_new_length@std@@QAE@ABV01@@Z12
xdata$x	SEGMENT
__CT??_R0?AVbad_array_new_length@std@@@8??0bad_array_new_length@std@@QAE@ABV01@@Z12 DD 00H
	DD	FLAT:??_R0?AVbad_array_new_length@std@@@8
	DD	00H
	DD	0ffffffffH
	ORG $+4
	DD	0cH
	DD	FLAT:??0bad_array_new_length@std@@QAE@ABV01@@Z
xdata$x	ENDS
;	COMDAT ??_R0?AVbad_array_new_length@std@@@8
data$r	SEGMENT
??_R0?AVbad_array_new_length@std@@@8 DD FLAT:??_7type_info@@6B@ ; std::bad_array_new_length `RTTI Type Descriptor'
	DD	00H
	DB	'.?AVbad_array_new_length@std@@', 00H
data$r	ENDS
;	COMDAT __CTA3?AVbad_array_new_length@std@@
xdata$x	SEGMENT
__CTA3?AVbad_array_new_length@std@@ DD 03H
	DD	FLAT:__CT??_R0?AVbad_array_new_length@std@@@8??0bad_array_new_length@std@@QAE@ABV01@@Z12
	DD	FLAT:__CT??_R0?AVbad_alloc@std@@@8??0bad_alloc@std@@QAE@ABV01@@Z12
	DD	FLAT:__CT??_R0?AVexception@std@@@8??0exception@std@@QAE@ABV01@@Z12
xdata$x	ENDS
;	COMDAT __TI3?AVbad_array_new_length@std@@
xdata$x	SEGMENT
__TI3?AVbad_array_new_length@std@@ DD 00H
	DD	FLAT:??1bad_array_new_length@std@@UAE@XZ
	DD	00H
	DD	FLAT:__CTA3?AVbad_array_new_length@std@@
xdata$x	ENDS
;	COMDAT ??_C@_0BF@KINCDENJ@bad?5array?5new?5length@
CONST	SEGMENT
??_C@_0BF@KINCDENJ@bad?5array?5new?5length@ DB 'bad array new length', 00H ; `string'
CONST	ENDS
;	COMDAT ??_7bad_array_new_length@std@@6B@
CONST	SEGMENT
??_7bad_array_new_length@std@@6B@ DD FLAT:??_R4bad_array_new_length@std@@6B@ ; std::bad_array_new_length::`vftable'
	DD	FLAT:??_Ebad_array_new_length@std@@UAEPAXI@Z
	DD	FLAT:?what@exception@std@@UBEPBDXZ
CONST	ENDS
;	COMDAT ??_7bad_alloc@std@@6B@
CONST	SEGMENT
??_7bad_alloc@std@@6B@ DD FLAT:??_R4bad_alloc@std@@6B@	; std::bad_alloc::`vftable'
	DD	FLAT:??_Ebad_alloc@std@@UAEPAXI@Z
	DD	FLAT:?what@exception@std@@UBEPBDXZ
CONST	ENDS
;	COMDAT ??_C@_0BC@EOODALEL@Unknown?5exception@
CONST	SEGMENT
??_C@_0BC@EOODALEL@Unknown?5exception@ DB 'Unknown exception', 00H ; `string'
CONST	ENDS
;	COMDAT ??_7exception@std@@6B@
CONST	SEGMENT
??_7exception@std@@6B@ DD FLAT:??_R4exception@std@@6B@	; std::exception::`vftable'
	DD	FLAT:??_Eexception@std@@UAEPAXI@Z
	DD	FLAT:?what@exception@std@@UBEPBDXZ
CONST	ENDS
;	COMDAT voltbl
voltbl	SEGMENT
_volmd	DB	016H
voltbl	ENDS
;	COMDAT xdata$x
xdata$x	SEGMENT
__unwindtable$??$?0U?$pair@Vtype_id@luabind@@H@std@@@?$_Tree_temp_node@V?$allocator@U?$_Tree_node@U?$pair@$$CBVtype_id@luabind@@I@std@@PAX@std@@@std@@@std@@QAE@AAV?$allocator@U?$_Tree_node@U?$pair@$$CBVtype_id@luabind@@I@std@@PAX@std@@@1@PAU?$_Tree_node@U?$pair@$$CBVtype_id@luabind@@I@std@@PAX@1@$$QAU?$pair@Vtype_id@luabind@@H@1@@Z DD 0ffffffffH
	DD	FLAT:__unwindfunclet$??$?0U?$pair@Vtype_id@luabind@@H@std@@@?$_Tree_temp_node@V?$allocator@U?$_Tree_node@U?$pair@$$CBVtype_id@luabind@@I@std@@PAX@std@@@std@@@std@@QAE@AAV?$allocator@U?$_Tree_node@U?$pair@$$CBVtype_id@luabind@@I@std@@PAX@std@@@1@PAU?$_Tree_node@U?$pair@$$CBVtype_id@luabind@@I@std@@PAX@1@$$QAU?$pair@Vtype_id@luabind@@H@1@@Z$0
__ehfuncinfo$??$?0U?$pair@Vtype_id@luabind@@H@std@@@?$_Tree_temp_node@V?$allocator@U?$_Tree_node@U?$pair@$$CBVtype_id@luabind@@I@std@@PAX@std@@@std@@@std@@QAE@AAV?$allocator@U?$_Tree_node@U?$pair@$$CBVtype_id@luabind@@I@std@@PAX@std@@@1@PAU?$_Tree_node@U?$pair@$$CBVtype_id@luabind@@I@std@@PAX@1@$$QAU?$pair@Vtype_id@luabind@@H@1@@Z DD 019930522H
	DD	01H
	DD	FLAT:__unwindtable$??$?0U?$pair@Vtype_id@luabind@@H@std@@@?$_Tree_temp_node@V?$allocator@U?$_Tree_node@U?$pair@$$CBVtype_id@luabind@@I@std@@PAX@std@@@std@@@std@@QAE@AAV?$allocator@U?$_Tree_node@U?$pair@$$CBVtype_id@luabind@@I@std@@PAX@std@@@1@PAU?$_Tree_node@U?$pair@$$CBVtype_id@luabind@@I@std@@PAX@1@$$QAU?$pair@Vtype_id@luabind@@H@1@@Z
	DD	2 DUP(00H)
	DD	2 DUP(00H)
	DD	00H
	DD	01H
xdata$x	ENDS
;	COMDAT voltbl
voltbl	SEGMENT
_volmd	DB	09H
voltbl	ENDS
;	COMDAT xdata$x
xdata$x	SEGMENT
__ehfuncinfo$??1?$_Tree_temp_node@V?$allocator@U?$_Tree_node@U?$pair@$$CBVtype_id@luabind@@I@std@@PAX@std@@@std@@@std@@QAE@XZ DD 019930522H
	DD	00H
	DD	00H
	DD	2 DUP(00H)
	DD	2 DUP(00H)
	DD	00H
	DD	05H
xdata$x	ENDS
;	COMDAT voltbl
voltbl	SEGMENT
_volmd	DB	016H
voltbl	ENDS
;	COMDAT xdata$x
xdata$x	SEGMENT
__unwindtable$??0?$_Tree_temp_node_alloc@V?$allocator@U?$_Tree_node@U?$pair@$$CBVtype_id@luabind@@I@std@@PAX@std@@@std@@@std@@QAE@AAV?$allocator@U?$_Tree_node@U?$pair@$$CBVtype_id@luabind@@I@std@@PAX@std@@@1@@Z DD 0ffffffffH
	DD	FLAT:__unwindfunclet$??0?$_Tree_temp_node_alloc@V?$allocator@U?$_Tree_node@U?$pair@$$CBVtype_id@luabind@@I@std@@PAX@std@@@std@@@std@@QAE@AAV?$allocator@U?$_Tree_node@U?$pair@$$CBVtype_id@luabind@@I@std@@PAX@std@@@1@@Z$0
__ehfuncinfo$??0?$_Tree_temp_node_alloc@V?$allocator@U?$_Tree_node@U?$pair@$$CBVtype_id@luabind@@I@std@@PAX@std@@@std@@@std@@QAE@AAV?$allocator@U?$_Tree_node@U?$pair@$$CBVtype_id@luabind@@I@std@@PAX@std@@@1@@Z DD 019930522H
	DD	01H
	DD	FLAT:__unwindtable$??0?$_Tree_temp_node_alloc@V?$allocator@U?$_Tree_node@U?$pair@$$CBVtype_id@luabind@@I@std@@PAX@std@@@std@@@std@@QAE@AAV?$allocator@U?$_Tree_node@U?$pair@$$CBVtype_id@luabind@@I@std@@PAX@std@@@1@@Z
	DD	2 DUP(00H)
	DD	2 DUP(00H)
	DD	00H
	DD	01H
xdata$x	ENDS
;	COMDAT voltbl
voltbl	SEGMENT
_volmd	DB	09H
voltbl	ENDS
;	COMDAT xdata$x
xdata$x	SEGMENT
__ehfuncinfo$??1?$_Alloc_construct_ptr@V?$allocator@U?$_Tree_node@U?$pair@$$CBVtype_id@luabind@@I@std@@PAX@std@@@std@@@std@@QAE@XZ DD 019930522H
	DD	00H
	DD	00H
	DD	2 DUP(00H)
	DD	2 DUP(00H)
	DD	00H
	DD	05H
xdata$x	ENDS
;	COMDAT voltbl
voltbl	SEGMENT
_volmd	DB	016H
voltbl	ENDS
;	COMDAT xdata$x
xdata$x	SEGMENT
__unwindtable$??$_Uninitialized_move@PAPAVclass_rep@detail@luabind@@V?$allocator@PAVclass_rep@detail@luabind@@@std@@@std@@YAPAPAVclass_rep@detail@luabind@@QAPAV123@0PAPAV123@AAV?$allocator@PAVclass_rep@detail@luabind@@@0@@Z DD 0ffffffffH
	DD	FLAT:__unwindfunclet$??$_Uninitialized_move@PAPAVclass_rep@detail@luabind@@V?$allocator@PAVclass_rep@detail@luabind@@@std@@@std@@YAPAPAVclass_rep@detail@luabind@@QAPAV123@0PAPAV123@AAV?$allocator@PAVclass_rep@detail@luabind@@@0@@Z$0
__ehfuncinfo$??$_Uninitialized_move@PAPAVclass_rep@detail@luabind@@V?$allocator@PAVclass_rep@detail@luabind@@@std@@@std@@YAPAPAVclass_rep@detail@luabind@@QAPAV123@0PAPAV123@AAV?$allocator@PAVclass_rep@detail@luabind@@@0@@Z DD 019930522H
	DD	01H
	DD	FLAT:__unwindtable$??$_Uninitialized_move@PAPAVclass_rep@detail@luabind@@V?$allocator@PAVclass_rep@detail@luabind@@@std@@@std@@YAPAPAVclass_rep@detail@luabind@@QAPAV123@0PAPAV123@AAV?$allocator@PAVclass_rep@detail@luabind@@@0@@Z
	DD	2 DUP(00H)
	DD	2 DUP(00H)
	DD	00H
	DD	01H
xdata$x	ENDS
;	COMDAT voltbl
voltbl	SEGMENT
_volmd	DB	09H
voltbl	ENDS
;	COMDAT xdata$x
xdata$x	SEGMENT
__ehfuncinfo$??$_Freenode@V?$allocator@U?$_Tree_node@U?$pair@QBDH@std@@PAX@std@@@std@@@?$_Tree_node@U?$pair@QBDH@std@@PAX@std@@SAXAAV?$allocator@U?$_Tree_node@U?$pair@QBDH@std@@PAX@std@@@1@PAU01@@Z DD 019930522H
	DD	00H
	DD	00H
	DD	2 DUP(00H)
	DD	2 DUP(00H)
	DD	00H
	DD	05H
xdata$x	ENDS
;	COMDAT voltbl
voltbl	SEGMENT
_volmd	DB	09H
voltbl	ENDS
;	COMDAT xdata$x
xdata$x	SEGMENT
__ehfuncinfo$??$?0ABQBD$0A@@?$tuple@ABQBD@std@@QAE@ABQBD@Z DD 019930522H
	DD	00H
	DD	00H
	DD	2 DUP(00H)
	DD	2 DUP(00H)
	DD	00H
	DD	05H
xdata$x	ENDS
;	COMDAT voltbl
voltbl	SEGMENT
_volmd	DB	016H
voltbl	ENDS
;	COMDAT xdata$x
xdata$x	SEGMENT
__unwindtable$??$_Uninitialized_move@PAU?$pair@Vtype_id@luabind@@P6APAXPAX@Z@std@@V?$allocator@U?$pair@Vtype_id@luabind@@P6APAXPAX@Z@std@@@2@@std@@YAPAU?$pair@Vtype_id@luabind@@P6APAXPAX@Z@0@QAU10@0PAU10@AAV?$allocator@U?$pair@Vtype_id@luabind@@P6APAXPAX@Z@std@@@0@@Z DD 0ffffffffH
	DD	FLAT:__unwindfunclet$??$_Uninitialized_move@PAU?$pair@Vtype_id@luabind@@P6APAXPAX@Z@std@@V?$allocator@U?$pair@Vtype_id@luabind@@P6APAXPAX@Z@std@@@2@@std@@YAPAU?$pair@Vtype_id@luabind@@P6APAXPAX@Z@0@QAU10@0PAU10@AAV?$allocator@U?$pair@Vtype_id@luabind@@P6APAXPAX@Z@std@@@0@@Z$0
__ehfuncinfo$??$_Uninitialized_move@PAU?$pair@Vtype_id@luabind@@P6APAXPAX@Z@std@@V?$allocator@U?$pair@Vtype_id@luabind@@P6APAXPAX@Z@std@@@2@@std@@YAPAU?$pair@Vtype_id@luabind@@P6APAXPAX@Z@0@QAU10@0PAU10@AAV?$allocator@U?$pair@Vtype_id@luabind@@P6APAXPAX@Z@std@@@0@@Z DD 019930522H
	DD	01H
	DD	FLAT:__unwindtable$??$_Uninitialized_move@PAU?$pair@Vtype_id@luabind@@P6APAXPAX@Z@std@@V?$allocator@U?$pair@Vtype_id@luabind@@P6APAXPAX@Z@std@@@2@@std@@YAPAU?$pair@Vtype_id@luabind@@P6APAXPAX@Z@0@QAU10@0PAU10@AAV?$allocator@U?$pair@Vtype_id@luabind@@P6APAXPAX@Z@std@@@0@@Z
	DD	2 DUP(00H)
	DD	2 DUP(00H)
	DD	00H
	DD	01H
xdata$x	ENDS
;	COMDAT voltbl
voltbl	SEGMENT
_volmd	DB	016H
voltbl	ENDS
;	COMDAT xdata$x
xdata$x	SEGMENT
__unwindtable$??$_Uninitialized_move@PAUcast_entry@?A0x440dba7a@detail@luabind@@V?$allocator@Ucast_entry@?A0x440dba7a@detail@luabind@@@std@@@std@@YAPAUcast_entry@?A0x440dba7a@detail@luabind@@QAU1234@0PAU1234@AAV?$allocator@Ucast_entry@?A0x440dba7a@detail@luabind@@@0@@Z DD 0ffffffffH
	DD	FLAT:__unwindfunclet$??$_Uninitialized_move@PAUcast_entry@?A0x440dba7a@detail@luabind@@V?$allocator@Ucast_entry@?A0x440dba7a@detail@luabind@@@std@@@std@@YAPAUcast_entry@?A0x440dba7a@detail@luabind@@QAU1234@0PAU1234@AAV?$allocator@Ucast_entry@?A0x440dba7a@detail@luabind@@@0@@Z$0
__ehfuncinfo$??$_Uninitialized_move@PAUcast_entry@?A0x440dba7a@detail@luabind@@V?$allocator@Ucast_entry@?A0x440dba7a@detail@luabind@@@std@@@std@@YAPAUcast_entry@?A0x440dba7a@detail@luabind@@QAU1234@0PAU1234@AAV?$allocator@Ucast_entry@?A0x440dba7a@detail@luabind@@@0@@Z DD 019930522H
	DD	01H
	DD	FLAT:__unwindtable$??$_Uninitialized_move@PAUcast_entry@?A0x440dba7a@detail@luabind@@V?$allocator@Ucast_entry@?A0x440dba7a@detail@luabind@@@std@@@std@@YAPAUcast_entry@?A0x440dba7a@detail@luabind@@QAU1234@0PAU1234@AAV?$allocator@Ucast_entry@?A0x440dba7a@detail@luabind@@@0@@Z
	DD	2 DUP(00H)
	DD	2 DUP(00H)
	DD	00H
	DD	01H
xdata$x	ENDS
;	COMDAT voltbl
voltbl	SEGMENT
_volmd	DB	016H
voltbl	ENDS
;	COMDAT xdata$x
xdata$x	SEGMENT
__unwindtable$??$_Uninitialized_value_construct_n@V?$allocator@PAVclass_rep@detail@luabind@@@std@@@std@@YAPAPAVclass_rep@detail@luabind@@PAPAV123@IAAV?$allocator@PAVclass_rep@detail@luabind@@@0@@Z DD 0ffffffffH
	DD	FLAT:__unwindfunclet$??$_Uninitialized_value_construct_n@V?$allocator@PAVclass_rep@detail@luabind@@@std@@@std@@YAPAPAVclass_rep@detail@luabind@@PAPAV123@IAAV?$allocator@PAVclass_rep@detail@luabind@@@0@@Z$0
__ehfuncinfo$??$_Uninitialized_value_construct_n@V?$allocator@PAVclass_rep@detail@luabind@@@std@@@std@@YAPAPAVclass_rep@detail@luabind@@PAPAV123@IAAV?$allocator@PAVclass_rep@detail@luabind@@@0@@Z DD 019930522H
	DD	01H
	DD	FLAT:__unwindtable$??$_Uninitialized_value_construct_n@V?$allocator@PAVclass_rep@detail@luabind@@@std@@@std@@YAPAPAVclass_rep@detail@luabind@@PAPAV123@IAAV?$allocator@PAVclass_rep@detail@luabind@@@0@@Z
	DD	2 DUP(00H)
	DD	2 DUP(00H)
	DD	00H
	DD	01H
xdata$x	ENDS
;	COMDAT voltbl
voltbl	SEGMENT
_volmd	DB	09H
voltbl	ENDS
;	COMDAT xdata$x
xdata$x	SEGMENT
__catchsym$??$_Resize_reallocate@U_Value_init_tag@std@@@?$vector@PAVclass_rep@detail@luabind@@V?$allocator@PAVclass_rep@detail@luabind@@@std@@@std@@AAEXIABU_Value_init_tag@1@@Z$2 DD 040H
	DD	00H
	DD	00H
	DD	FLAT:__catch$??$_Resize_reallocate@U_Value_init_tag@std@@@?$vector@PAVclass_rep@detail@luabind@@V?$allocator@PAVclass_rep@detail@luabind@@@std@@@std@@AAEXIABU_Value_init_tag@1@@Z$0
__unwindtable$??$_Resize_reallocate@U_Value_init_tag@std@@@?$vector@PAVclass_rep@detail@luabind@@V?$allocator@PAVclass_rep@detail@luabind@@@std@@@std@@AAEXIABU_Value_init_tag@1@@Z DD 0ffffffffH
	DD	00H
	DD	0ffffffffH
	DD	00H
__tryblocktable$??$_Resize_reallocate@U_Value_init_tag@std@@@?$vector@PAVclass_rep@detail@luabind@@V?$allocator@PAVclass_rep@detail@luabind@@@std@@@std@@AAEXIABU_Value_init_tag@1@@Z DD 00H
	DD	00H
	DD	01H
	DD	01H
	DD	FLAT:__catchsym$??$_Resize_reallocate@U_Value_init_tag@std@@@?$vector@PAVclass_rep@detail@luabind@@V?$allocator@PAVclass_rep@detail@luabind@@@std@@@std@@AAEXIABU_Value_init_tag@1@@Z$2
__ehfuncinfo$??$_Resize_reallocate@U_Value_init_tag@std@@@?$vector@PAVclass_rep@detail@luabind@@V?$allocator@PAVclass_rep@detail@luabind@@@std@@@std@@AAEXIABU_Value_init_tag@1@@Z DD 019930522H
	DD	02H
	DD	FLAT:__unwindtable$??$_Resize_reallocate@U_Value_init_tag@std@@@?$vector@PAVclass_rep@detail@luabind@@V?$allocator@PAVclass_rep@detail@luabind@@@std@@@std@@AAEXIABU_Value_init_tag@1@@Z
	DD	01H
	DD	FLAT:__tryblocktable$??$_Resize_reallocate@U_Value_init_tag@std@@@?$vector@PAVclass_rep@detail@luabind@@V?$allocator@PAVclass_rep@detail@luabind@@@std@@@std@@AAEXIABU_Value_init_tag@1@@Z
	DD	2 DUP(00H)
	DD	00H
	DD	01H
xdata$x	ENDS
;	COMDAT voltbl
voltbl	SEGMENT
_volmd	DB	09H
voltbl	ENDS
;	COMDAT xdata$x
xdata$x	SEGMENT
__ehfuncinfo$??$_Freenode0@V?$allocator@U?$_Tree_node@U?$pair@QBDH@std@@PAX@std@@@std@@@?$_Tree_node@U?$pair@QBDH@std@@PAX@std@@SAXAAV?$allocator@U?$_Tree_node@U?$pair@QBDH@std@@PAX@std@@@1@PAU01@@Z DD 019930522H
	DD	00H
	DD	00H
	DD	2 DUP(00H)
	DD	2 DUP(00H)
	DD	00H
	DD	05H
xdata$x	ENDS
;	COMDAT voltbl
voltbl	SEGMENT
_volmd	DB	016H
voltbl	ENDS
;	COMDAT xdata$x
xdata$x	SEGMENT
__unwindtable$??$?0ABUpiecewise_construct_t@std@@V?$tuple@ABQBD@1@V?$tuple@$$V@1@@?$_Tree_temp_node@V?$allocator@U?$_Tree_node@U?$pair@QBDH@std@@PAX@std@@@std@@@std@@QAE@AAV?$allocator@U?$_Tree_node@U?$pair@QBDH@std@@PAX@std@@@1@PAU?$_Tree_node@U?$pair@QBDH@std@@PAX@1@ABUpiecewise_construct_t@1@$$QAV?$tuple@ABQBD@1@$$QAV?$tuple@$$V@1@@Z DD 0ffffffffH
	DD	FLAT:__unwindfunclet$??$?0ABUpiecewise_construct_t@std@@V?$tuple@ABQBD@1@V?$tuple@$$V@1@@?$_Tree_temp_node@V?$allocator@U?$_Tree_node@U?$pair@QBDH@std@@PAX@std@@@std@@@std@@QAE@AAV?$allocator@U?$_Tree_node@U?$pair@QBDH@std@@PAX@std@@@1@PAU?$_Tree_node@U?$pair@QBDH@std@@PAX@1@ABUpiecewise_construct_t@1@$$QAV?$tuple@ABQBD@1@$$QAV?$tuple@$$V@1@@Z$0
__ehfuncinfo$??$?0ABUpiecewise_construct_t@std@@V?$tuple@ABQBD@1@V?$tuple@$$V@1@@?$_Tree_temp_node@V?$allocator@U?$_Tree_node@U?$pair@QBDH@std@@PAX@std@@@std@@@std@@QAE@AAV?$allocator@U?$_Tree_node@U?$pair@QBDH@std@@PAX@std@@@1@PAU?$_Tree_node@U?$pair@QBDH@std@@PAX@1@ABUpiecewise_construct_t@1@$$QAV?$tuple@ABQBD@1@$$QAV?$tuple@$$V@1@@Z DD 019930522H
	DD	01H
	DD	FLAT:__unwindtable$??$?0ABUpiecewise_construct_t@std@@V?$tuple@ABQBD@1@V?$tuple@$$V@1@@?$_Tree_temp_node@V?$allocator@U?$_Tree_node@U?$pair@QBDH@std@@PAX@std@@@std@@@std@@QAE@AAV?$allocator@U?$_Tree_node@U?$pair@QBDH@std@@PAX@std@@@1@PAU?$_Tree_node@U?$pair@QBDH@std@@PAX@1@ABUpiecewise_construct_t@1@$$QAV?$tuple@ABQBD@1@$$QAV?$tuple@$$V@1@@Z
	DD	2 DUP(00H)
	DD	2 DUP(00H)
	DD	00H
	DD	01H
xdata$x	ENDS
;	COMDAT voltbl
voltbl	SEGMENT
_volmd	DB	09H
voltbl	ENDS
;	COMDAT xdata$x
xdata$x	SEGMENT
__ehfuncinfo$??1?$_Tree_temp_node@V?$allocator@U?$_Tree_node@U?$pair@QBDH@std@@PAX@std@@@std@@@std@@QAE@XZ DD 019930522H
	DD	00H
	DD	00H
	DD	2 DUP(00H)
	DD	2 DUP(00H)
	DD	00H
	DD	05H
xdata$x	ENDS
;	COMDAT voltbl
voltbl	SEGMENT
_volmd	DB	016H
voltbl	ENDS
;	COMDAT xdata$x
xdata$x	SEGMENT
__unwindtable$??0?$_Tree_temp_node_alloc@V?$allocator@U?$_Tree_node@U?$pair@QBDH@std@@PAX@std@@@std@@@std@@QAE@AAV?$allocator@U?$_Tree_node@U?$pair@QBDH@std@@PAX@std@@@1@@Z DD 0ffffffffH
	DD	FLAT:__unwindfunclet$??0?$_Tree_temp_node_alloc@V?$allocator@U?$_Tree_node@U?$pair@QBDH@std@@PAX@std@@@std@@@std@@QAE@AAV?$allocator@U?$_Tree_node@U?$pair@QBDH@std@@PAX@std@@@1@@Z$0
__ehfuncinfo$??0?$_Tree_temp_node_alloc@V?$allocator@U?$_Tree_node@U?$pair@QBDH@std@@PAX@std@@@std@@@std@@QAE@AAV?$allocator@U?$_Tree_node@U?$pair@QBDH@std@@PAX@std@@@1@@Z DD 019930522H
	DD	01H
	DD	FLAT:__unwindtable$??0?$_Tree_temp_node_alloc@V?$allocator@U?$_Tree_node@U?$pair@QBDH@std@@PAX@std@@@std@@@std@@QAE@AAV?$allocator@U?$_Tree_node@U?$pair@QBDH@std@@PAX@std@@@1@@Z
	DD	2 DUP(00H)
	DD	2 DUP(00H)
	DD	00H
	DD	01H
xdata$x	ENDS
;	COMDAT voltbl
voltbl	SEGMENT
_volmd	DB	09H
voltbl	ENDS
;	COMDAT xdata$x
xdata$x	SEGMENT
__ehfuncinfo$??1?$_Alloc_construct_ptr@V?$allocator@U?$_Tree_node@U?$pair@QBDH@std@@PAX@std@@@std@@@std@@QAE@XZ DD 019930522H
	DD	00H
	DD	00H
	DD	2 DUP(00H)
	DD	2 DUP(00H)
	DD	00H
	DD	05H
xdata$x	ENDS
;	COMDAT voltbl
voltbl	SEGMENT
_volmd	DB	09H
voltbl	ENDS
;	COMDAT xdata$x
xdata$x	SEGMENT
__catchsym$??$_Emplace_reallocate@U?$pair@Vtype_id@luabind@@P6APAXPAX@Z@std@@@?$vector@U?$pair@Vtype_id@luabind@@P6APAXPAX@Z@std@@V?$allocator@U?$pair@Vtype_id@luabind@@P6APAXPAX@Z@std@@@2@@std@@AAEPAU?$pair@Vtype_id@luabind@@P6APAXPAX@Z@1@QAU21@$$QAU21@@Z$2 DD 040H
	DD	00H
	DD	00H
	DD	FLAT:__catch$??$_Emplace_reallocate@U?$pair@Vtype_id@luabind@@P6APAXPAX@Z@std@@@?$vector@U?$pair@Vtype_id@luabind@@P6APAXPAX@Z@std@@V?$allocator@U?$pair@Vtype_id@luabind@@P6APAXPAX@Z@std@@@2@@std@@AAEPAU?$pair@Vtype_id@luabind@@P6APAXPAX@Z@1@QAU21@$$QAU21@@Z$0
__unwindtable$??$_Emplace_reallocate@U?$pair@Vtype_id@luabind@@P6APAXPAX@Z@std@@@?$vector@U?$pair@Vtype_id@luabind@@P6APAXPAX@Z@std@@V?$allocator@U?$pair@Vtype_id@luabind@@P6APAXPAX@Z@std@@@2@@std@@AAEPAU?$pair@Vtype_id@luabind@@P6APAXPAX@Z@1@QAU21@$$QAU21@@Z DD 0ffffffffH
	DD	00H
	DD	0ffffffffH
	DD	00H
__tryblocktable$??$_Emplace_reallocate@U?$pair@Vtype_id@luabind@@P6APAXPAX@Z@std@@@?$vector@U?$pair@Vtype_id@luabind@@P6APAXPAX@Z@std@@V?$allocator@U?$pair@Vtype_id@luabind@@P6APAXPAX@Z@std@@@2@@std@@AAEPAU?$pair@Vtype_id@luabind@@P6APAXPAX@Z@1@QAU21@$$QAU21@@Z DD 00H
	DD	00H
	DD	01H
	DD	01H
	DD	FLAT:__catchsym$??$_Emplace_reallocate@U?$pair@Vtype_id@luabind@@P6APAXPAX@Z@std@@@?$vector@U?$pair@Vtype_id@luabind@@P6APAXPAX@Z@std@@V?$allocator@U?$pair@Vtype_id@luabind@@P6APAXPAX@Z@std@@@2@@std@@AAEPAU?$pair@Vtype_id@luabind@@P6APAXPAX@Z@1@QAU21@$$QAU21@@Z$2
__ehfuncinfo$??$_Emplace_reallocate@U?$pair@Vtype_id@luabind@@P6APAXPAX@Z@std@@@?$vector@U?$pair@Vtype_id@luabind@@P6APAXPAX@Z@std@@V?$allocator@U?$pair@Vtype_id@luabind@@P6APAXPAX@Z@std@@@2@@std@@AAEPAU?$pair@Vtype_id@luabind@@P6APAXPAX@Z@1@QAU21@$$QAU21@@Z DD 019930522H
	DD	02H
	DD	FLAT:__unwindtable$??$_Emplace_reallocate@U?$pair@Vtype_id@luabind@@P6APAXPAX@Z@std@@@?$vector@U?$pair@Vtype_id@luabind@@P6APAXPAX@Z@std@@V?$allocator@U?$pair@Vtype_id@luabind@@P6APAXPAX@Z@std@@@2@@std@@AAEPAU?$pair@Vtype_id@luabind@@P6APAXPAX@Z@1@QAU21@$$QAU21@@Z
	DD	01H
	DD	FLAT:__tryblocktable$??$_Emplace_reallocate@U?$pair@Vtype_id@luabind@@P6APAXPAX@Z@std@@@?$vector@U?$pair@Vtype_id@luabind@@P6APAXPAX@Z@std@@V?$allocator@U?$pair@Vtype_id@luabind@@P6APAXPAX@Z@std@@@2@@std@@AAEPAU?$pair@Vtype_id@luabind@@P6APAXPAX@Z@1@QAU21@$$QAU21@@Z
	DD	2 DUP(00H)
	DD	00H
	DD	01H
xdata$x	ENDS
;	COMDAT voltbl
voltbl	SEGMENT
_volmd	DB	09H
voltbl	ENDS
;	COMDAT xdata$x
xdata$x	SEGMENT
__ehfuncinfo$??$_Deallocate_plain@V?$allocator@U_Container_proxy@std@@@std@@@std@@YAXAAV?$allocator@U_Container_proxy@std@@@0@QAU_Container_proxy@0@@Z DD 019930522H
	DD	00H
	DD	00H
	DD	2 DUP(00H)
	DD	2 DUP(00H)
	DD	00H
	DD	05H
xdata$x	ENDS
;	COMDAT voltbl
voltbl	SEGMENT
_volmd	DB	09H
voltbl	ENDS
;	COMDAT xdata$x
xdata$x	SEGMENT
__catchsym$??$_Emplace_reallocate@Ucast_entry@?A0x440dba7a@detail@luabind@@@?$vector@Ucast_entry@?A0x440dba7a@detail@luabind@@V?$allocator@Ucast_entry@?A0x440dba7a@detail@luabind@@@std@@@std@@AAEPAUcast_entry@?A0x440dba7a@detail@luabind@@QAU2345@$$QAU2345@@Z$2 DD 040H
	DD	00H
	DD	00H
	DD	FLAT:__catch$??$_Emplace_reallocate@Ucast_entry@?A0x440dba7a@detail@luabind@@@?$vector@Ucast_entry@?A0x440dba7a@detail@luabind@@V?$allocator@Ucast_entry@?A0x440dba7a@detail@luabind@@@std@@@std@@AAEPAUcast_entry@?A0x440dba7a@detail@luabind@@QAU2345@$$QAU2345@@Z$0
__unwindtable$??$_Emplace_reallocate@Ucast_entry@?A0x440dba7a@detail@luabind@@@?$vector@Ucast_entry@?A0x440dba7a@detail@luabind@@V?$allocator@Ucast_entry@?A0x440dba7a@detail@luabind@@@std@@@std@@AAEPAUcast_entry@?A0x440dba7a@detail@luabind@@QAU2345@$$QAU2345@@Z DD 0ffffffffH
	DD	00H
	DD	0ffffffffH
	DD	00H
__tryblocktable$??$_Emplace_reallocate@Ucast_entry@?A0x440dba7a@detail@luabind@@@?$vector@Ucast_entry@?A0x440dba7a@detail@luabind@@V?$allocator@Ucast_entry@?A0x440dba7a@detail@luabind@@@std@@@std@@AAEPAUcast_entry@?A0x440dba7a@detail@luabind@@QAU2345@$$QAU2345@@Z DD 00H
	DD	00H
	DD	01H
	DD	01H
	DD	FLAT:__catchsym$??$_Emplace_reallocate@Ucast_entry@?A0x440dba7a@detail@luabind@@@?$vector@Ucast_entry@?A0x440dba7a@detail@luabind@@V?$allocator@Ucast_entry@?A0x440dba7a@detail@luabind@@@std@@@std@@AAEPAUcast_entry@?A0x440dba7a@detail@luabind@@QAU2345@$$QAU2345@@Z$2
__ehfuncinfo$??$_Emplace_reallocate@Ucast_entry@?A0x440dba7a@detail@luabind@@@?$vector@Ucast_entry@?A0x440dba7a@detail@luabind@@V?$allocator@Ucast_entry@?A0x440dba7a@detail@luabind@@@std@@@std@@AAEPAUcast_entry@?A0x440dba7a@detail@luabind@@QAU2345@$$QAU2345@@Z DD 019930522H
	DD	02H
	DD	FLAT:__unwindtable$??$_Emplace_reallocate@Ucast_entry@?A0x440dba7a@detail@luabind@@@?$vector@Ucast_entry@?A0x440dba7a@detail@luabind@@V?$allocator@Ucast_entry@?A0x440dba7a@detail@luabind@@@std@@@std@@AAEPAUcast_entry@?A0x440dba7a@detail@luabind@@QAU2345@$$QAU2345@@Z
	DD	01H
	DD	FLAT:__tryblocktable$??$_Emplace_reallocate@Ucast_entry@?A0x440dba7a@detail@luabind@@@?$vector@Ucast_entry@?A0x440dba7a@detail@luabind@@V?$allocator@Ucast_entry@?A0x440dba7a@detail@luabind@@@std@@@std@@AAEPAUcast_entry@?A0x440dba7a@detail@luabind@@QAU2345@$$QAU2345@@Z
	DD	2 DUP(00H)
	DD	00H
	DD	01H
xdata$x	ENDS
;	COMDAT voltbl
voltbl	SEGMENT
_volmd	DB	09H
voltbl	ENDS
;	COMDAT xdata$x
xdata$x	SEGMENT
__ehfuncinfo$??$_Deallocate@$07$0A@@std@@YAXPAXI@Z DD 019930522H
	DD	00H
	DD	00H
	DD	2 DUP(00H)
	DD	2 DUP(00H)
	DD	00H
	DD	05H
xdata$x	ENDS
;	COMDAT voltbl
voltbl	SEGMENT
_volmd	DB	09H
voltbl	ENDS
;	COMDAT xdata$x
xdata$x	SEGMENT
__ehfuncinfo$??$?BUregistration@detail@luabind@@@?$auto_ptr@Uregistration@detail@luabind@@@std@@QAE?AU?$auto_ptr_ref@Uregistration@detail@luabind@@@1@XZ DD 019930522H
	DD	00H
	DD	00H
	DD	2 DUP(00H)
	DD	2 DUP(00H)
	DD	00H
	DD	05H
xdata$x	ENDS
;	COMDAT voltbl
voltbl	SEGMENT
_volmd	DB	016H
voltbl	ENDS
;	COMDAT xdata$x
xdata$x	SEGMENT
__unwindtable$??$end@V?$vector@Ucast_entry@?A0x440dba7a@detail@luabind@@V?$allocator@Ucast_entry@?A0x440dba7a@detail@luabind@@@std@@@std@@U?$bool_@$00@mpl@boost@@@foreach_detail_@boost@@YA?AU?$auto_any@V?$_Vector_const_iterator@V?$_Vector_val@U?$_Simple_types@Ucast_entry@?A0x440dba7a@detail@luabind@@@std@@@std@@@std@@@01@ABUauto_any_base@01@PAU?$type2type@V?$vector@Ucast_entry@?A0x440dba7a@detail@luabind@@V?$allocator@Ucast_entry@?A0x440dba7a@detail@luabind@@@std@@@std@@U?$bool_@$00@mpl@boost@@@01@PAU?$bool_@$0A@@mpl@1@@Z DD 0ffffffffH
	DD	FLAT:__unwindfunclet$??$end@V?$vector@Ucast_entry@?A0x440dba7a@detail@luabind@@V?$allocator@Ucast_entry@?A0x440dba7a@detail@luabind@@@std@@@std@@U?$bool_@$00@mpl@boost@@@foreach_detail_@boost@@YA?AU?$auto_any@V?$_Vector_const_iterator@V?$_Vector_val@U?$_Simple_types@Ucast_entry@?A0x440dba7a@detail@luabind@@@std@@@std@@@std@@@01@ABUauto_any_base@01@PAU?$type2type@V?$vector@Ucast_entry@?A0x440dba7a@detail@luabind@@V?$allocator@Ucast_entry@?A0x440dba7a@detail@luabind@@@std@@@std@@U?$bool_@$00@mpl@boost@@@01@PAU?$bool_@$0A@@mpl@1@@Z$0
__ehfuncinfo$??$end@V?$vector@Ucast_entry@?A0x440dba7a@detail@luabind@@V?$allocator@Ucast_entry@?A0x440dba7a@detail@luabind@@@std@@@std@@U?$bool_@$00@mpl@boost@@@foreach_detail_@boost@@YA?AU?$auto_any@V?$_Vector_const_iterator@V?$_Vector_val@U?$_Simple_types@Ucast_entry@?A0x440dba7a@detail@luabind@@@std@@@std@@@std@@@01@ABUauto_any_base@01@PAU?$type2type@V?$vector@Ucast_entry@?A0x440dba7a@detail@luabind@@V?$allocator@Ucast_entry@?A0x440dba7a@detail@luabind@@@std@@@std@@U?$bool_@$00@mpl@boost@@@01@PAU?$bool_@$0A@@mpl@1@@Z DD 019930522H
	DD	01H
	DD	FLAT:__unwindtable$??$end@V?$vector@Ucast_entry@?A0x440dba7a@detail@luabind@@V?$allocator@Ucast_entry@?A0x440dba7a@detail@luabind@@@std@@@std@@U?$bool_@$00@mpl@boost@@@foreach_detail_@boost@@YA?AU?$auto_any@V?$_Vector_const_iterator@V?$_Vector_val@U?$_Simple_types@Ucast_entry@?A0x440dba7a@detail@luabind@@@std@@@std@@@std@@@01@ABUauto_any_base@01@PAU?$type2type@V?$vector@Ucast_entry@?A0x440dba7a@detail@luabind@@V?$allocator@Ucast_entry@?A0x440dba7a@detail@luabind@@@std@@@std@@U?$bool_@$00@mpl@boost@@@01@PAU?$bool_@$0A@@mpl@1@@Z
	DD	2 DUP(00H)
	DD	2 DUP(00H)
	DD	00H
	DD	01H
xdata$x	ENDS
;	COMDAT voltbl
voltbl	SEGMENT
_volmd	DB	016H
voltbl	ENDS
;	COMDAT xdata$x
xdata$x	SEGMENT
__unwindtable$??$begin@V?$vector@Ucast_entry@?A0x440dba7a@detail@luabind@@V?$allocator@Ucast_entry@?A0x440dba7a@detail@luabind@@@std@@@std@@U?$bool_@$00@mpl@boost@@@foreach_detail_@boost@@YA?AU?$auto_any@V?$_Vector_const_iterator@V?$_Vector_val@U?$_Simple_types@Ucast_entry@?A0x440dba7a@detail@luabind@@@std@@@std@@@std@@@01@ABUauto_any_base@01@PAU?$type2type@V?$vector@Ucast_entry@?A0x440dba7a@detail@luabind@@V?$allocator@Ucast_entry@?A0x440dba7a@detail@luabind@@@std@@@std@@U?$bool_@$00@mpl@boost@@@01@PAU?$bool_@$0A@@mpl@1@@Z DD 0ffffffffH
	DD	FLAT:__unwindfunclet$??$begin@V?$vector@Ucast_entry@?A0x440dba7a@detail@luabind@@V?$allocator@Ucast_entry@?A0x440dba7a@detail@luabind@@@std@@@std@@U?$bool_@$00@mpl@boost@@@foreach_detail_@boost@@YA?AU?$auto_any@V?$_Vector_const_iterator@V?$_Vector_val@U?$_Simple_types@Ucast_entry@?A0x440dba7a@detail@luabind@@@std@@@std@@@std@@@01@ABUauto_any_base@01@PAU?$type2type@V?$vector@Ucast_entry@?A0x440dba7a@detail@luabind@@V?$allocator@Ucast_entry@?A0x440dba7a@detail@luabind@@@std@@@std@@U?$bool_@$00@mpl@boost@@@01@PAU?$bool_@$0A@@mpl@1@@Z$0
__ehfuncinfo$??$begin@V?$vector@Ucast_entry@?A0x440dba7a@detail@luabind@@V?$allocator@Ucast_entry@?A0x440dba7a@detail@luabind@@@std@@@std@@U?$bool_@$00@mpl@boost@@@foreach_detail_@boost@@YA?AU?$auto_any@V?$_Vector_const_iterator@V?$_Vector_val@U?$_Simple_types@Ucast_entry@?A0x440dba7a@detail@luabind@@@std@@@std@@@std@@@01@ABUauto_any_base@01@PAU?$type2type@V?$vector@Ucast_entry@?A0x440dba7a@detail@luabind@@V?$allocator@Ucast_entry@?A0x440dba7a@detail@luabind@@@std@@@std@@U?$bool_@$00@mpl@boost@@@01@PAU?$bool_@$0A@@mpl@1@@Z DD 019930522H
	DD	01H
	DD	FLAT:__unwindtable$??$begin@V?$vector@Ucast_entry@?A0x440dba7a@detail@luabind@@V?$allocator@Ucast_entry@?A0x440dba7a@detail@luabind@@@std@@@std@@U?$bool_@$00@mpl@boost@@@foreach_detail_@boost@@YA?AU?$auto_any@V?$_Vector_const_iterator@V?$_Vector_val@U?$_Simple_types@Ucast_entry@?A0x440dba7a@detail@luabind@@@std@@@std@@@std@@@01@ABUauto_any_base@01@PAU?$type2type@V?$vector@Ucast_entry@?A0x440dba7a@detail@luabind@@V?$allocator@Ucast_entry@?A0x440dba7a@detail@luabind@@@std@@@std@@U?$bool_@$00@mpl@boost@@@01@PAU?$bool_@$0A@@mpl@1@@Z
	DD	2 DUP(00H)
	DD	2 DUP(00H)
	DD	00H
	DD	01H
xdata$x	ENDS
;	COMDAT voltbl
voltbl	SEGMENT
_volmd	DB	016H
voltbl	ENDS
;	COMDAT xdata$x
xdata$x	SEGMENT
__unwindtable$?_Orphan_range_locked@?$vector@U?$pair@Vtype_id@luabind@@P6APAXPAX@Z@std@@V?$allocator@U?$pair@Vtype_id@luabind@@P6APAXPAX@Z@std@@@2@@std@@ABEXPAU?$pair@Vtype_id@luabind@@P6APAXPAX@Z@2@0@Z DD 0ffffffffH
	DD	FLAT:__unwindfunclet$?_Orphan_range_locked@?$vector@U?$pair@Vtype_id@luabind@@P6APAXPAX@Z@std@@V?$allocator@U?$pair@Vtype_id@luabind@@P6APAXPAX@Z@std@@@2@@std@@ABEXPAU?$pair@Vtype_id@luabind@@P6APAXPAX@Z@2@0@Z$0
__ehfuncinfo$?_Orphan_range_locked@?$vector@U?$pair@Vtype_id@luabind@@P6APAXPAX@Z@std@@V?$allocator@U?$pair@Vtype_id@luabind@@P6APAXPAX@Z@std@@@2@@std@@ABEXPAU?$pair@Vtype_id@luabind@@P6APAXPAX@Z@2@0@Z DD 019930522H
	DD	01H
	DD	FLAT:__unwindtable$?_Orphan_range_locked@?$vector@U?$pair@Vtype_id@luabind@@P6APAXPAX@Z@std@@V?$allocator@U?$pair@Vtype_id@luabind@@P6APAXPAX@Z@std@@@2@@std@@ABEXPAU?$pair@Vtype_id@luabind@@P6APAXPAX@Z@2@0@Z
	DD	2 DUP(00H)
	DD	2 DUP(00H)
	DD	00H
	DD	01H
xdata$x	ENDS
;	COMDAT voltbl
voltbl	SEGMENT
_volmd	DB	09H
voltbl	ENDS
;	COMDAT xdata$x
xdata$x	SEGMENT
__ehfuncinfo$?_Tidy@?$vector@U?$pair@Vtype_id@luabind@@P6APAXPAX@Z@std@@V?$allocator@U?$pair@Vtype_id@luabind@@P6APAXPAX@Z@std@@@2@@std@@AAEXXZ DD 019930522H
	DD	00H
	DD	00H
	DD	2 DUP(00H)
	DD	2 DUP(00H)
	DD	00H
	DD	05H
xdata$x	ENDS
;	COMDAT voltbl
voltbl	SEGMENT
_volmd	DB	09H
voltbl	ENDS
;	COMDAT xdata$x
xdata$x	SEGMENT
__ehfuncinfo$??0?$vector@U?$pair@Vtype_id@luabind@@P6APAXPAX@Z@std@@V?$allocator@U?$pair@Vtype_id@luabind@@P6APAXPAX@Z@std@@@2@@std@@QAE@XZ DD 019930522H
	DD	00H
	DD	00H
	DD	2 DUP(00H)
	DD	2 DUP(00H)
	DD	00H
	DD	05H
xdata$x	ENDS
voltbl	SEGMENT
_volmd	DD	0ffffffffH
	DDSymXIndex: 	FLAT:__unwindfunclet$?_Orphan_range_locked@?$vector@Ucast_entry@?A0x440dba7a@detail@luabind@@V?$allocator@Ucast_entry@?A0x440dba7a@detail@luabind@@@std@@@std@@ABEXPAUcast_entry@?A0x440dba7a@detail@luabind@@0@Z$0
	DD	016H
_volmd	DD	0ffffffffH
	DDSymXIndex: 	FLAT:__ehhandler$?_Tidy@?$vector@Ucast_entry@?A0x440dba7a@detail@luabind@@V?$allocator@Ucast_entry@?A0x440dba7a@detail@luabind@@@std@@@std@@AAEXXZ
	DD	09H
_volmd	DD	0ffffffffH
	DDSymXIndex: 	FLAT:__ehhandler$??0?$vector@Ucast_entry@?A0x440dba7a@detail@luabind@@V?$allocator@Ucast_entry@?A0x440dba7a@detail@luabind@@@std@@@std@@QAE@XZ
	DD	09H
_volmd	DD	0ffffffffH
	DDSymXIndex: 	FLAT:__unwindfunclet$?register_@class_registration@detail@luabind@@UBEXPAUlua_State@@@Z$0
	DD	03cH
_volmd	DD	0ffffffffH
	DDSymXIndex: 	FLAT:__unwindfunclet$??0class_registration@detail@luabind@@QAE@PBD@Z$0
	DD	04dH
_volmd	DD	0ffffffffH
	DDSymXIndex: 	FLAT:__unwindfunclet$?add_default_member@class_base@detail@luabind@@QAEXPAUregistration@23@@Z$0
	DD	016H
_volmd	DD	0ffffffffH
	DDSymXIndex: 	FLAT:__unwindfunclet$?add_member@class_base@detail@luabind@@QAEXPAUregistration@23@@Z$0
	DD	016H
_volmd	DD	0ffffffffH
	DDSymXIndex: 	FLAT:__unwindfunclet$??0class_base@detail@luabind@@QAE@PBD@Z$0
	DD	025H
_volmd	DD	0ffffffffH
	DDSymXIndex: 	FLAT:__unwindfunclet$?get_class_name@detail@luabind@@YA?AV?$basic_string@DU?$char_traits@D@std@@V?$allocator@D@2@@std@@PAUlua_State@@ABVtype_id@2@@Z$0
	DD	016H
	DD	020H
_volmd	DD	0ffffffffH
	DDSymXIndex: 	FLAT:?get_class_name@detail@luabind@@YA?AV?$basic_string@DU?$char_traits@D@std@@V?$allocator@D@2@@std@@PAUlua_State@@ABVtype_id@2@@Z
	DD	02bH
	DD	0103H
voltbl	ENDS
xdata$x	SEGMENT
__unwindtable$?_Orphan_range_locked@?$vector@Ucast_entry@?A0x440dba7a@detail@luabind@@V?$allocator@Ucast_entry@?A0x440dba7a@detail@luabind@@@std@@@std@@ABEXPAUcast_entry@?A0x440dba7a@detail@luabind@@0@Z DD 0ffffffffH
	DD	FLAT:__unwindfunclet$?_Orphan_range_locked@?$vector@Ucast_entry@?A0x440dba7a@detail@luabind@@V?$allocator@Ucast_entry@?A0x440dba7a@detail@luabind@@@std@@@std@@ABEXPAUcast_entry@?A0x440dba7a@detail@luabind@@0@Z$0
__unwindtable$?add_default_member@class_base@detail@luabind@@QAEXPAUregistration@23@@Z DD 0ffffffffH
	DD	FLAT:__unwindfunclet$?add_default_member@class_base@detail@luabind@@QAEXPAUregistration@23@@Z$0
__unwindtable$?add_member@class_base@detail@luabind@@QAEXPAUregistration@23@@Z DD 0ffffffffH
	DD	FLAT:__unwindfunclet$?add_member@class_base@detail@luabind@@QAEXPAUregistration@23@@Z$0
__unwindtable$?get_class_name@detail@luabind@@YA?AV?$basic_string@DU?$char_traits@D@std@@V?$allocator@D@2@@std@@PAUlua_State@@ABVtype_id@2@@Z DD 0ffffffffH
	DD	FLAT:__unwindfunclet$?get_class_name@detail@luabind@@YA?AV?$basic_string@DU?$char_traits@D@std@@V?$allocator@D@2@@std@@PAUlua_State@@ABVtype_id@2@@Z$0
__unwindtable$??0class_base@detail@luabind@@QAE@PBD@Z DD 0ffffffffH
	DD	FLAT:__unwindfunclet$??0class_base@detail@luabind@@QAE@PBD@Z$0
	DD	0ffffffffH
	DD	FLAT:__unwindfunclet$??0class_base@detail@luabind@@QAE@PBD@Z$1
__ehfuncinfo$?_Orphan_range_locked@?$vector@Ucast_entry@?A0x440dba7a@detail@luabind@@V?$allocator@Ucast_entry@?A0x440dba7a@detail@luabind@@@std@@@std@@ABEXPAUcast_entry@?A0x440dba7a@detail@luabind@@0@Z DD 019930522H
	DD	01H
	DD	FLAT:__unwindtable$?_Orphan_range_locked@?$vector@Ucast_entry@?A0x440dba7a@detail@luabind@@V?$allocator@Ucast_entry@?A0x440dba7a@detail@luabind@@@std@@@std@@ABEXPAUcast_entry@?A0x440dba7a@detail@luabind@@0@Z
	DD	2 DUP(00H)
	DD	2 DUP(00H)
	DD	00H
	DD	01H
__ehfuncinfo$?_Tidy@?$vector@Ucast_entry@?A0x440dba7a@detail@luabind@@V?$allocator@Ucast_entry@?A0x440dba7a@detail@luabind@@@std@@@std@@AAEXXZ DD 019930522H
	DD	00H
	DD	00H
	DD	2 DUP(00H)
	DD	2 DUP(00H)
	DD	00H
	DD	05H
__ehfuncinfo$??0?$vector@Ucast_entry@?A0x440dba7a@detail@luabind@@V?$allocator@Ucast_entry@?A0x440dba7a@detail@luabind@@@std@@@std@@QAE@XZ DD 019930522H
	DD	00H
	DD	00H
	DD	2 DUP(00H)
	DD	2 DUP(00H)
	DD	00H
	DD	05H
__ehfuncinfo$?register_@class_registration@detail@luabind@@UBEXPAUlua_State@@@Z DD 019930522H
	DD	05H
	DD	FLAT:__unwindtable$?register_@class_registration@detail@luabind@@UBEXPAUlua_State@@@Z
	DD	2 DUP(00H)
	DD	2 DUP(00H)
	DD	00H
	DD	01H
__ehfuncinfo$??0class_registration@detail@luabind@@QAE@PBD@Z DD 019930522H
	DD	06H
	DD	FLAT:__unwindtable$??0class_registration@detail@luabind@@QAE@PBD@Z
	DD	2 DUP(00H)
	DD	2 DUP(00H)
	DD	00H
	DD	01H
__ehfuncinfo$?add_default_member@class_base@detail@luabind@@QAEXPAUregistration@23@@Z DD 019930522H
	DD	01H
	DD	FLAT:__unwindtable$?add_default_member@class_base@detail@luabind@@QAEXPAUregistration@23@@Z
	DD	2 DUP(00H)
	DD	2 DUP(00H)
	DD	00H
	DD	01H
__ehfuncinfo$?add_member@class_base@detail@luabind@@QAEXPAUregistration@23@@Z DD 019930522H
	DD	01H
	DD	FLAT:__unwindtable$?add_member@class_base@detail@luabind@@QAEXPAUregistration@23@@Z
	DD	2 DUP(00H)
	DD	2 DUP(00H)
	DD	00H
	DD	01H
__ehfuncinfo$??0class_base@detail@luabind@@QAE@PBD@Z DD 019930522H
	DD	02H
	DD	FLAT:__unwindtable$??0class_base@detail@luabind@@QAE@PBD@Z
	DD	2 DUP(00H)
	DD	2 DUP(00H)
	DD	00H
	DD	01H
__ehfuncinfo$?get_class_name@detail@luabind@@YA?AV?$basic_string@DU?$char_traits@D@std@@V?$allocator@D@2@@std@@PAUlua_State@@ABVtype_id@2@@Z DD 019930522H
	DD	01H
	DD	FLAT:__unwindtable$?get_class_name@detail@luabind@@YA?AV?$basic_string@DU?$char_traits@D@std@@V?$allocator@D@2@@std@@PAUlua_State@@ABVtype_id@2@@Z
	DD	2 DUP(00H)
	DD	2 DUP(00H)
	DD	00H
	DD	01H
__unwindtable$?register_@class_registration@detail@luabind@@UBEXPAUlua_State@@@Z DD 0ffffffffH
	DD	FLAT:__unwindfunclet$?register_@class_registration@detail@luabind@@UBEXPAUlua_State@@@Z$0
	DD	00H
	DD	FLAT:__unwindfunclet$?register_@class_registration@detail@luabind@@UBEXPAUlua_State@@@Z$1
	DD	01H
	DD	FLAT:__unwindfunclet$?register_@class_registration@detail@luabind@@UBEXPAUlua_State@@@Z$2
	DD	00H
	DD	FLAT:__unwindfunclet$?register_@class_registration@detail@luabind@@UBEXPAUlua_State@@@Z$3
	DD	03H
	DD	FLAT:__unwindfunclet$?register_@class_registration@detail@luabind@@UBEXPAUlua_State@@@Z$5
__unwindtable$??0class_registration@detail@luabind@@QAE@PBD@Z DD 0ffffffffH
	DD	FLAT:__unwindfunclet$??0class_registration@detail@luabind@@QAE@PBD@Z$0
	DD	00H
	DD	FLAT:__unwindfunclet$??0class_registration@detail@luabind@@QAE@PBD@Z$1
	DD	01H
	DD	FLAT:__unwindfunclet$??0class_registration@detail@luabind@@QAE@PBD@Z$2
	DD	02H
	DD	FLAT:__unwindfunclet$??0class_registration@detail@luabind@@QAE@PBD@Z$3
	DD	03H
	DD	FLAT:__unwindfunclet$??0class_registration@detail@luabind@@QAE@PBD@Z$4
	DD	04H
	DD	FLAT:__unwindfunclet$??0class_registration@detail@luabind@@QAE@PBD@Z$5
xdata$x	ENDS
;	COMDAT voltbl
voltbl	SEGMENT
_volmd	DB	016H
voltbl	ENDS
;	COMDAT xdata$x
xdata$x	SEGMENT
__unwindtable$?_Alloc_sentinel_and_proxy@?$_Tree@V?$_Tmap_traits@PBDHUltstr@detail@luabind@@V?$allocator@U?$pair@QBDH@std@@@std@@$0A@@std@@@std@@IAEXXZ DD 0ffffffffH
	DD	FLAT:__unwindfunclet$?_Alloc_sentinel_and_proxy@?$_Tree@V?$_Tmap_traits@PBDHUltstr@detail@luabind@@V?$allocator@U?$pair@QBDH@std@@@std@@$0A@@std@@@std@@IAEXXZ$0
__ehfuncinfo$?_Alloc_sentinel_and_proxy@?$_Tree@V?$_Tmap_traits@PBDHUltstr@detail@luabind@@V?$allocator@U?$pair@QBDH@std@@@std@@$0A@@std@@@std@@IAEXXZ DD 019930522H
	DD	01H
	DD	FLAT:__unwindtable$?_Alloc_sentinel_and_proxy@?$_Tree@V?$_Tmap_traits@PBDHUltstr@detail@luabind@@V?$allocator@U?$pair@QBDH@std@@@std@@$0A@@std@@@std@@IAEXXZ
	DD	2 DUP(00H)
	DD	2 DUP(00H)
	DD	00H
	DD	01H
xdata$x	ENDS
;	COMDAT voltbl
voltbl	SEGMENT
_volmd	DB	09H
voltbl	ENDS
;	COMDAT xdata$x
xdata$x	SEGMENT
__ehfuncinfo$?swap@?$_Tree@V?$_Tmap_traits@PBDHUltstr@detail@luabind@@V?$allocator@U?$pair@QBDH@std@@@std@@$0A@@std@@@std@@QAEXAAV12@@Z DD 019930522H
	DD	00H
	DD	00H
	DD	2 DUP(00H)
	DD	2 DUP(00H)
	DD	00H
	DD	05H
xdata$x	ENDS
;	COMDAT voltbl
voltbl	SEGMENT
_volmd	DB	016H
voltbl	ENDS
;	COMDAT xdata$x
xdata$x	SEGMENT
__unwindtable$?_Orphan_range_locked@?$vector@PAVclass_rep@detail@luabind@@V?$allocator@PAVclass_rep@detail@luabind@@@std@@@std@@ABEXPAPAVclass_rep@detail@luabind@@0@Z DD 0ffffffffH
	DD	FLAT:__unwindfunclet$?_Orphan_range_locked@?$vector@PAVclass_rep@detail@luabind@@V?$allocator@PAVclass_rep@detail@luabind@@@std@@@std@@ABEXPAPAVclass_rep@detail@luabind@@0@Z$0
__ehfuncinfo$?_Orphan_range_locked@?$vector@PAVclass_rep@detail@luabind@@V?$allocator@PAVclass_rep@detail@luabind@@@std@@@std@@ABEXPAPAVclass_rep@detail@luabind@@0@Z DD 019930522H
	DD	01H
	DD	FLAT:__unwindtable$?_Orphan_range_locked@?$vector@PAVclass_rep@detail@luabind@@V?$allocator@PAVclass_rep@detail@luabind@@@std@@@std@@ABEXPAPAVclass_rep@detail@luabind@@0@Z
	DD	2 DUP(00H)
	DD	2 DUP(00H)
	DD	00H
	DD	01H
xdata$x	ENDS
;	COMDAT voltbl
voltbl	SEGMENT
_volmd	DB	09H
voltbl	ENDS
;	COMDAT xdata$x
xdata$x	SEGMENT
__ehfuncinfo$?_Tidy_deallocate@?$basic_string@DU?$char_traits@D@std@@V?$allocator@D@2@@std@@AAEXXZ DD 019930522H
	DD	00H
	DD	00H
	DD	2 DUP(00H)
	DD	2 DUP(00H)
	DD	00H
	DD	05H
xdata$x	ENDS
;	COMDAT voltbl
voltbl	SEGMENT
_volmd	DB	09H
voltbl	ENDS
;	COMDAT xdata$x
xdata$x	SEGMENT
__ehfuncinfo$?_Take_contents@?$basic_string@DU?$char_traits@D@std@@V?$allocator@D@2@@std@@AAEXAAV12@@Z DD 019930522H
	DD	00H
	DD	00H
	DD	2 DUP(00H)
	DD	2 DUP(00H)
	DD	00H
	DD	05H
xdata$x	ENDS
;	COMDAT voltbl
voltbl	SEGMENT
_volmd	DB	09H
voltbl	ENDS
;	COMDAT xdata$x
xdata$x	SEGMENT
__ehfuncinfo$??0?$basic_string@DU?$char_traits@D@std@@V?$allocator@D@2@@std@@QAE@$$QAV01@@Z DD 019930522H
	DD	00H
	DD	00H
	DD	2 DUP(00H)
	DD	2 DUP(00H)
	DD	00H
	DD	05H
xdata$x	ENDS
;	COMDAT voltbl
voltbl	SEGMENT
_volmd	DB	09H
voltbl	ENDS
;	COMDAT xdata$x
xdata$x	SEGMENT
__ehfuncinfo$??0?$basic_string@DU?$char_traits@D@std@@V?$allocator@D@2@@std@@QAE@XZ DD 019930522H
	DD	00H
	DD	00H
	DD	2 DUP(00H)
	DD	2 DUP(00H)
	DD	00H
	DD	05H
xdata$x	ENDS
CRT$XCU	SEGMENT
?in_place_init_if$initializer$@optional_ns@boost@@3P6AXXZA DD FLAT:??__Ein_place_init_if@optional_ns@boost@@YAXXZ ; boost::optional_ns::in_place_init_if$initializer$
CRT$XCU	ENDS
;	COMDAT CRT$XCU
CRT$XCU	SEGMENT
??id$initializer$@?$registered_class@Unull_type@detail@luabind@@@detail@luabind@@2P6AXXZA@@3P6AXXZA DD FLAT:??__E?id@?$registered_class@Unull_type@detail@luabind@@@detail@luabind@@2IB@@YAXXZ ; ??id$initializer$@?$registered_class@Unull_type@detail@luabind@@@detail@luabind@@2P6AXXZA@@3P6AXXZA
CRT$XCU	ENDS
; Function compile flags: /Odtp /RTCsu
; File C:\Program Files\Microsoft Visual Studio\2022\Community\VC\Tools\MSVC\14.34.31933\include\type_traits
;	COMDAT ??$forward@Vtype_id@luabind@@@std@@YA$$QAVtype_id@luabind@@AAV12@@Z
_TEXT	SEGMENT
__Arg$ = 8						; size = 4
??$forward@Vtype_id@luabind@@@std@@YA$$QAVtype_id@luabind@@AAV12@@Z PROC ; std::forward<luabind::type_id>, COMDAT

; 1425 :     remove_reference_t<_Ty>& _Arg) noexcept { // forward an lvalue as either an lvalue or an rvalue

	push	ebp
	mov	ebp, esp

; 1426 :     return static_cast<_Ty&&>(_Arg);

	mov	eax, DWORD PTR __Arg$[ebp]

; 1427 : }

	pop	ebp
	ret	0
??$forward@Vtype_id@luabind@@@std@@YA$$QAVtype_id@luabind@@AAV12@@Z ENDP ; std::forward<luabind::type_id>
_TEXT	ENDS
; Function compile flags: /Odtp /RTCsu
; File C:\Program Files\Microsoft Visual Studio\2022\Community\VC\Tools\MSVC\14.34.31933\include\tuple
;	COMDAT ??$_Tuple_get@$0A@ABQBD@std@@YA$$QA_P$$QAV?$tuple@ABQBD@0@@Z
_TEXT	SEGMENT
__Tuple$ = 8						; size = 4
??$_Tuple_get@$0A@ABQBD@std@@YA$$QA_P$$QAV?$tuple@ABQBD@0@@Z PROC ; std::_Tuple_get<0,char const * const &>, COMDAT

; 768  : _NODISCARD constexpr auto&& _Tuple_get(tuple<_Types...>&& _Tuple) noexcept {

	push	ebp
	mov	ebp, esp

; 769  :     // used by pair's piecewise constructor
; 770  :     using _Ty    = tuple_element_t<_Index, tuple<_Types...>>;
; 771  :     using _Ttype = typename tuple_element<_Index, tuple<_Types...>>::_Ttype;
; 772  :     return static_cast<_Ty&&>(static_cast<_Ttype&>(_Tuple)._Myfirst._Val);

	mov	eax, DWORD PTR __Tuple$[ebp]
	mov	eax, DWORD PTR [eax]

; 773  : }

	pop	ebp
	ret	0
??$_Tuple_get@$0A@ABQBD@std@@YA$$QA_P$$QAV?$tuple@ABQBD@0@@Z ENDP ; std::_Tuple_get<0,char const * const &>
_TEXT	ENDS
; Function compile flags: /Odtp /RTCsu
; File C:\Program Files\Microsoft Visual Studio\2022\Community\VC\Tools\MSVC\14.34.31933\include\type_traits
;	COMDAT ??$move@AAV?$tuple@ABQBD@std@@@std@@YA$$QAV?$tuple@ABQBD@0@AAV10@@Z
_TEXT	SEGMENT
__Arg$ = 8						; size = 4
??$move@AAV?$tuple@ABQBD@std@@@std@@YA$$QAV?$tuple@ABQBD@0@AAV10@@Z PROC ; std::move<std::tuple<char const * const &> &>, COMDAT

; 1436 : _NODISCARD constexpr remove_reference_t<_Ty>&& move(_Ty&& _Arg) noexcept { // forward _Arg as movable

	push	ebp
	mov	ebp, esp

; 1437 :     return static_cast<remove_reference_t<_Ty>&&>(_Arg);

	mov	eax, DWORD PTR __Arg$[ebp]

; 1438 : }

	pop	ebp
	ret	0
??$move@AAV?$tuple@ABQBD@std@@@std@@YA$$QAV?$tuple@ABQBD@0@AAV10@@Z ENDP ; std::move<std::tuple<char const * const &> &>
_TEXT	ENDS
; Function compile flags: /Odtp /RTCsu
; File C:\Program Files\Microsoft Visual Studio\2022\Community\VC\Tools\MSVC\14.34.31933\include\xutility
;	COMDAT ??$_Voidify_iter@PAU?$pair@$$CBVtype_id@luabind@@I@std@@@std@@YAPAXPAU?$pair@$$CBVtype_id@luabind@@I@0@@Z
_TEXT	SEGMENT
__It$ = 8						; size = 4
??$_Voidify_iter@PAU?$pair@$$CBVtype_id@luabind@@I@std@@@std@@YAPAXPAU?$pair@$$CBVtype_id@luabind@@I@0@@Z PROC ; std::_Voidify_iter<std::pair<luabind::type_id const ,unsigned int> *>, COMDAT

; 200  : _NODISCARD constexpr void* _Voidify_iter(_Iter _It) noexcept {

	push	ebp
	mov	ebp, esp

; 201  :     if constexpr (is_pointer_v<_Iter>) {
; 202  :         return const_cast<void*>(static_cast<const volatile void*>(_It));

	mov	eax, DWORD PTR __It$[ebp]

; 203  :     } else {
; 204  :         return const_cast<void*>(static_cast<const volatile void*>(_STD addressof(*_It)));
; 205  :     }
; 206  : }

	pop	ebp
	ret	0
??$_Voidify_iter@PAU?$pair@$$CBVtype_id@luabind@@I@std@@@std@@YAPAXPAU?$pair@$$CBVtype_id@luabind@@I@0@@Z ENDP ; std::_Voidify_iter<std::pair<luabind::type_id const ,unsigned int> *>
_TEXT	ENDS
; Function compile flags: /Odtp /RTCsu
; File C:\Program Files\Microsoft Visual Studio\2022\Community\VC\Tools\MSVC\14.34.31933\include\xutility
;	COMDAT ??$_Voidify_iter@PAPAVclass_rep@detail@luabind@@@std@@YAPAXPAPAVclass_rep@detail@luabind@@@Z
_TEXT	SEGMENT
__It$ = 8						; size = 4
??$_Voidify_iter@PAPAVclass_rep@detail@luabind@@@std@@YAPAXPAPAVclass_rep@detail@luabind@@@Z PROC ; std::_Voidify_iter<luabind::detail::class_rep * *>, COMDAT

; 200  : _NODISCARD constexpr void* _Voidify_iter(_Iter _It) noexcept {

	push	ebp
	mov	ebp, esp

; 201  :     if constexpr (is_pointer_v<_Iter>) {
; 202  :         return const_cast<void*>(static_cast<const volatile void*>(_It));

	mov	eax, DWORD PTR __It$[ebp]

; 203  :     } else {
; 204  :         return const_cast<void*>(static_cast<const volatile void*>(_STD addressof(*_It)));
; 205  :     }
; 206  : }

	pop	ebp
	ret	0
??$_Voidify_iter@PAPAVclass_rep@detail@luabind@@@std@@YAPAXPAPAVclass_rep@detail@luabind@@@Z ENDP ; std::_Voidify_iter<luabind::detail::class_rep * *>
_TEXT	ENDS
; Function compile flags: /Odtp /RTCsu
; File C:\Program Files\Microsoft Visual Studio\2022\Community\VC\Tools\MSVC\14.34.31933\include\xmemory
;	COMDAT ??$construct@PAVclass_rep@detail@luabind@@PAV123@@?$_Default_allocator_traits@V?$allocator@PAVclass_rep@detail@luabind@@@std@@@std@@SAXAAV?$allocator@PAVclass_rep@detail@luabind@@@1@QAPAVclass_rep@detail@luabind@@$$QAPAV345@@Z
_TEXT	SEGMENT
$T1 = -4						; size = 4
___formal$ = 8						; size = 4
__Ptr$ = 12						; size = 4
_<_Args_0>$ = 16					; size = 4
??$construct@PAVclass_rep@detail@luabind@@PAV123@@?$_Default_allocator_traits@V?$allocator@PAVclass_rep@detail@luabind@@@std@@@std@@SAXAAV?$allocator@PAVclass_rep@detail@luabind@@@1@QAPAVclass_rep@detail@luabind@@$$QAPAV345@@Z PROC ; std::_Default_allocator_traits<std::allocator<luabind::detail::class_rep *> >::construct<luabind::detail::class_rep *,luabind::detail::class_rep *>, COMDAT

; 673  :     static _CONSTEXPR20 void construct(_Alloc&, _Objty* const _Ptr, _Types&&... _Args) {

	push	ebp
	mov	ebp, esp
	push	ecx
	mov	DWORD PTR [ebp-4], -858993460		; ccccccccH

; 674  : #if _HAS_CXX20
; 675  :         if (_STD is_constant_evaluated()) {
; 676  :             _STD construct_at(_Ptr, _STD forward<_Types>(_Args)...);
; 677  :         } else
; 678  : #endif // _HAS_CXX20
; 679  :         {
; 680  :             ::new (_Voidify_iter(_Ptr)) _Objty(_STD forward<_Types>(_Args)...);

	mov	eax, DWORD PTR __Ptr$[ebp]
	push	eax
	call	??$_Voidify_iter@PAPAVclass_rep@detail@luabind@@@std@@YAPAXPAPAVclass_rep@detail@luabind@@@Z ; std::_Voidify_iter<luabind::detail::class_rep * *>
	add	esp, 4
	push	eax
	push	4
	call	??2@YAPAXIPAX@Z				; operator new
	add	esp, 8
	mov	DWORD PTR $T1[ebp], eax
	mov	ecx, DWORD PTR _<_Args_0>$[ebp]
	push	ecx
	call	??$forward@PAVclass_rep@detail@luabind@@@std@@YA$$QAPAVclass_rep@detail@luabind@@AAPAV123@@Z ; std::forward<luabind::detail::class_rep *>
	add	esp, 4
	mov	edx, DWORD PTR $T1[ebp]
	mov	eax, DWORD PTR [eax]
	mov	DWORD PTR [edx], eax

; 681  :         }
; 682  :     }

	add	esp, 4
	cmp	ebp, esp
	call	__RTC_CheckEsp
	mov	esp, ebp
	pop	ebp
	ret	0
??$construct@PAVclass_rep@detail@luabind@@PAV123@@?$_Default_allocator_traits@V?$allocator@PAVclass_rep@detail@luabind@@@std@@@std@@SAXAAV?$allocator@PAVclass_rep@detail@luabind@@@1@QAPAVclass_rep@detail@luabind@@$$QAPAV345@@Z ENDP ; std::_Default_allocator_traits<std::allocator<luabind::detail::class_rep *> >::construct<luabind::detail::class_rep *,luabind::detail::class_rep *>
_TEXT	ENDS
; Function compile flags: /Odtp /RTCsu
; File C:\Program Files\Microsoft Visual Studio\2022\Community\VC\Tools\MSVC\14.34.31933\include\type_traits
;	COMDAT ??$forward@PAVclass_rep@detail@luabind@@@std@@YA$$QAPAVclass_rep@detail@luabind@@AAPAV123@@Z
_TEXT	SEGMENT
__Arg$ = 8						; size = 4
??$forward@PAVclass_rep@detail@luabind@@@std@@YA$$QAPAVclass_rep@detail@luabind@@AAPAV123@@Z PROC ; std::forward<luabind::detail::class_rep *>, COMDAT

; 1425 :     remove_reference_t<_Ty>& _Arg) noexcept { // forward an lvalue as either an lvalue or an rvalue

	push	ebp
	mov	ebp, esp

; 1426 :     return static_cast<_Ty&&>(_Arg);

	mov	eax, DWORD PTR __Arg$[ebp]

; 1427 : }

	pop	ebp
	ret	0
??$forward@PAVclass_rep@detail@luabind@@@std@@YA$$QAPAVclass_rep@detail@luabind@@AAPAV123@@Z ENDP ; std::forward<luabind::detail::class_rep *>
_TEXT	ENDS
; Function compile flags: /Odtp /RTCsu
; File C:\Program Files\Microsoft Visual Studio\2022\Community\VC\Tools\MSVC\14.34.31933\include\utility
;	COMDAT ??$?0V?$tuple@ABQBD@std@@V?$tuple@$$V@1@$0A@$$Z$S@?$pair@QBDH@std@@QAE@AAV?$tuple@ABQBD@1@AAV?$tuple@$$V@1@U?$integer_sequence@I$0A@@1@U?$integer_sequence@I$S@1@@Z
_TEXT	SEGMENT
_this$ = -4						; size = 4
__Val1$ = 8						; size = 4
__Val2$ = 12						; size = 4
___formal$ = 16						; size = 1
___formal$ = 20						; size = 1
??$?0V?$tuple@ABQBD@std@@V?$tuple@$$V@1@$0A@$$Z$S@?$pair@QBDH@std@@QAE@AAV?$tuple@ABQBD@1@AAV?$tuple@$$V@1@U?$integer_sequence@I$0A@@1@U?$integer_sequence@I$S@1@@Z PROC ; std::pair<char const * const,int>::pair<char const * const,int><std::tuple<char const * const &>,std::tuple<>,0>, COMDAT
; _this$ = ecx

; 214  :         : first(_Tuple_get<_Indexes1>(_STD move(_Val1))...), second(_Tuple_get<_Indexes2>(_STD move(_Val2))...) {}

	push	ebp
	mov	ebp, esp
	push	ecx
	mov	DWORD PTR [ebp-4], -858993460		; ccccccccH
	mov	DWORD PTR _this$[ebp], ecx
	mov	eax, DWORD PTR __Val1$[ebp]
	push	eax
	call	??$move@AAV?$tuple@ABQBD@std@@@std@@YA$$QAV?$tuple@ABQBD@0@AAV10@@Z ; std::move<std::tuple<char const * const &> &>
	add	esp, 4
	push	eax
	call	??$_Tuple_get@$0A@ABQBD@std@@YA$$QA_P$$QAV?$tuple@ABQBD@0@@Z ; std::_Tuple_get<0,char const * const &>
	add	esp, 4
	mov	ecx, DWORD PTR _this$[ebp]
	mov	edx, DWORD PTR [eax]
	mov	DWORD PTR [ecx], edx
	mov	eax, DWORD PTR _this$[ebp]
	mov	DWORD PTR [eax+4], 0
	mov	eax, DWORD PTR _this$[ebp]
	add	esp, 4
	cmp	ebp, esp
	call	__RTC_CheckEsp
	mov	esp, ebp
	pop	ebp
	ret	16					; 00000010H
??$?0V?$tuple@ABQBD@std@@V?$tuple@$$V@1@$0A@$$Z$S@?$pair@QBDH@std@@QAE@AAV?$tuple@ABQBD@1@AAV?$tuple@$$V@1@U?$integer_sequence@I$0A@@1@U?$integer_sequence@I$S@1@@Z ENDP ; std::pair<char const * const,int>::pair<char const * const,int><std::tuple<char const * const &>,std::tuple<>,0>
_TEXT	ENDS
; Function compile flags: /Odtp /RTCsu
; File C:\Program Files\Microsoft Visual Studio\2022\Community\VC\Tools\MSVC\14.34.31933\include\tuple
;	COMDAT ??$?0ABQBD@?$_Tuple_val@ABQBD@std@@QAE@ABQBD@Z
_TEXT	SEGMENT
_this$ = -4						; size = 4
__Arg$ = 8						; size = 4
??$?0ABQBD@?$_Tuple_val@ABQBD@std@@QAE@ABQBD@Z PROC	; std::_Tuple_val<char const * const &>::_Tuple_val<char const * const &><char const * const &>, COMDAT
; _this$ = ecx

; 144  :     constexpr _Tuple_val(_Other&& _Arg) : _Val(_STD forward<_Other>(_Arg)) {}

	push	ebp
	mov	ebp, esp
	push	ecx
	mov	DWORD PTR [ebp-4], -858993460		; ccccccccH
	mov	DWORD PTR _this$[ebp], ecx
	mov	eax, DWORD PTR __Arg$[ebp]
	push	eax
	call	??$forward@ABQBD@std@@YAABQBDABQBD@Z	; std::forward<char const * const &>
	add	esp, 4
	mov	ecx, DWORD PTR _this$[ebp]
	mov	DWORD PTR [ecx], eax
	mov	eax, DWORD PTR _this$[ebp]
	add	esp, 4
	cmp	ebp, esp
	call	__RTC_CheckEsp
	mov	esp, ebp
	pop	ebp
	ret	4
??$?0ABQBD@?$_Tuple_val@ABQBD@std@@QAE@ABQBD@Z ENDP	; std::_Tuple_val<char const * const &>::_Tuple_val<char const * const &><char const * const &>
_TEXT	ENDS
; Function compile flags: /Odtp /RTCsu
; File C:\Program Files\Microsoft Visual Studio\2022\Community\VC\Tools\MSVC\14.34.31933\include\tuple
;	COMDAT ??$?0U_Exact_args_t@std@@$0A@@?$tuple@$$V@std@@QAE@U_Exact_args_t@1@@Z
_TEXT	SEGMENT
_this$ = -4						; size = 4
___formal$ = 8						; size = 1
??$?0U_Exact_args_t@std@@$0A@@?$tuple@$$V@std@@QAE@U_Exact_args_t@1@@Z PROC ; std::tuple<>::tuple<><std::_Exact_args_t,0>, COMDAT
; _this$ = ecx

; 199  :     constexpr tuple(_Tag) noexcept /* strengthened */ {}

	push	ebp
	mov	ebp, esp
	push	ecx
	mov	DWORD PTR _this$[ebp], ecx
	mov	eax, DWORD PTR _this$[ebp]
	mov	esp, ebp
	pop	ebp
	ret	4
??$?0U_Exact_args_t@std@@$0A@@?$tuple@$$V@std@@QAE@U_Exact_args_t@1@@Z ENDP ; std::tuple<>::tuple<><std::_Exact_args_t,0>
_TEXT	ENDS
; Function compile flags: /Odtp /RTCsu
; File C:\Program Files\Microsoft Visual Studio\2022\Community\VC\Tools\MSVC\14.34.31933\include\xutility
;	COMDAT ??$_To_address@PAU?$pair@Vtype_id@luabind@@P6APAXPAX@Z@std@@@std@@YA?A_PABQAU?$pair@Vtype_id@luabind@@P6APAXPAX@Z@0@@Z
_TEXT	SEGMENT
__Val$ = 8						; size = 4
??$_To_address@PAU?$pair@Vtype_id@luabind@@P6APAXPAX@Z@std@@@std@@YA?A_PABQAU?$pair@Vtype_id@luabind@@P6APAXPAX@Z@0@@Z PROC ; std::_To_address<std::pair<luabind::type_id,void * (__cdecl*)(void *)> *>, COMDAT

; 3712 : _NODISCARD constexpr auto _To_address(const _Iter& _Val) noexcept {

	push	ebp
	mov	ebp, esp

; 3713 :     _STL_INTERNAL_STATIC_ASSERT(is_pointer_v<_Iter>);
; 3714 :     return _Val;

	mov	eax, DWORD PTR __Val$[ebp]
	mov	eax, DWORD PTR [eax]

; 3715 : }

	pop	ebp
	ret	0
??$_To_address@PAU?$pair@Vtype_id@luabind@@P6APAXPAX@Z@std@@@std@@YA?A_PABQAU?$pair@Vtype_id@luabind@@P6APAXPAX@Z@0@@Z ENDP ; std::_To_address<std::pair<luabind::type_id,void * (__cdecl*)(void *)> *>
_TEXT	ENDS
; Function compile flags: /Odtp /RTCsu
; File C:\Program Files\Microsoft Visual Studio\2022\Community\VC\Tools\MSVC\14.34.31933\include\xutility
;	COMDAT ??$_To_address@PAUcast_entry@?A0x440dba7a@detail@luabind@@@std@@YA?A_PABQAUcast_entry@?A0x440dba7a@detail@luabind@@@Z
_TEXT	SEGMENT
__Val$ = 8						; size = 4
??$_To_address@PAUcast_entry@?A0x440dba7a@detail@luabind@@@std@@YA?A_PABQAUcast_entry@?A0x440dba7a@detail@luabind@@@Z PROC ; std::_To_address<luabind::detail::`anonymous namespace'::cast_entry *>, COMDAT

; 3712 : _NODISCARD constexpr auto _To_address(const _Iter& _Val) noexcept {

	push	ebp
	mov	ebp, esp

; 3713 :     _STL_INTERNAL_STATIC_ASSERT(is_pointer_v<_Iter>);
; 3714 :     return _Val;

	mov	eax, DWORD PTR __Val$[ebp]
	mov	eax, DWORD PTR [eax]

; 3715 : }

	pop	ebp
	ret	0
??$_To_address@PAUcast_entry@?A0x440dba7a@detail@luabind@@@std@@YA?A_PABQAUcast_entry@?A0x440dba7a@detail@luabind@@@Z ENDP ; std::_To_address<luabind::detail::`anonymous namespace'::cast_entry *>
_TEXT	ENDS
; Function compile flags: /Odtp /RTCsu
; File C:\Program Files\Microsoft Visual Studio\2022\Community\VC\Tools\MSVC\14.34.31933\include\type_traits
;	COMDAT ??$forward@PAU?$_Tree_node@U?$pair@$$CBVtype_id@luabind@@I@std@@PAX@std@@@std@@YA$$QAPAU?$_Tree_node@U?$pair@$$CBVtype_id@luabind@@I@std@@PAX@0@AAPAU10@@Z
_TEXT	SEGMENT
__Arg$ = 8						; size = 4
??$forward@PAU?$_Tree_node@U?$pair@$$CBVtype_id@luabind@@I@std@@PAX@std@@@std@@YA$$QAPAU?$_Tree_node@U?$pair@$$CBVtype_id@luabind@@I@std@@PAX@0@AAPAU10@@Z PROC ; std::forward<std::_Tree_node<std::pair<luabind::type_id const ,unsigned int>,void *> *>, COMDAT

; 1425 :     remove_reference_t<_Ty>& _Arg) noexcept { // forward an lvalue as either an lvalue or an rvalue

	push	ebp
	mov	ebp, esp

; 1426 :     return static_cast<_Ty&&>(_Arg);

	mov	eax, DWORD PTR __Arg$[ebp]

; 1427 : }

	pop	ebp
	ret	0
??$forward@PAU?$_Tree_node@U?$pair@$$CBVtype_id@luabind@@I@std@@PAX@std@@@std@@YA$$QAPAU?$_Tree_node@U?$pair@$$CBVtype_id@luabind@@I@std@@PAX@0@AAPAU10@@Z ENDP ; std::forward<std::_Tree_node<std::pair<luabind::type_id const ,unsigned int>,void *> *>
_TEXT	ENDS
; Function compile flags: /Odtp /RTCsu
; File C:\Program Files\Microsoft Visual Studio\2022\Community\VC\Tools\MSVC\14.34.31933\include\xutility
;	COMDAT ??$_Construct_in_place@PAU?$_Tree_node@U?$pair@$$CBVtype_id@luabind@@I@std@@PAX@std@@AAPAU12@@std@@YAXAAPAU?$_Tree_node@U?$pair@$$CBVtype_id@luabind@@I@std@@PAX@0@0@Z
_TEXT	SEGMENT
$T1 = -4						; size = 4
__Obj$ = 8						; size = 4
_<_Args_0>$ = 12					; size = 4
??$_Construct_in_place@PAU?$_Tree_node@U?$pair@$$CBVtype_id@luabind@@I@std@@PAX@std@@AAPAU12@@std@@YAXAAPAU?$_Tree_node@U?$pair@$$CBVtype_id@luabind@@I@std@@PAX@0@0@Z PROC ; std::_Construct_in_place<std::_Tree_node<std::pair<luabind::type_id const ,unsigned int>,void *> *,std::_Tree_node<std::pair<luabind::type_id const ,unsigned int>,void *> * &>, COMDAT

; 224  :     is_nothrow_constructible_v<_Ty, _Types...>) {

	push	ebp
	mov	ebp, esp
	push	ecx
	mov	DWORD PTR [ebp-4], -858993460		; ccccccccH

; 225  : #if _HAS_CXX20
; 226  :     if (_STD is_constant_evaluated()) {
; 227  :         _STD construct_at(_STD addressof(_Obj), _STD forward<_Types>(_Args)...);
; 228  :     } else
; 229  : #endif // _HAS_CXX20
; 230  :     {
; 231  :         ::new (_Voidify_iter(_STD addressof(_Obj))) _Ty(_STD forward<_Types>(_Args)...);

	mov	eax, DWORD PTR __Obj$[ebp]
	push	eax
	call	??$addressof@PAU?$_Tree_node@U?$pair@$$CBVtype_id@luabind@@I@std@@PAX@std@@@std@@YAPAPAU?$_Tree_node@U?$pair@$$CBVtype_id@luabind@@I@std@@PAX@0@AAPAU10@@Z ; std::addressof<std::_Tree_node<std::pair<luabind::type_id const ,unsigned int>,void *> *>
	add	esp, 4
	push	eax
	call	??$_Voidify_iter@PAPAU?$_Tree_node@U?$pair@$$CBVtype_id@luabind@@I@std@@PAX@std@@@std@@YAPAXPAPAU?$_Tree_node@U?$pair@$$CBVtype_id@luabind@@I@std@@PAX@0@@Z ; std::_Voidify_iter<std::_Tree_node<std::pair<luabind::type_id const ,unsigned int>,void *> * *>
	add	esp, 4
	push	eax
	push	4
	call	??2@YAPAXIPAX@Z				; operator new
	add	esp, 8
	mov	DWORD PTR $T1[ebp], eax
	mov	ecx, DWORD PTR _<_Args_0>$[ebp]
	push	ecx
	call	??$forward@AAPAU?$_Tree_node@U?$pair@$$CBVtype_id@luabind@@I@std@@PAX@std@@@std@@YAAAPAU?$_Tree_node@U?$pair@$$CBVtype_id@luabind@@I@std@@PAX@0@AAPAU10@@Z ; std::forward<std::_Tree_node<std::pair<luabind::type_id const ,unsigned int>,void *> * &>
	add	esp, 4
	mov	edx, DWORD PTR $T1[ebp]
	mov	eax, DWORD PTR [eax]
	mov	DWORD PTR [edx], eax

; 232  :     }
; 233  : }

	add	esp, 4
	cmp	ebp, esp
	call	__RTC_CheckEsp
	mov	esp, ebp
	pop	ebp
	ret	0
??$_Construct_in_place@PAU?$_Tree_node@U?$pair@$$CBVtype_id@luabind@@I@std@@PAX@std@@AAPAU12@@std@@YAXAAPAU?$_Tree_node@U?$pair@$$CBVtype_id@luabind@@I@std@@PAX@0@0@Z ENDP ; std::_Construct_in_place<std::_Tree_node<std::pair<luabind::type_id const ,unsigned int>,void *> *,std::_Tree_node<std::pair<luabind::type_id const ,unsigned int>,void *> * &>
_TEXT	ENDS
; Function compile flags: /Odtp /RTCsu
; File C:\Program Files\Microsoft Visual Studio\2022\Community\VC\Tools\MSVC\14.34.31933\include\xmemory
;	COMDAT ??$construct@U?$pair@$$CBVtype_id@luabind@@I@std@@U?$pair@Vtype_id@luabind@@H@2@@?$_Default_allocator_traits@V?$allocator@U?$_Tree_node@U?$pair@$$CBVtype_id@luabind@@I@std@@PAX@std@@@std@@@std@@SAXAAV?$allocator@U?$_Tree_node@U?$pair@$$CBVtype_id@luabind@@I@std@@PAX@std@@@1@QAU?$pair@$$CBVtype_id@luabind@@I@1@$$QAU?$pair@Vtype_id@luabind@@H@1@@Z
_TEXT	SEGMENT
$T1 = -4						; size = 4
___formal$ = 8						; size = 4
__Ptr$ = 12						; size = 4
_<_Args_0>$ = 16					; size = 4
??$construct@U?$pair@$$CBVtype_id@luabind@@I@std@@U?$pair@Vtype_id@luabind@@H@2@@?$_Default_allocator_traits@V?$allocator@U?$_Tree_node@U?$pair@$$CBVtype_id@luabind@@I@std@@PAX@std@@@std@@@std@@SAXAAV?$allocator@U?$_Tree_node@U?$pair@$$CBVtype_id@luabind@@I@std@@PAX@std@@@1@QAU?$pair@$$CBVtype_id@luabind@@I@1@$$QAU?$pair@Vtype_id@luabind@@H@1@@Z PROC ; std::_Default_allocator_traits<std::allocator<std::_Tree_node<std::pair<luabind::type_id const ,unsigned int>,void *> > >::construct<std::pair<luabind::type_id const ,unsigned int>,std::pair<luabind::type_id,int> >, COMDAT

; 673  :     static _CONSTEXPR20 void construct(_Alloc&, _Objty* const _Ptr, _Types&&... _Args) {

	push	ebp
	mov	ebp, esp
	push	ecx
	mov	DWORD PTR [ebp-4], -858993460		; ccccccccH

; 674  : #if _HAS_CXX20
; 675  :         if (_STD is_constant_evaluated()) {
; 676  :             _STD construct_at(_Ptr, _STD forward<_Types>(_Args)...);
; 677  :         } else
; 678  : #endif // _HAS_CXX20
; 679  :         {
; 680  :             ::new (_Voidify_iter(_Ptr)) _Objty(_STD forward<_Types>(_Args)...);

	mov	eax, DWORD PTR __Ptr$[ebp]
	push	eax
	call	??$_Voidify_iter@PAU?$pair@$$CBVtype_id@luabind@@I@std@@@std@@YAPAXPAU?$pair@$$CBVtype_id@luabind@@I@0@@Z ; std::_Voidify_iter<std::pair<luabind::type_id const ,unsigned int> *>
	add	esp, 4
	push	eax
	push	8
	call	??2@YAPAXIPAX@Z				; operator new
	add	esp, 8
	mov	DWORD PTR $T1[ebp], eax
	mov	ecx, DWORD PTR _<_Args_0>$[ebp]
	push	ecx
	call	??$forward@U?$pair@Vtype_id@luabind@@H@std@@@std@@YA$$QAU?$pair@Vtype_id@luabind@@H@0@AAU10@@Z ; std::forward<std::pair<luabind::type_id,int> >
	add	esp, 4
	push	eax
	mov	ecx, DWORD PTR $T1[ebp]
	call	??$?0Vtype_id@luabind@@H$0A@@?$pair@$$CBVtype_id@luabind@@I@std@@QAE@$$QAU?$pair@Vtype_id@luabind@@H@1@@Z ; std::pair<luabind::type_id const ,unsigned int>::pair<luabind::type_id const ,unsigned int><luabind::type_id,int,0>

; 681  :         }
; 682  :     }

	add	esp, 4
	cmp	ebp, esp
	call	__RTC_CheckEsp
	mov	esp, ebp
	pop	ebp
	ret	0
??$construct@U?$pair@$$CBVtype_id@luabind@@I@std@@U?$pair@Vtype_id@luabind@@H@2@@?$_Default_allocator_traits@V?$allocator@U?$_Tree_node@U?$pair@$$CBVtype_id@luabind@@I@std@@PAX@std@@@std@@@std@@SAXAAV?$allocator@U?$_Tree_node@U?$pair@$$CBVtype_id@luabind@@I@std@@PAX@std@@@1@QAU?$pair@$$CBVtype_id@luabind@@I@1@$$QAU?$pair@Vtype_id@luabind@@H@1@@Z ENDP ; std::_Default_allocator_traits<std::allocator<std::_Tree_node<std::pair<luabind::type_id const ,unsigned int>,void *> > >::construct<std::pair<luabind::type_id const ,unsigned int>,std::pair<luabind::type_id,int> >
_TEXT	ENDS
; Function compile flags: /Odtp /RTCsu
; File C:\Program Files\Microsoft Visual Studio\2022\Community\VC\Tools\MSVC\14.34.31933\include\type_traits
;	COMDAT ??$forward@AAPAU?$_Tree_node@U?$pair@$$CBVtype_id@luabind@@I@std@@PAX@std@@@std@@YAAAPAU?$_Tree_node@U?$pair@$$CBVtype_id@luabind@@I@std@@PAX@0@AAPAU10@@Z
_TEXT	SEGMENT
__Arg$ = 8						; size = 4
??$forward@AAPAU?$_Tree_node@U?$pair@$$CBVtype_id@luabind@@I@std@@PAX@std@@@std@@YAAAPAU?$_Tree_node@U?$pair@$$CBVtype_id@luabind@@I@std@@PAX@0@AAPAU10@@Z PROC ; std::forward<std::_Tree_node<std::pair<luabind::type_id const ,unsigned int>,void *> * &>, COMDAT

; 1425 :     remove_reference_t<_Ty>& _Arg) noexcept { // forward an lvalue as either an lvalue or an rvalue

	push	ebp
	mov	ebp, esp

; 1426 :     return static_cast<_Ty&&>(_Arg);

	mov	eax, DWORD PTR __Arg$[ebp]

; 1427 : }

	pop	ebp
	ret	0
??$forward@AAPAU?$_Tree_node@U?$pair@$$CBVtype_id@luabind@@I@std@@PAX@std@@@std@@YAAAPAU?$_Tree_node@U?$pair@$$CBVtype_id@luabind@@I@std@@PAX@0@AAPAU10@@Z ENDP ; std::forward<std::_Tree_node<std::pair<luabind::type_id const ,unsigned int>,void *> * &>
_TEXT	ENDS
; Function compile flags: /Odtp /RTCsu
; File C:\Program Files\Microsoft Visual Studio\2022\Community\VC\Tools\MSVC\14.34.31933\include\xstddef
;	COMDAT ??$addressof@$$CBV?$_Vector_val@U?$_Simple_types@Ucast_entry@?A0x440dba7a@detail@luabind@@@std@@@std@@@std@@YAPBV?$_Vector_val@U?$_Simple_types@Ucast_entry@?A0x440dba7a@detail@luabind@@@std@@@0@ABV10@@Z
_TEXT	SEGMENT
__Val$ = 8						; size = 4
??$addressof@$$CBV?$_Vector_val@U?$_Simple_types@Ucast_entry@?A0x440dba7a@detail@luabind@@@std@@@std@@@std@@YAPBV?$_Vector_val@U?$_Simple_types@Ucast_entry@?A0x440dba7a@detail@luabind@@@std@@@0@ABV10@@Z PROC ; std::addressof<std::_Vector_val<std::_Simple_types<luabind::detail::`anonymous namespace'::cast_entry> > const >, COMDAT

; 280  : _NODISCARD constexpr _Ty* addressof(_Ty& _Val) noexcept {

	push	ebp
	mov	ebp, esp

; 281  :     return __builtin_addressof(_Val);

	mov	eax, DWORD PTR __Val$[ebp]

; 282  : }

	pop	ebp
	ret	0
??$addressof@$$CBV?$_Vector_val@U?$_Simple_types@Ucast_entry@?A0x440dba7a@detail@luabind@@@std@@@std@@@std@@YAPBV?$_Vector_val@U?$_Simple_types@Ucast_entry@?A0x440dba7a@detail@luabind@@@std@@@0@ABV10@@Z ENDP ; std::addressof<std::_Vector_val<std::_Simple_types<luabind::detail::`anonymous namespace'::cast_entry> > const >
_TEXT	ENDS
; Function compile flags: /Odtp /RTCsu
; File C:\Program Files\Microsoft Visual Studio\2022\Community\VC\Tools\MSVC\14.34.31933\include\utility
;	COMDAT ??$exchange@PAU?$_Tree_node@U?$pair@$$CBVtype_id@luabind@@I@std@@PAX@std@@$$T@std@@YAPAU?$_Tree_node@U?$pair@$$CBVtype_id@luabind@@I@std@@PAX@0@AAPAU10@$$QA$$T@Z
_TEXT	SEGMENT
__Old_val$ = -4						; size = 4
__Val$ = 8						; size = 4
__New_val$ = 12						; size = 4
??$exchange@PAU?$_Tree_node@U?$pair@$$CBVtype_id@luabind@@I@std@@PAX@std@@$$T@std@@YAPAU?$_Tree_node@U?$pair@$$CBVtype_id@luabind@@I@std@@PAX@0@AAPAU10@$$QA$$T@Z PROC ; std::exchange<std::_Tree_node<std::pair<luabind::type_id const ,unsigned int>,void *> *,std::nullptr_t>, COMDAT

; 651  :     conjunction_v<is_nothrow_move_constructible<_Ty>, is_nothrow_assignable<_Ty&, _Other>>) {

	push	ebp
	mov	ebp, esp
	push	ecx

; 652  :     // assign _New_val to _Val, return previous _Val
; 653  :     _Ty _Old_val = static_cast<_Ty&&>(_Val);

	mov	eax, DWORD PTR __Val$[ebp]
	mov	ecx, DWORD PTR [eax]
	mov	DWORD PTR __Old_val$[ebp], ecx

; 654  :     _Val         = static_cast<_Other&&>(_New_val);

	mov	edx, DWORD PTR __Val$[ebp]
	mov	eax, DWORD PTR __New_val$[ebp]
	mov	ecx, DWORD PTR [eax]
	mov	DWORD PTR [edx], ecx

; 655  :     return _Old_val;

	mov	eax, DWORD PTR __Old_val$[ebp]

; 656  : }

	mov	esp, ebp
	pop	ebp
	ret	0
??$exchange@PAU?$_Tree_node@U?$pair@$$CBVtype_id@luabind@@I@std@@PAX@std@@$$T@std@@YAPAU?$_Tree_node@U?$pair@$$CBVtype_id@luabind@@I@std@@PAX@0@AAPAU10@$$QA$$T@Z ENDP ; std::exchange<std::_Tree_node<std::pair<luabind::type_id const ,unsigned int>,void *> *,std::nullptr_t>
_TEXT	ENDS
; Function compile flags: /Odtp /RTCsu
; File C:\Program Files\Microsoft Visual Studio\2022\Community\VC\Tools\MSVC\14.34.31933\include\xmemory
;	COMDAT ??$destroy@U?$pair@$$CBVtype_id@luabind@@I@std@@@?$_Default_allocator_traits@V?$allocator@U?$_Tree_node@U?$pair@$$CBVtype_id@luabind@@I@std@@PAX@std@@@std@@@std@@SAXAAV?$allocator@U?$_Tree_node@U?$pair@$$CBVtype_id@luabind@@I@std@@PAX@std@@@1@QAU?$pair@$$CBVtype_id@luabind@@I@1@@Z
_TEXT	SEGMENT
___formal$ = 8						; size = 4
__Ptr$ = 12						; size = 4
??$destroy@U?$pair@$$CBVtype_id@luabind@@I@std@@@?$_Default_allocator_traits@V?$allocator@U?$_Tree_node@U?$pair@$$CBVtype_id@luabind@@I@std@@PAX@std@@@std@@@std@@SAXAAV?$allocator@U?$_Tree_node@U?$pair@$$CBVtype_id@luabind@@I@std@@PAX@std@@@1@QAU?$pair@$$CBVtype_id@luabind@@I@1@@Z PROC ; std::_Default_allocator_traits<std::allocator<std::_Tree_node<std::pair<luabind::type_id const ,unsigned int>,void *> > >::destroy<std::pair<luabind::type_id const ,unsigned int> >, COMDAT

; 685  :     static _CONSTEXPR20 void destroy(_Alloc&, _Uty* const _Ptr) {

	push	ebp
	mov	ebp, esp

; 686  : #if _HAS_CXX20
; 687  :         _STD destroy_at(_Ptr);
; 688  : #else // _HAS_CXX20
; 689  :         _Ptr->~_Uty();
; 690  : #endif // _HAS_CXX20
; 691  :     }

	pop	ebp
	ret	0
??$destroy@U?$pair@$$CBVtype_id@luabind@@I@std@@@?$_Default_allocator_traits@V?$allocator@U?$_Tree_node@U?$pair@$$CBVtype_id@luabind@@I@std@@PAX@std@@@std@@@std@@SAXAAV?$allocator@U?$_Tree_node@U?$pair@$$CBVtype_id@luabind@@I@std@@PAX@std@@@1@QAU?$pair@$$CBVtype_id@luabind@@I@1@@Z ENDP ; std::_Default_allocator_traits<std::allocator<std::_Tree_node<std::pair<luabind::type_id const ,unsigned int>,void *> > >::destroy<std::pair<luabind::type_id const ,unsigned int> >
_TEXT	ENDS
; Function compile flags: /Odtp /RTCsu
; File C:\Program Files\Microsoft Visual Studio\2022\Community\VC\Tools\MSVC\14.34.31933\include\xmemory
;	COMDAT ??$construct@PAVclass_rep@detail@luabind@@$$V@?$_Default_allocator_traits@V?$allocator@PAVclass_rep@detail@luabind@@@std@@@std@@SAXAAV?$allocator@PAVclass_rep@detail@luabind@@@1@QAPAVclass_rep@detail@luabind@@@Z
_TEXT	SEGMENT
$T1 = -8						; size = 4
$T2 = -4						; size = 4
___formal$ = 8						; size = 4
__Ptr$ = 12						; size = 4
??$construct@PAVclass_rep@detail@luabind@@$$V@?$_Default_allocator_traits@V?$allocator@PAVclass_rep@detail@luabind@@@std@@@std@@SAXAAV?$allocator@PAVclass_rep@detail@luabind@@@1@QAPAVclass_rep@detail@luabind@@@Z PROC ; std::_Default_allocator_traits<std::allocator<luabind::detail::class_rep *> >::construct<luabind::detail::class_rep *>, COMDAT

; 673  :     static _CONSTEXPR20 void construct(_Alloc&, _Objty* const _Ptr, _Types&&... _Args) {

	push	ebp
	mov	ebp, esp
	sub	esp, 8
	mov	DWORD PTR [ebp-8], -858993460		; ccccccccH
	mov	DWORD PTR [ebp-4], -858993460		; ccccccccH

; 674  : #if _HAS_CXX20
; 675  :         if (_STD is_constant_evaluated()) {
; 676  :             _STD construct_at(_Ptr, _STD forward<_Types>(_Args)...);
; 677  :         } else
; 678  : #endif // _HAS_CXX20
; 679  :         {
; 680  :             ::new (_Voidify_iter(_Ptr)) _Objty(_STD forward<_Types>(_Args)...);

	mov	DWORD PTR $T2[ebp], 4
	mov	eax, DWORD PTR __Ptr$[ebp]
	push	eax
	call	??$_Voidify_iter@PAPAVclass_rep@detail@luabind@@@std@@YAPAXPAPAVclass_rep@detail@luabind@@@Z ; std::_Voidify_iter<luabind::detail::class_rep * *>
	add	esp, 4
	push	eax
	mov	ecx, DWORD PTR $T2[ebp]
	push	ecx
	call	??2@YAPAXIPAX@Z				; operator new
	add	esp, 8
	mov	DWORD PTR $T1[ebp], eax
	mov	edx, DWORD PTR $T2[ebp]
	push	edx
	push	0
	mov	eax, DWORD PTR $T1[ebp]
	push	eax
	call	_memset
	add	esp, 12					; 0000000cH

; 681  :         }
; 682  :     }

	add	esp, 8
	cmp	ebp, esp
	call	__RTC_CheckEsp
	mov	esp, ebp
	pop	ebp
	ret	0
??$construct@PAVclass_rep@detail@luabind@@$$V@?$_Default_allocator_traits@V?$allocator@PAVclass_rep@detail@luabind@@@std@@@std@@SAXAAV?$allocator@PAVclass_rep@detail@luabind@@@1@QAPAVclass_rep@detail@luabind@@@Z ENDP ; std::_Default_allocator_traits<std::allocator<luabind::detail::class_rep *> >::construct<luabind::detail::class_rep *>
_TEXT	ENDS
; Function compile flags: /Odtp /RTCsu
; File C:\Program Files\Microsoft Visual Studio\2022\Community\VC\Tools\MSVC\14.34.31933\include\xutility
;	COMDAT ??$_To_address@PAPAVclass_rep@detail@luabind@@@std@@YA?A_PABQAPAVclass_rep@detail@luabind@@@Z
_TEXT	SEGMENT
__Val$ = 8						; size = 4
??$_To_address@PAPAVclass_rep@detail@luabind@@@std@@YA?A_PABQAPAVclass_rep@detail@luabind@@@Z PROC ; std::_To_address<luabind::detail::class_rep * *>, COMDAT

; 3712 : _NODISCARD constexpr auto _To_address(const _Iter& _Val) noexcept {

	push	ebp
	mov	ebp, esp

; 3713 :     _STL_INTERNAL_STATIC_ASSERT(is_pointer_v<_Iter>);
; 3714 :     return _Val;

	mov	eax, DWORD PTR __Val$[ebp]
	mov	eax, DWORD PTR [eax]

; 3715 : }

	pop	ebp
	ret	0
??$_To_address@PAPAVclass_rep@detail@luabind@@@std@@YA?A_PABQAPAVclass_rep@detail@luabind@@@Z ENDP ; std::_To_address<luabind::detail::class_rep * *>
_TEXT	ENDS
; Function compile flags: /Odtp /RTCsu
; File C:\Program Files\Microsoft Visual Studio\2022\Community\VC\Tools\MSVC\14.34.31933\include\xmemory
;	COMDAT ??$_Emplace_back@PAVclass_rep@detail@luabind@@@?$_Uninitialized_backout_al@V?$allocator@PAVclass_rep@detail@luabind@@@std@@@std@@QAEX$$QAPAVclass_rep@detail@luabind@@@Z
_TEXT	SEGMENT
_this$ = -4						; size = 4
_<_Vals_0>$ = 8						; size = 4
??$_Emplace_back@PAVclass_rep@detail@luabind@@@?$_Uninitialized_backout_al@V?$allocator@PAVclass_rep@detail@luabind@@@std@@@std@@QAEX$$QAPAVclass_rep@detail@luabind@@@Z PROC ; std::_Uninitialized_backout_al<std::allocator<luabind::detail::class_rep *> >::_Emplace_back<luabind::detail::class_rep *>, COMDAT
; _this$ = ecx

; 1662 :     _CONSTEXPR20 void _Emplace_back(_Types&&... _Vals) { // construct a new element at *_Last and increment

	push	ebp
	mov	ebp, esp
	push	ecx
	mov	DWORD PTR [ebp-4], -858993460		; ccccccccH
	mov	DWORD PTR _this$[ebp], ecx

; 1663 :         allocator_traits<_Alloc>::construct(_Al, _Unfancy(_Last), _STD forward<_Types>(_Vals)...);

	mov	eax, DWORD PTR _<_Vals_0>$[ebp]
	push	eax
	call	??$forward@PAVclass_rep@detail@luabind@@@std@@YA$$QAPAVclass_rep@detail@luabind@@AAPAV123@@Z ; std::forward<luabind::detail::class_rep *>
	add	esp, 4
	push	eax
	mov	ecx, DWORD PTR _this$[ebp]
	mov	edx, DWORD PTR [ecx+4]
	push	edx
	call	??$_Unfancy@PAVclass_rep@detail@luabind@@@std@@YAPAPAVclass_rep@detail@luabind@@PAPAV123@@Z ; std::_Unfancy<luabind::detail::class_rep *>
	add	esp, 4
	push	eax
	mov	eax, DWORD PTR _this$[ebp]
	mov	ecx, DWORD PTR [eax+8]
	push	ecx
	call	??$construct@PAVclass_rep@detail@luabind@@PAV123@@?$_Default_allocator_traits@V?$allocator@PAVclass_rep@detail@luabind@@@std@@@std@@SAXAAV?$allocator@PAVclass_rep@detail@luabind@@@1@QAPAVclass_rep@detail@luabind@@$$QAPAV345@@Z ; std::_Default_allocator_traits<std::allocator<luabind::detail::class_rep *> >::construct<luabind::detail::class_rep *,luabind::detail::class_rep *>
	add	esp, 12					; 0000000cH

; 1664 :         ++_Last;

	mov	edx, DWORD PTR _this$[ebp]
	mov	eax, DWORD PTR [edx+4]
	add	eax, 4
	mov	ecx, DWORD PTR _this$[ebp]
	mov	DWORD PTR [ecx+4], eax

; 1665 :     }

	add	esp, 4
	cmp	ebp, esp
	call	__RTC_CheckEsp
	mov	esp, ebp
	pop	ebp
	ret	4
??$_Emplace_back@PAVclass_rep@detail@luabind@@@?$_Uninitialized_backout_al@V?$allocator@PAVclass_rep@detail@luabind@@@std@@@std@@QAEX$$QAPAVclass_rep@detail@luabind@@@Z ENDP ; std::_Uninitialized_backout_al<std::allocator<luabind::detail::class_rep *> >::_Emplace_back<luabind::detail::class_rep *>
_TEXT	ENDS
; Function compile flags: /Odtp /RTCsu
; File C:\Program Files\Microsoft Visual Studio\2022\Community\VC\Tools\MSVC\14.34.31933\include\xutility
;	COMDAT ??$_Copy_memmove@PAPAVclass_rep@detail@luabind@@PAPAV123@@std@@YAPAPAVclass_rep@detail@luabind@@PAPAV123@00@Z
_TEXT	SEGMENT
__Count$ = -28						; size = 4
__Dest_ch$ = -24					; size = 4
__Last_ch$ = -20					; size = 4
__First_ch$ = -16					; size = 4
__DestPtr$ = -12					; size = 4
__LastPtr$ = -8						; size = 4
__FirstPtr$ = -4					; size = 4
__First$ = 8						; size = 4
__Last$ = 12						; size = 4
__Dest$ = 16						; size = 4
??$_Copy_memmove@PAPAVclass_rep@detail@luabind@@PAPAV123@@std@@YAPAPAVclass_rep@detail@luabind@@PAPAV123@00@Z PROC ; std::_Copy_memmove<luabind::detail::class_rep * *,luabind::detail::class_rep * *>, COMDAT

; 3833 : _OutCtgIt _Copy_memmove(_CtgIt _First, _CtgIt _Last, _OutCtgIt _Dest) {

	push	ebp
	mov	ebp, esp
	sub	esp, 28					; 0000001cH
	mov	eax, -858993460				; ccccccccH
	mov	DWORD PTR [ebp-28], eax
	mov	DWORD PTR [ebp-24], eax
	mov	DWORD PTR [ebp-20], eax
	mov	DWORD PTR [ebp-16], eax
	mov	DWORD PTR [ebp-12], eax
	mov	DWORD PTR [ebp-8], eax
	mov	DWORD PTR [ebp-4], eax

; 3834 :     auto _FirstPtr              = _To_address(_First);

	lea	eax, DWORD PTR __First$[ebp]
	push	eax
	call	??$_To_address@PAPAVclass_rep@detail@luabind@@@std@@YA?A_PABQAPAVclass_rep@detail@luabind@@@Z ; std::_To_address<luabind::detail::class_rep * *>
	add	esp, 4
	mov	DWORD PTR __FirstPtr$[ebp], eax

; 3835 :     auto _LastPtr               = _To_address(_Last);

	lea	ecx, DWORD PTR __Last$[ebp]
	push	ecx
	call	??$_To_address@PAPAVclass_rep@detail@luabind@@@std@@YA?A_PABQAPAVclass_rep@detail@luabind@@@Z ; std::_To_address<luabind::detail::class_rep * *>
	add	esp, 4
	mov	DWORD PTR __LastPtr$[ebp], eax

; 3836 :     auto _DestPtr               = _To_address(_Dest);

	lea	edx, DWORD PTR __Dest$[ebp]
	push	edx
	call	??$_To_address@PAPAVclass_rep@detail@luabind@@@std@@YA?A_PABQAPAVclass_rep@detail@luabind@@@Z ; std::_To_address<luabind::detail::class_rep * *>
	add	esp, 4
	mov	DWORD PTR __DestPtr$[ebp], eax

; 3837 :     const char* const _First_ch = const_cast<const char*>(reinterpret_cast<const volatile char*>(_FirstPtr));

	mov	eax, DWORD PTR __FirstPtr$[ebp]
	mov	DWORD PTR __First_ch$[ebp], eax

; 3838 :     const char* const _Last_ch  = const_cast<const char*>(reinterpret_cast<const volatile char*>(_LastPtr));

	mov	ecx, DWORD PTR __LastPtr$[ebp]
	mov	DWORD PTR __Last_ch$[ebp], ecx

; 3839 :     char* const _Dest_ch        = const_cast<char*>(reinterpret_cast<const volatile char*>(_DestPtr));

	mov	edx, DWORD PTR __DestPtr$[ebp]
	mov	DWORD PTR __Dest_ch$[ebp], edx

; 3840 :     const auto _Count           = static_cast<size_t>(_Last_ch - _First_ch);

	mov	eax, DWORD PTR __Last_ch$[ebp]
	sub	eax, DWORD PTR __First_ch$[ebp]
	mov	DWORD PTR __Count$[ebp], eax

; 3841 :     _CSTD memmove(_Dest_ch, _First_ch, _Count);

	mov	ecx, DWORD PTR __Count$[ebp]
	push	ecx
	mov	edx, DWORD PTR __First_ch$[ebp]
	push	edx
	mov	eax, DWORD PTR __Dest_ch$[ebp]
	push	eax
	call	_memmove
	add	esp, 12					; 0000000cH

; 3842 :     if constexpr (is_pointer_v<_OutCtgIt>) {
; 3843 :         return reinterpret_cast<_OutCtgIt>(_Dest_ch + _Count);

	mov	eax, DWORD PTR __Dest_ch$[ebp]
	add	eax, DWORD PTR __Count$[ebp]

; 3844 :     } else {
; 3845 :         return _Dest + (_LastPtr - _FirstPtr);
; 3846 :     }
; 3847 : }

	add	esp, 28					; 0000001cH
	cmp	ebp, esp
	call	__RTC_CheckEsp
	mov	esp, ebp
	pop	ebp
	ret	0
??$_Copy_memmove@PAPAVclass_rep@detail@luabind@@PAPAV123@@std@@YAPAPAVclass_rep@detail@luabind@@PAPAV123@00@Z ENDP ; std::_Copy_memmove<luabind::detail::class_rep * *,luabind::detail::class_rep * *>
_TEXT	ENDS
; Function compile flags: /Odtp /RTCsu
; File C:\Program Files\Microsoft Visual Studio\2022\Community\VC\Tools\MSVC\14.34.31933\include\type_traits
;	COMDAT ??$move@AAPAVclass_rep@detail@luabind@@@std@@YA$$QAPAVclass_rep@detail@luabind@@AAPAV123@@Z
_TEXT	SEGMENT
__Arg$ = 8						; size = 4
??$move@AAPAVclass_rep@detail@luabind@@@std@@YA$$QAPAVclass_rep@detail@luabind@@AAPAV123@@Z PROC ; std::move<luabind::detail::class_rep * &>, COMDAT

; 1436 : _NODISCARD constexpr remove_reference_t<_Ty>&& move(_Ty&& _Arg) noexcept { // forward _Arg as movable

	push	ebp
	mov	ebp, esp

; 1437 :     return static_cast<remove_reference_t<_Ty>&&>(_Arg);

	mov	eax, DWORD PTR __Arg$[ebp]

; 1438 : }

	pop	ebp
	ret	0
??$move@AAPAVclass_rep@detail@luabind@@@std@@YA$$QAPAVclass_rep@detail@luabind@@AAPAV123@@Z ENDP ; std::move<luabind::detail::class_rep * &>
_TEXT	ENDS
; Function compile flags: /Odtp /RTCsu
; File C:\Program Files\Microsoft Visual Studio\2022\Community\VC\Tools\MSVC\14.34.31933\include\xutility
;	COMDAT ??$_Get_unwrapped@ABQAPAVclass_rep@detail@luabind@@@std@@YA?A_TABQAPAVclass_rep@detail@luabind@@@Z
_TEXT	SEGMENT
__It$ = 8						; size = 4
??$_Get_unwrapped@ABQAPAVclass_rep@detail@luabind@@@std@@YA?A_TABQAPAVclass_rep@detail@luabind@@@Z PROC ; std::_Get_unwrapped<luabind::detail::class_rep * * const &>, COMDAT

; 911  :     !_Unwrappable_v<_Iter> || _Has_nothrow_unwrapped<_Iter>) {

	push	ebp
	mov	ebp, esp

; 912  :     // unwrap an iterator previously subjected to _Adl_verify_range or otherwise validated
; 913  :     if constexpr (is_pointer_v<decay_t<_Iter>>) { // special-case pointers and arrays
; 914  :         return _It + 0;

	mov	eax, DWORD PTR __It$[ebp]
	mov	eax, DWORD PTR [eax]

; 915  :     } else if constexpr (_Unwrappable_v<_Iter>) {
; 916  :         return static_cast<_Iter&&>(_It)._Unwrapped();
; 917  :     } else {
; 918  :         return static_cast<_Iter&&>(_It);
; 919  :     }
; 920  : }

	pop	ebp
	ret	0
??$_Get_unwrapped@ABQAPAVclass_rep@detail@luabind@@@std@@YA?A_TABQAPAVclass_rep@detail@luabind@@@Z ENDP ; std::_Get_unwrapped<luabind::detail::class_rep * * const &>
_TEXT	ENDS
; Function compile flags: /Odtp /RTCsu
; File C:\Program Files\Microsoft Visual Studio\2022\Community\VC\Tools\MSVC\14.34.31933\include\type_traits
;	COMDAT ??$forward@AAPAU?$_Tree_node@U?$pair@QBDH@std@@PAX@std@@@std@@YAAAPAU?$_Tree_node@U?$pair@QBDH@std@@PAX@0@AAPAU10@@Z
_TEXT	SEGMENT
__Arg$ = 8						; size = 4
??$forward@AAPAU?$_Tree_node@U?$pair@QBDH@std@@PAX@std@@@std@@YAAAPAU?$_Tree_node@U?$pair@QBDH@std@@PAX@0@AAPAU10@@Z PROC ; std::forward<std::_Tree_node<std::pair<char const * const,int>,void *> * &>, COMDAT

; 1425 :     remove_reference_t<_Ty>& _Arg) noexcept { // forward an lvalue as either an lvalue or an rvalue

	push	ebp
	mov	ebp, esp

; 1426 :     return static_cast<_Ty&&>(_Arg);

	mov	eax, DWORD PTR __Arg$[ebp]

; 1427 : }

	pop	ebp
	ret	0
??$forward@AAPAU?$_Tree_node@U?$pair@QBDH@std@@PAX@std@@@std@@YAAAPAU?$_Tree_node@U?$pair@QBDH@std@@PAX@0@AAPAU10@@Z ENDP ; std::forward<std::_Tree_node<std::pair<char const * const,int>,void *> * &>
_TEXT	ENDS
; Function compile flags: /Odtp /RTCsu
; File C:\Program Files\Microsoft Visual Studio\2022\Community\VC\Tools\MSVC\14.34.31933\include\utility
;	COMDAT ??$?0ABQBD$$Z$$V@?$pair@QBDH@std@@QAE@Upiecewise_construct_t@1@V?$tuple@ABQBD@1@V?$tuple@$$V@1@@Z
_TEXT	SEGMENT
$T1 = -6						; size = 1
$T2 = -5						; size = 1
_this$ = -4						; size = 4
___formal$ = 8						; size = 1
__Val1$ = 12						; size = 4
__Val2$ = 16						; size = 1
??$?0ABQBD$$Z$$V@?$pair@QBDH@std@@QAE@Upiecewise_construct_t@1@V?$tuple@ABQBD@1@V?$tuple@$$V@1@@Z PROC ; std::pair<char const * const,int>::pair<char const * const,int><char const * const &>, COMDAT
; _this$ = ecx

; 218  :         : pair(_Val1, _Val2, index_sequence_for<_Types1...>{}, index_sequence_for<_Types2...>{}) {}

	push	ebp
	mov	ebp, esp
	sub	esp, 8
	mov	DWORD PTR [ebp-8], -858993460		; ccccccccH
	mov	DWORD PTR [ebp-4], -858993460		; ccccccccH
	mov	DWORD PTR _this$[ebp], ecx
	xor	eax, eax
	mov	BYTE PTR $T2[ebp], al
	xor	ecx, ecx
	mov	BYTE PTR $T1[ebp], cl
	movzx	edx, BYTE PTR $T2[ebp]
	push	edx
	movzx	eax, BYTE PTR $T1[ebp]
	push	eax
	lea	ecx, DWORD PTR __Val2$[ebp]
	push	ecx
	lea	edx, DWORD PTR __Val1$[ebp]
	push	edx
	mov	ecx, DWORD PTR _this$[ebp]
	call	??$?0V?$tuple@ABQBD@std@@V?$tuple@$$V@1@$0A@$$Z$S@?$pair@QBDH@std@@QAE@AAV?$tuple@ABQBD@1@AAV?$tuple@$$V@1@U?$integer_sequence@I$0A@@1@U?$integer_sequence@I$S@1@@Z ; std::pair<char const * const,int>::pair<char const * const,int><std::tuple<char const * const &>,std::tuple<>,0>
	mov	eax, DWORD PTR _this$[ebp]
	add	esp, 8
	cmp	ebp, esp
	call	__RTC_CheckEsp
	mov	esp, ebp
	pop	ebp
	ret	12					; 0000000cH
??$?0ABQBD$$Z$$V@?$pair@QBDH@std@@QAE@Upiecewise_construct_t@1@V?$tuple@ABQBD@1@V?$tuple@$$V@1@@Z ENDP ; std::pair<char const * const,int>::pair<char const * const,int><char const * const &>
_TEXT	ENDS
; Function compile flags: /Odtp /RTCsu
; File C:\Program Files\Microsoft Visual Studio\2022\Community\VC\Tools\MSVC\14.34.31933\include\xutility
;	COMDAT ??$_Voidify_iter@PAU?$pair@QBDH@std@@@std@@YAPAXPAU?$pair@QBDH@0@@Z
_TEXT	SEGMENT
__It$ = 8						; size = 4
??$_Voidify_iter@PAU?$pair@QBDH@std@@@std@@YAPAXPAU?$pair@QBDH@0@@Z PROC ; std::_Voidify_iter<std::pair<char const * const,int> *>, COMDAT

; 200  : _NODISCARD constexpr void* _Voidify_iter(_Iter _It) noexcept {

	push	ebp
	mov	ebp, esp

; 201  :     if constexpr (is_pointer_v<_Iter>) {
; 202  :         return const_cast<void*>(static_cast<const volatile void*>(_It));

	mov	eax, DWORD PTR __It$[ebp]

; 203  :     } else {
; 204  :         return const_cast<void*>(static_cast<const volatile void*>(_STD addressof(*_It)));
; 205  :     }
; 206  : }

	pop	ebp
	ret	0
??$_Voidify_iter@PAU?$pair@QBDH@std@@@std@@YAPAXPAU?$pair@QBDH@0@@Z ENDP ; std::_Voidify_iter<std::pair<char const * const,int> *>
_TEXT	ENDS
; Function compile flags: /Odtp /RTCsu
; File C:\Program Files\Microsoft Visual Studio\2022\Community\VC\Tools\MSVC\14.34.31933\include\tuple
;	COMDAT ??$?0U_Exact_args_t@std@@ABQBD$$V$0A@@?$tuple@ABQBD@std@@QAE@U_Exact_args_t@1@ABQBD@Z
_TEXT	SEGMENT
$T1 = -5						; size = 1
_this$ = -4						; size = 4
___formal$ = 8						; size = 1
__This_arg$ = 12					; size = 4
??$?0U_Exact_args_t@std@@ABQBD$$V$0A@@?$tuple@ABQBD@std@@QAE@U_Exact_args_t@1@ABQBD@Z PROC ; std::tuple<char const * const &>::tuple<char const * const &><std::_Exact_args_t,char const * const &,0>, COMDAT
; _this$ = ecx

; 239  :         : _Mybase(_Exact_args_t{}, _STD forward<_Rest2>(_Rest_arg)...), _Myfirst(_STD forward<_This2>(_This_arg)) {}

	push	ebp
	mov	ebp, esp
	sub	esp, 8
	mov	DWORD PTR [ebp-8], -858993460		; ccccccccH
	mov	DWORD PTR [ebp-4], -858993460		; ccccccccH
	mov	DWORD PTR _this$[ebp], ecx
	movzx	eax, BYTE PTR $T1[ebp]
	push	eax
	mov	ecx, DWORD PTR _this$[ebp]
	call	??$?0U_Exact_args_t@std@@$0A@@?$tuple@$$V@std@@QAE@U_Exact_args_t@1@@Z ; std::tuple<>::tuple<><std::_Exact_args_t,0>
	mov	ecx, DWORD PTR __This_arg$[ebp]
	push	ecx
	call	??$forward@ABQBD@std@@YAABQBDABQBD@Z	; std::forward<char const * const &>
	add	esp, 4
	push	eax
	mov	ecx, DWORD PTR _this$[ebp]
	call	??$?0ABQBD@?$_Tuple_val@ABQBD@std@@QAE@ABQBD@Z ; std::_Tuple_val<char const * const &>::_Tuple_val<char const * const &><char const * const &>
	mov	eax, DWORD PTR _this$[ebp]
	add	esp, 8
	cmp	ebp, esp
	call	__RTC_CheckEsp
	mov	esp, ebp
	pop	ebp
	ret	8
??$?0U_Exact_args_t@std@@ABQBD$$V$0A@@?$tuple@ABQBD@std@@QAE@U_Exact_args_t@1@ABQBD@Z ENDP ; std::tuple<char const * const &>::tuple<char const * const &><std::_Exact_args_t,char const * const &,0>
_TEXT	ENDS
; Function compile flags: /Odtp /RTCsu
; File C:\Program Files\Microsoft Visual Studio\2022\Community\VC\Tools\MSVC\14.34.31933\include\xmemory
;	COMDAT ??$_Emplace_back@U?$pair@Vtype_id@luabind@@P6APAXPAX@Z@std@@@?$_Uninitialized_backout_al@V?$allocator@U?$pair@Vtype_id@luabind@@P6APAXPAX@Z@std@@@std@@@std@@QAEX$$QAU?$pair@Vtype_id@luabind@@P6APAXPAX@Z@1@@Z
_TEXT	SEGMENT
_this$ = -4						; size = 4
_<_Vals_0>$ = 8						; size = 4
??$_Emplace_back@U?$pair@Vtype_id@luabind@@P6APAXPAX@Z@std@@@?$_Uninitialized_backout_al@V?$allocator@U?$pair@Vtype_id@luabind@@P6APAXPAX@Z@std@@@std@@@std@@QAEX$$QAU?$pair@Vtype_id@luabind@@P6APAXPAX@Z@1@@Z PROC ; std::_Uninitialized_backout_al<std::allocator<std::pair<luabind::type_id,void * (__cdecl*)(void *)> > >::_Emplace_back<std::pair<luabind::type_id,void * (__cdecl*)(void *)> >, COMDAT
; _this$ = ecx

; 1662 :     _CONSTEXPR20 void _Emplace_back(_Types&&... _Vals) { // construct a new element at *_Last and increment

	push	ebp
	mov	ebp, esp
	push	ecx
	mov	DWORD PTR [ebp-4], -858993460		; ccccccccH
	mov	DWORD PTR _this$[ebp], ecx

; 1663 :         allocator_traits<_Alloc>::construct(_Al, _Unfancy(_Last), _STD forward<_Types>(_Vals)...);

	mov	eax, DWORD PTR _<_Vals_0>$[ebp]
	push	eax
	call	??$forward@U?$pair@Vtype_id@luabind@@P6APAXPAX@Z@std@@@std@@YA$$QAU?$pair@Vtype_id@luabind@@P6APAXPAX@Z@0@AAU10@@Z ; std::forward<std::pair<luabind::type_id,void * (__cdecl*)(void *)> >
	add	esp, 4
	push	eax
	mov	ecx, DWORD PTR _this$[ebp]
	mov	edx, DWORD PTR [ecx+4]
	push	edx
	call	??$_Unfancy@U?$pair@Vtype_id@luabind@@P6APAXPAX@Z@std@@@std@@YAPAU?$pair@Vtype_id@luabind@@P6APAXPAX@Z@0@PAU10@@Z ; std::_Unfancy<std::pair<luabind::type_id,void * (__cdecl*)(void *)> >
	add	esp, 4
	push	eax
	mov	eax, DWORD PTR _this$[ebp]
	mov	ecx, DWORD PTR [eax+8]
	push	ecx
	call	??$construct@U?$pair@Vtype_id@luabind@@P6APAXPAX@Z@std@@U12@@?$_Default_allocator_traits@V?$allocator@U?$pair@Vtype_id@luabind@@P6APAXPAX@Z@std@@@std@@@std@@SAXAAV?$allocator@U?$pair@Vtype_id@luabind@@P6APAXPAX@Z@std@@@1@QAU?$pair@Vtype_id@luabind@@P6APAXPAX@Z@1@$$QAU31@@Z ; std::_Default_allocator_traits<std::allocator<std::pair<luabind::type_id,void * (__cdecl*)(void *)> > >::construct<std::pair<luabind::type_id,void * (__cdecl*)(void *)>,std::pair<luabind::type_id,void * (__cdecl*)(void *)> >
	add	esp, 12					; 0000000cH

; 1664 :         ++_Last;

	mov	edx, DWORD PTR _this$[ebp]
	mov	eax, DWORD PTR [edx+4]
	add	eax, 8
	mov	ecx, DWORD PTR _this$[ebp]
	mov	DWORD PTR [ecx+4], eax

; 1665 :     }

	add	esp, 4
	cmp	ebp, esp
	call	__RTC_CheckEsp
	mov	esp, ebp
	pop	ebp
	ret	4
??$_Emplace_back@U?$pair@Vtype_id@luabind@@P6APAXPAX@Z@std@@@?$_Uninitialized_backout_al@V?$allocator@U?$pair@Vtype_id@luabind@@P6APAXPAX@Z@std@@@std@@@std@@QAEX$$QAU?$pair@Vtype_id@luabind@@P6APAXPAX@Z@1@@Z ENDP ; std::_Uninitialized_backout_al<std::allocator<std::pair<luabind::type_id,void * (__cdecl*)(void *)> > >::_Emplace_back<std::pair<luabind::type_id,void * (__cdecl*)(void *)> >
_TEXT	ENDS
; Function compile flags: /Odtp /RTCsu
; File C:\Program Files\Microsoft Visual Studio\2022\Community\VC\Tools\MSVC\14.34.31933\include\xmemory
;	COMDAT ?_Release@?$_Uninitialized_backout_al@V?$allocator@U?$pair@Vtype_id@luabind@@P6APAXPAX@Z@std@@@std@@@std@@QAEPAU?$pair@Vtype_id@luabind@@P6APAXPAX@Z@2@XZ
_TEXT	SEGMENT
_this$ = -4						; size = 4
?_Release@?$_Uninitialized_backout_al@V?$allocator@U?$pair@Vtype_id@luabind@@P6APAXPAX@Z@std@@@std@@@std@@QAEPAU?$pair@Vtype_id@luabind@@P6APAXPAX@Z@2@XZ PROC ; std::_Uninitialized_backout_al<std::allocator<std::pair<luabind::type_id,void * (__cdecl*)(void *)> > >::_Release, COMDAT
; _this$ = ecx

; 1667 :     constexpr pointer _Release() { // suppress any exception handling backout and return _Last

	push	ebp
	mov	ebp, esp
	push	ecx
	mov	DWORD PTR _this$[ebp], ecx

; 1668 :         _First = _Last;

	mov	eax, DWORD PTR _this$[ebp]
	mov	ecx, DWORD PTR _this$[ebp]
	mov	edx, DWORD PTR [ecx+4]
	mov	DWORD PTR [eax], edx

; 1669 :         return _Last;

	mov	eax, DWORD PTR _this$[ebp]
	mov	eax, DWORD PTR [eax+4]

; 1670 :     }

	mov	esp, ebp
	pop	ebp
	ret	0
?_Release@?$_Uninitialized_backout_al@V?$allocator@U?$pair@Vtype_id@luabind@@P6APAXPAX@Z@std@@@std@@@std@@QAEPAU?$pair@Vtype_id@luabind@@P6APAXPAX@Z@2@XZ ENDP ; std::_Uninitialized_backout_al<std::allocator<std::pair<luabind::type_id,void * (__cdecl*)(void *)> > >::_Release
_TEXT	ENDS
; Function compile flags: /Odtp /RTCsu
; File C:\Program Files\Microsoft Visual Studio\2022\Community\VC\Tools\MSVC\14.34.31933\include\xmemory
;	COMDAT ??1?$_Uninitialized_backout_al@V?$allocator@U?$pair@Vtype_id@luabind@@P6APAXPAX@Z@std@@@std@@@std@@QAE@XZ
_TEXT	SEGMENT
_this$ = -4						; size = 4
??1?$_Uninitialized_backout_al@V?$allocator@U?$pair@Vtype_id@luabind@@P6APAXPAX@Z@std@@@std@@@std@@QAE@XZ PROC ; std::_Uninitialized_backout_al<std::allocator<std::pair<luabind::type_id,void * (__cdecl*)(void *)> > >::~_Uninitialized_backout_al<std::allocator<std::pair<luabind::type_id,void * (__cdecl*)(void *)> > >, COMDAT
; _this$ = ecx

; 1657 :     _CONSTEXPR20 ~_Uninitialized_backout_al() {

	push	ebp
	mov	ebp, esp
	push	ecx
	mov	DWORD PTR [ebp-4], -858993460		; ccccccccH
	mov	DWORD PTR _this$[ebp], ecx

; 1658 :         _Destroy_range(_First, _Last, _Al);

	mov	eax, DWORD PTR _this$[ebp]
	mov	ecx, DWORD PTR [eax+8]
	push	ecx
	mov	edx, DWORD PTR _this$[ebp]
	mov	eax, DWORD PTR [edx+4]
	push	eax
	mov	ecx, DWORD PTR _this$[ebp]
	mov	edx, DWORD PTR [ecx]
	push	edx
	call	??$_Destroy_range@V?$allocator@U?$pair@Vtype_id@luabind@@P6APAXPAX@Z@std@@@std@@@std@@YAXPAU?$pair@Vtype_id@luabind@@P6APAXPAX@Z@0@QAU10@AAV?$allocator@U?$pair@Vtype_id@luabind@@P6APAXPAX@Z@std@@@0@@Z ; std::_Destroy_range<std::allocator<std::pair<luabind::type_id,void * (__cdecl*)(void *)> > >
	add	esp, 12					; 0000000cH

; 1659 :     }

	add	esp, 4
	cmp	ebp, esp
	call	__RTC_CheckEsp
	mov	esp, ebp
	pop	ebp
	ret	0
??1?$_Uninitialized_backout_al@V?$allocator@U?$pair@Vtype_id@luabind@@P6APAXPAX@Z@std@@@std@@@std@@QAE@XZ ENDP ; std::_Uninitialized_backout_al<std::allocator<std::pair<luabind::type_id,void * (__cdecl*)(void *)> > >::~_Uninitialized_backout_al<std::allocator<std::pair<luabind::type_id,void * (__cdecl*)(void *)> > >
_TEXT	ENDS
; Function compile flags: /Odtp /RTCsu
; File C:\Program Files\Microsoft Visual Studio\2022\Community\VC\Tools\MSVC\14.34.31933\include\xmemory
;	COMDAT ??0?$_Uninitialized_backout_al@V?$allocator@U?$pair@Vtype_id@luabind@@P6APAXPAX@Z@std@@@std@@@std@@QAE@PAU?$pair@Vtype_id@luabind@@P6APAXPAX@Z@1@AAV?$allocator@U?$pair@Vtype_id@luabind@@P6APAXPAX@Z@std@@@1@@Z
_TEXT	SEGMENT
_this$ = -4						; size = 4
__Dest$ = 8						; size = 4
__Al_$ = 12						; size = 4
??0?$_Uninitialized_backout_al@V?$allocator@U?$pair@Vtype_id@luabind@@P6APAXPAX@Z@std@@@std@@@std@@QAE@PAU?$pair@Vtype_id@luabind@@P6APAXPAX@Z@1@AAV?$allocator@U?$pair@Vtype_id@luabind@@P6APAXPAX@Z@std@@@1@@Z PROC ; std::_Uninitialized_backout_al<std::allocator<std::pair<luabind::type_id,void * (__cdecl*)(void *)> > >::_Uninitialized_backout_al<std::allocator<std::pair<luabind::type_id,void * (__cdecl*)(void *)> > >, COMDAT
; _this$ = ecx

; 1652 :     _CONSTEXPR20 _Uninitialized_backout_al(pointer _Dest, _Alloc& _Al_) : _First(_Dest), _Last(_Dest), _Al(_Al_) {}

	push	ebp
	mov	ebp, esp
	push	ecx
	mov	DWORD PTR _this$[ebp], ecx
	mov	eax, DWORD PTR _this$[ebp]
	mov	ecx, DWORD PTR __Dest$[ebp]
	mov	DWORD PTR [eax], ecx
	mov	edx, DWORD PTR _this$[ebp]
	mov	eax, DWORD PTR __Dest$[ebp]
	mov	DWORD PTR [edx+4], eax
	mov	ecx, DWORD PTR _this$[ebp]
	mov	edx, DWORD PTR __Al_$[ebp]
	mov	DWORD PTR [ecx+8], edx
	mov	eax, DWORD PTR _this$[ebp]
	mov	esp, ebp
	pop	ebp
	ret	8
??0?$_Uninitialized_backout_al@V?$allocator@U?$pair@Vtype_id@luabind@@P6APAXPAX@Z@std@@@std@@@std@@QAE@PAU?$pair@Vtype_id@luabind@@P6APAXPAX@Z@1@AAV?$allocator@U?$pair@Vtype_id@luabind@@P6APAXPAX@Z@std@@@1@@Z ENDP ; std::_Uninitialized_backout_al<std::allocator<std::pair<luabind::type_id,void * (__cdecl*)(void *)> > >::_Uninitialized_backout_al<std::allocator<std::pair<luabind::type_id,void * (__cdecl*)(void *)> > >
_TEXT	ENDS
; Function compile flags: /Odtp /RTCsu
; File C:\Program Files\Microsoft Visual Studio\2022\Community\VC\Tools\MSVC\14.34.31933\include\xutility
;	COMDAT ??$_Copy_memmove@PAU?$pair@Vtype_id@luabind@@P6APAXPAX@Z@std@@PAU12@@std@@YAPAU?$pair@Vtype_id@luabind@@P6APAXPAX@Z@0@PAU10@00@Z
_TEXT	SEGMENT
__Count$ = -28						; size = 4
__Dest_ch$ = -24					; size = 4
__Last_ch$ = -20					; size = 4
__First_ch$ = -16					; size = 4
__DestPtr$ = -12					; size = 4
__LastPtr$ = -8						; size = 4
__FirstPtr$ = -4					; size = 4
__First$ = 8						; size = 4
__Last$ = 12						; size = 4
__Dest$ = 16						; size = 4
??$_Copy_memmove@PAU?$pair@Vtype_id@luabind@@P6APAXPAX@Z@std@@PAU12@@std@@YAPAU?$pair@Vtype_id@luabind@@P6APAXPAX@Z@0@PAU10@00@Z PROC ; std::_Copy_memmove<std::pair<luabind::type_id,void * (__cdecl*)(void *)> *,std::pair<luabind::type_id,void * (__cdecl*)(void *)> *>, COMDAT

; 3833 : _OutCtgIt _Copy_memmove(_CtgIt _First, _CtgIt _Last, _OutCtgIt _Dest) {

	push	ebp
	mov	ebp, esp
	sub	esp, 28					; 0000001cH
	mov	eax, -858993460				; ccccccccH
	mov	DWORD PTR [ebp-28], eax
	mov	DWORD PTR [ebp-24], eax
	mov	DWORD PTR [ebp-20], eax
	mov	DWORD PTR [ebp-16], eax
	mov	DWORD PTR [ebp-12], eax
	mov	DWORD PTR [ebp-8], eax
	mov	DWORD PTR [ebp-4], eax

; 3834 :     auto _FirstPtr              = _To_address(_First);

	lea	eax, DWORD PTR __First$[ebp]
	push	eax
	call	??$_To_address@PAU?$pair@Vtype_id@luabind@@P6APAXPAX@Z@std@@@std@@YA?A_PABQAU?$pair@Vtype_id@luabind@@P6APAXPAX@Z@0@@Z ; std::_To_address<std::pair<luabind::type_id,void * (__cdecl*)(void *)> *>
	add	esp, 4
	mov	DWORD PTR __FirstPtr$[ebp], eax

; 3835 :     auto _LastPtr               = _To_address(_Last);

	lea	ecx, DWORD PTR __Last$[ebp]
	push	ecx
	call	??$_To_address@PAU?$pair@Vtype_id@luabind@@P6APAXPAX@Z@std@@@std@@YA?A_PABQAU?$pair@Vtype_id@luabind@@P6APAXPAX@Z@0@@Z ; std::_To_address<std::pair<luabind::type_id,void * (__cdecl*)(void *)> *>
	add	esp, 4
	mov	DWORD PTR __LastPtr$[ebp], eax

; 3836 :     auto _DestPtr               = _To_address(_Dest);

	lea	edx, DWORD PTR __Dest$[ebp]
	push	edx
	call	??$_To_address@PAU?$pair@Vtype_id@luabind@@P6APAXPAX@Z@std@@@std@@YA?A_PABQAU?$pair@Vtype_id@luabind@@P6APAXPAX@Z@0@@Z ; std::_To_address<std::pair<luabind::type_id,void * (__cdecl*)(void *)> *>
	add	esp, 4
	mov	DWORD PTR __DestPtr$[ebp], eax

; 3837 :     const char* const _First_ch = const_cast<const char*>(reinterpret_cast<const volatile char*>(_FirstPtr));

	mov	eax, DWORD PTR __FirstPtr$[ebp]
	mov	DWORD PTR __First_ch$[ebp], eax

; 3838 :     const char* const _Last_ch  = const_cast<const char*>(reinterpret_cast<const volatile char*>(_LastPtr));

	mov	ecx, DWORD PTR __LastPtr$[ebp]
	mov	DWORD PTR __Last_ch$[ebp], ecx

; 3839 :     char* const _Dest_ch        = const_cast<char*>(reinterpret_cast<const volatile char*>(_DestPtr));

	mov	edx, DWORD PTR __DestPtr$[ebp]
	mov	DWORD PTR __Dest_ch$[ebp], edx

; 3840 :     const auto _Count           = static_cast<size_t>(_Last_ch - _First_ch);

	mov	eax, DWORD PTR __Last_ch$[ebp]
	sub	eax, DWORD PTR __First_ch$[ebp]
	mov	DWORD PTR __Count$[ebp], eax

; 3841 :     _CSTD memmove(_Dest_ch, _First_ch, _Count);

	mov	ecx, DWORD PTR __Count$[ebp]
	push	ecx
	mov	edx, DWORD PTR __First_ch$[ebp]
	push	edx
	mov	eax, DWORD PTR __Dest_ch$[ebp]
	push	eax
	call	_memmove
	add	esp, 12					; 0000000cH

; 3842 :     if constexpr (is_pointer_v<_OutCtgIt>) {
; 3843 :         return reinterpret_cast<_OutCtgIt>(_Dest_ch + _Count);

	mov	eax, DWORD PTR __Dest_ch$[ebp]
	add	eax, DWORD PTR __Count$[ebp]

; 3844 :     } else {
; 3845 :         return _Dest + (_LastPtr - _FirstPtr);
; 3846 :     }
; 3847 : }

	add	esp, 28					; 0000001cH
	cmp	ebp, esp
	call	__RTC_CheckEsp
	mov	esp, ebp
	pop	ebp
	ret	0
??$_Copy_memmove@PAU?$pair@Vtype_id@luabind@@P6APAXPAX@Z@std@@PAU12@@std@@YAPAU?$pair@Vtype_id@luabind@@P6APAXPAX@Z@0@PAU10@00@Z ENDP ; std::_Copy_memmove<std::pair<luabind::type_id,void * (__cdecl*)(void *)> *,std::pair<luabind::type_id,void * (__cdecl*)(void *)> *>
_TEXT	ENDS
; Function compile flags: /Odtp /RTCsu
; File C:\Program Files\Microsoft Visual Studio\2022\Community\VC\Tools\MSVC\14.34.31933\include\xutility
;	COMDAT ??$_Get_unwrapped@ABQAU?$pair@Vtype_id@luabind@@P6APAXPAX@Z@std@@@std@@YA?A_TABQAU?$pair@Vtype_id@luabind@@P6APAXPAX@Z@0@@Z
_TEXT	SEGMENT
__It$ = 8						; size = 4
??$_Get_unwrapped@ABQAU?$pair@Vtype_id@luabind@@P6APAXPAX@Z@std@@@std@@YA?A_TABQAU?$pair@Vtype_id@luabind@@P6APAXPAX@Z@0@@Z PROC ; std::_Get_unwrapped<std::pair<luabind::type_id,void * (__cdecl*)(void *)> * const &>, COMDAT

; 911  :     !_Unwrappable_v<_Iter> || _Has_nothrow_unwrapped<_Iter>) {

	push	ebp
	mov	ebp, esp

; 912  :     // unwrap an iterator previously subjected to _Adl_verify_range or otherwise validated
; 913  :     if constexpr (is_pointer_v<decay_t<_Iter>>) { // special-case pointers and arrays
; 914  :         return _It + 0;

	mov	eax, DWORD PTR __It$[ebp]
	mov	eax, DWORD PTR [eax]

; 915  :     } else if constexpr (_Unwrappable_v<_Iter>) {
; 916  :         return static_cast<_Iter&&>(_It)._Unwrapped();
; 917  :     } else {
; 918  :         return static_cast<_Iter&&>(_It);
; 919  :     }
; 920  : }

	pop	ebp
	ret	0
??$_Get_unwrapped@ABQAU?$pair@Vtype_id@luabind@@P6APAXPAX@Z@std@@@std@@YA?A_TABQAU?$pair@Vtype_id@luabind@@P6APAXPAX@Z@0@@Z ENDP ; std::_Get_unwrapped<std::pair<luabind::type_id,void * (__cdecl*)(void *)> * const &>
_TEXT	ENDS
; Function compile flags: /Odtp /RTCsu
; File C:\Program Files\Microsoft Visual Studio\2022\Community\VC\Tools\MSVC\14.34.31933\include\xutility
;	COMDAT ??$_Voidify_iter@PAU?$pair@Vtype_id@luabind@@P6APAXPAX@Z@std@@@std@@YAPAXPAU?$pair@Vtype_id@luabind@@P6APAXPAX@Z@0@@Z
_TEXT	SEGMENT
__It$ = 8						; size = 4
??$_Voidify_iter@PAU?$pair@Vtype_id@luabind@@P6APAXPAX@Z@std@@@std@@YAPAXPAU?$pair@Vtype_id@luabind@@P6APAXPAX@Z@0@@Z PROC ; std::_Voidify_iter<std::pair<luabind::type_id,void * (__cdecl*)(void *)> *>, COMDAT

; 200  : _NODISCARD constexpr void* _Voidify_iter(_Iter _It) noexcept {

	push	ebp
	mov	ebp, esp

; 201  :     if constexpr (is_pointer_v<_Iter>) {
; 202  :         return const_cast<void*>(static_cast<const volatile void*>(_It));

	mov	eax, DWORD PTR __It$[ebp]

; 203  :     } else {
; 204  :         return const_cast<void*>(static_cast<const volatile void*>(_STD addressof(*_It)));
; 205  :     }
; 206  : }

	pop	ebp
	ret	0
??$_Voidify_iter@PAU?$pair@Vtype_id@luabind@@P6APAXPAX@Z@std@@@std@@YAPAXPAU?$pair@Vtype_id@luabind@@P6APAXPAX@Z@0@@Z ENDP ; std::_Voidify_iter<std::pair<luabind::type_id,void * (__cdecl*)(void *)> *>
_TEXT	ENDS
; Function compile flags: /Odtp /RTCsu
; File C:\Program Files\Microsoft Visual Studio\2022\Community\VC\Tools\MSVC\14.34.31933\include\xstddef
;	COMDAT ??$addressof@U?$pair@Vtype_id@luabind@@P6APAXPAX@Z@std@@@std@@YAPAU?$pair@Vtype_id@luabind@@P6APAXPAX@Z@0@AAU10@@Z
_TEXT	SEGMENT
__Val$ = 8						; size = 4
??$addressof@U?$pair@Vtype_id@luabind@@P6APAXPAX@Z@std@@@std@@YAPAU?$pair@Vtype_id@luabind@@P6APAXPAX@Z@0@AAU10@@Z PROC ; std::addressof<std::pair<luabind::type_id,void * (__cdecl*)(void *)> >, COMDAT

; 280  : _NODISCARD constexpr _Ty* addressof(_Ty& _Val) noexcept {

	push	ebp
	mov	ebp, esp

; 281  :     return __builtin_addressof(_Val);

	mov	eax, DWORD PTR __Val$[ebp]

; 282  : }

	pop	ebp
	ret	0
??$addressof@U?$pair@Vtype_id@luabind@@P6APAXPAX@Z@std@@@std@@YAPAU?$pair@Vtype_id@luabind@@P6APAXPAX@Z@0@AAU10@@Z ENDP ; std::addressof<std::pair<luabind::type_id,void * (__cdecl*)(void *)> >
_TEXT	ENDS
; Function compile flags: /Odtp /RTCsu
; File C:\Program Files\Microsoft Visual Studio\2022\Community\VC\Tools\MSVC\14.34.31933\include\xmemory
;	COMDAT ??$_Emplace_back@Ucast_entry@?A0x440dba7a@detail@luabind@@@?$_Uninitialized_backout_al@V?$allocator@Ucast_entry@?A0x440dba7a@detail@luabind@@@std@@@std@@QAEX$$QAUcast_entry@?A0x440dba7a@detail@luabind@@@Z
_TEXT	SEGMENT
_this$ = -4						; size = 4
_<_Vals_0>$ = 8						; size = 4
??$_Emplace_back@Ucast_entry@?A0x440dba7a@detail@luabind@@@?$_Uninitialized_backout_al@V?$allocator@Ucast_entry@?A0x440dba7a@detail@luabind@@@std@@@std@@QAEX$$QAUcast_entry@?A0x440dba7a@detail@luabind@@@Z PROC ; std::_Uninitialized_backout_al<std::allocator<luabind::detail::`anonymous namespace'::cast_entry> >::_Emplace_back<luabind::detail::`anonymous namespace'::cast_entry>, COMDAT
; _this$ = ecx

; 1662 :     _CONSTEXPR20 void _Emplace_back(_Types&&... _Vals) { // construct a new element at *_Last and increment

	push	ebp
	mov	ebp, esp
	push	ecx
	mov	DWORD PTR [ebp-4], -858993460		; ccccccccH
	mov	DWORD PTR _this$[ebp], ecx

; 1663 :         allocator_traits<_Alloc>::construct(_Al, _Unfancy(_Last), _STD forward<_Types>(_Vals)...);

	mov	eax, DWORD PTR _<_Vals_0>$[ebp]
	push	eax
	call	??$forward@Ucast_entry@?A0x440dba7a@detail@luabind@@@std@@YA$$QAUcast_entry@?A0x440dba7a@detail@luabind@@AAU1234@@Z ; std::forward<luabind::detail::`anonymous namespace'::cast_entry>
	add	esp, 4
	push	eax
	mov	ecx, DWORD PTR _this$[ebp]
	mov	edx, DWORD PTR [ecx+4]
	push	edx
	call	??$_Unfancy@Ucast_entry@?A0x440dba7a@detail@luabind@@@std@@YAPAUcast_entry@?A0x440dba7a@detail@luabind@@PAU1234@@Z ; std::_Unfancy<luabind::detail::`anonymous namespace'::cast_entry>
	add	esp, 4
	push	eax
	mov	eax, DWORD PTR _this$[ebp]
	mov	ecx, DWORD PTR [eax+8]
	push	ecx
	call	??$construct@Ucast_entry@?A0x440dba7a@detail@luabind@@U1234@@?$_Default_allocator_traits@V?$allocator@Ucast_entry@?A0x440dba7a@detail@luabind@@@std@@@std@@SAXAAV?$allocator@Ucast_entry@?A0x440dba7a@detail@luabind@@@1@QAUcast_entry@?A0x440dba7a@detail@luabind@@$$QAU3456@@Z ; std::_Default_allocator_traits<std::allocator<luabind::detail::`anonymous namespace'::cast_entry> >::construct<luabind::detail::`anonymous namespace'::cast_entry,luabind::detail::A0x440dba7a::cast_entry>
	add	esp, 12					; 0000000cH

; 1664 :         ++_Last;

	mov	edx, DWORD PTR _this$[ebp]
	mov	eax, DWORD PTR [edx+4]
	add	eax, 12					; 0000000cH
	mov	ecx, DWORD PTR _this$[ebp]
	mov	DWORD PTR [ecx+4], eax

; 1665 :     }

	add	esp, 4
	cmp	ebp, esp
	call	__RTC_CheckEsp
	mov	esp, ebp
	pop	ebp
	ret	4
??$_Emplace_back@Ucast_entry@?A0x440dba7a@detail@luabind@@@?$_Uninitialized_backout_al@V?$allocator@Ucast_entry@?A0x440dba7a@detail@luabind@@@std@@@std@@QAEX$$QAUcast_entry@?A0x440dba7a@detail@luabind@@@Z ENDP ; std::_Uninitialized_backout_al<std::allocator<luabind::detail::`anonymous namespace'::cast_entry> >::_Emplace_back<luabind::detail::`anonymous namespace'::cast_entry>
_TEXT	ENDS
; Function compile flags: /Odtp /RTCsu
; File C:\Program Files\Microsoft Visual Studio\2022\Community\VC\Tools\MSVC\14.34.31933\include\xmemory
_TEXT	SEGMENT
_this$ = -4						; size = 4
?_Release@?$_Uninitialized_backout_al@V?$allocator@Ucast_entry@?A0x440dba7a@detail@luabind@@@std@@@std@@QAEPAUcast_entry@?A0x440dba7a@detail@luabind@@XZ PROC ; std::_Uninitialized_backout_al<std::allocator<luabind::detail::`anonymous namespace'::cast_entry> >::_Release
; _this$ = ecx

; 1667 :     constexpr pointer _Release() { // suppress any exception handling backout and return _Last

	push	ebp
	mov	ebp, esp
	push	ecx
	mov	DWORD PTR _this$[ebp], ecx

; 1668 :         _First = _Last;

	mov	eax, DWORD PTR _this$[ebp]
	mov	ecx, DWORD PTR _this$[ebp]
	mov	edx, DWORD PTR [ecx+4]
	mov	DWORD PTR [eax], edx

; 1669 :         return _Last;

	mov	eax, DWORD PTR _this$[ebp]
	mov	eax, DWORD PTR [eax+4]

; 1670 :     }

	mov	esp, ebp
	pop	ebp
	ret	0
?_Release@?$_Uninitialized_backout_al@V?$allocator@Ucast_entry@?A0x440dba7a@detail@luabind@@@std@@@std@@QAEPAUcast_entry@?A0x440dba7a@detail@luabind@@XZ ENDP ; std::_Uninitialized_backout_al<std::allocator<luabind::detail::`anonymous namespace'::cast_entry> >::_Release
_TEXT	ENDS
; Function compile flags: /Odtp /RTCsu
; File C:\Program Files\Microsoft Visual Studio\2022\Community\VC\Tools\MSVC\14.34.31933\include\xmemory
_TEXT	SEGMENT
_this$ = -4						; size = 4
??1?$_Uninitialized_backout_al@V?$allocator@Ucast_entry@?A0x440dba7a@detail@luabind@@@std@@@std@@QAE@XZ PROC ; std::_Uninitialized_backout_al<std::allocator<luabind::detail::`anonymous namespace'::cast_entry> >::~_Uninitialized_backout_al<std::allocator<luabind::detail::`anonymous namespace'::cast_entry> >
; _this$ = ecx

; 1657 :     _CONSTEXPR20 ~_Uninitialized_backout_al() {

	push	ebp
	mov	ebp, esp
	push	ecx
	mov	DWORD PTR [ebp-4], -858993460		; ccccccccH
	mov	DWORD PTR _this$[ebp], ecx

; 1658 :         _Destroy_range(_First, _Last, _Al);

	mov	eax, DWORD PTR _this$[ebp]
	mov	ecx, DWORD PTR [eax+8]
	push	ecx
