; Listing generated by Microsoft (R) Optimizing Compiler Version 19.35.32215.0 

	TITLE	D:\__Repos\__MyRepos\Raven_VS2022\Raven\Debug\inheritance.obj
	.686P
	.XMM
	include listing.inc
	.model	flat

INCLUDELIB LIBCMTD
INCLUDELIB OLDNAMES

PUBLIC	?local_id_base@class_id_map@detail@luabind@@0IB	; luabind::detail::class_id_map::local_id_base
CONST	SEGMENT
?local_id_base@class_id_map@detail@luabind@@0IB DD 07fffffffH ; luabind::detail::class_id_map::local_id_base
?unknown@cache@?A0xac297765@detail@luabind@@2HB DD 07fffffffH ; luabind::detail::`anonymous namespace'::cache::unknown
?invalid@cache@?A0xac297765@detail@luabind@@2HB DD 07ffffffeH ; luabind::detail::`anonymous namespace'::cache::invalid
$SG118435 DB	'invalid argument', 00H
	ORG $+3
$SG118436 DB	'%s', 00H
	ORG $+1
$SG118439 DB	00H, 00H
	ORG $+2
$SG118437 DB	'C:\Program Files\Microsoft Visual Studio\2022\Community\'
	DB	'VC\Tools\MSVC\14.35.32215\include\xmemory', 00H
	ORG $+6
$SG118438 DB	'C', 00H, ':', 00H, '\', 00H, 'P', 00H, 'r', 00H, 'o', 00H
	DB	'g', 00H, 'r', 00H, 'a', 00H, 'm', 00H, ' ', 00H, 'F', 00H, 'i'
	DB	00H, 'l', 00H, 'e', 00H, 's', 00H, '\', 00H, 'M', 00H, 'i', 00H
	DB	'c', 00H, 'r', 00H, 'o', 00H, 's', 00H, 'o', 00H, 'f', 00H, 't'
	DB	00H, ' ', 00H, 'V', 00H, 'i', 00H, 's', 00H, 'u', 00H, 'a', 00H
	DB	'l', 00H, ' ', 00H, 'S', 00H, 't', 00H, 'u', 00H, 'd', 00H, 'i'
	DB	00H, 'o', 00H, '\', 00H, '2', 00H, '0', 00H, '2', 00H, '2', 00H
	DB	'\', 00H, 'C', 00H, 'o', 00H, 'm', 00H, 'm', 00H, 'u', 00H, 'n'
	DB	00H, 'i', 00H, 't', 00H, 'y', 00H, '\', 00H, 'V', 00H, 'C', 00H
	DB	'\', 00H, 'T', 00H, 'o', 00H, 'o', 00H, 'l', 00H, 's', 00H, '\'
	DB	00H, 'M', 00H, 'S', 00H, 'V', 00H, 'C', 00H, '\', 00H, '1', 00H
	DB	'4', 00H, '.', 00H, '3', 00H, '5', 00H, '.', 00H, '3', 00H, '2'
	DB	00H, '2', 00H, '1', 00H, '5', 00H, '\', 00H, 'i', 00H, 'n', 00H
	DB	'c', 00H, 'l', 00H, 'u', 00H, 'd', 00H, 'e', 00H, '\', 00H, 'x'
	DB	00H, 'm', 00H, 'e', 00H, 'm', 00H, 'o', 00H, 'r', 00H, 'y', 00H
	DB	00H, 00H
$SG118440 DB	'"', 00H, 'i', 00H, 'n', 00H, 'v', 00H, 'a', 00H, 'l', 00H
	DB	'i', 00H, 'd', 00H, ' ', 00H, 'a', 00H, 'r', 00H, 'g', 00H, 'u'
	DB	00H, 'm', 00H, 'e', 00H, 'n', 00H, 't', 00H, '"', 00H, 00H, 00H
CONST	ENDS
PUBLIC	?__empty_global_delete@@YAXPAX@Z		; __empty_global_delete
PUBLIC	?__empty_global_delete@@YAXPAXI@Z		; __empty_global_delete
PUBLIC	?max@?$numeric_limits@H@std@@SAHXZ		; std::numeric_limits<int>::max
PUBLIC	??2@YAPAXIPAX@Z					; operator new
PUBLIC	??0exception@std@@QAE@QBDH@Z			; std::exception::exception
PUBLIC	??0exception@std@@QAE@ABV01@@Z			; std::exception::exception
PUBLIC	??1exception@std@@UAE@XZ			; std::exception::~exception
PUBLIC	?what@exception@std@@UBEPBDXZ			; std::exception::what
PUBLIC	??_Gexception@std@@UAEPAXI@Z			; std::exception::`scalar deleting destructor'
PUBLIC	??0bad_alloc@std@@AAE@QBD@Z			; std::bad_alloc::bad_alloc
PUBLIC	??1bad_alloc@std@@UAE@XZ			; std::bad_alloc::~bad_alloc
PUBLIC	??0bad_alloc@std@@QAE@ABV01@@Z			; std::bad_alloc::bad_alloc
PUBLIC	??_Gbad_alloc@std@@UAEPAXI@Z			; std::bad_alloc::`scalar deleting destructor'
PUBLIC	??0bad_array_new_length@std@@QAE@XZ		; std::bad_array_new_length::bad_array_new_length
PUBLIC	??1bad_array_new_length@std@@UAE@XZ		; std::bad_array_new_length::~bad_array_new_length
PUBLIC	??0bad_array_new_length@std@@QAE@ABV01@@Z	; std::bad_array_new_length::bad_array_new_length
PUBLIC	??_Gbad_array_new_length@std@@UAEPAXI@Z		; std::bad_array_new_length::`scalar deleting destructor'
PUBLIC	?_Throw_bad_array_new_length@std@@YAXXZ		; std::_Throw_bad_array_new_length
PUBLIC	?_Allocate@_Default_allocate_traits@std@@SAPAXI@Z ; std::_Default_allocate_traits::_Allocate
PUBLIC	?_Adjust_manually_vector_aligned@std@@YAXAAPAXAAI@Z ; std::_Adjust_manually_vector_aligned
PUBLIC	??0_Container_proxy@std@@QAE@PAU_Container_base12@1@@Z ; std::_Container_proxy::_Container_proxy
PUBLIC	??0_Container_base12@std@@QAE@XZ		; std::_Container_base12::_Container_base12
PUBLIC	?_Orphan_all@_Container_base12@std@@QAEXXZ	; std::_Container_base12::_Orphan_all
PUBLIC	?_Swap_proxy_and_iterators@_Container_base12@std@@QAEXAAU12@@Z ; std::_Container_base12::_Swap_proxy_and_iterators
PUBLIC	?_Orphan_all_unlocked_v3@_Container_base12@std@@AAEXXZ ; std::_Container_base12::_Orphan_all_unlocked_v3
PUBLIC	?_Swap_proxy_and_iterators_unlocked@_Container_base12@std@@AAEXAAU12@@Z ; std::_Container_base12::_Swap_proxy_and_iterators_unlocked
PUBLIC	?_Orphan_all_locked_v3@_Container_base12@std@@AAEXXZ ; std::_Container_base12::_Orphan_all_locked_v3
PUBLIC	?_Swap_proxy_and_iterators_locked@_Container_base12@std@@AAEXAAU12@@Z ; std::_Container_base12::_Swap_proxy_and_iterators_locked
PUBLIC	??0_Iterator_base12@std@@QAE@XZ			; std::_Iterator_base12::_Iterator_base12
PUBLIC	??0_Iterator_base12@std@@QAE@ABU01@@Z		; std::_Iterator_base12::_Iterator_base12
PUBLIC	??4_Iterator_base12@std@@QAEAAU01@ABU01@@Z	; std::_Iterator_base12::operator=
PUBLIC	??1_Iterator_base12@std@@QAE@XZ			; std::_Iterator_base12::~_Iterator_base12
PUBLIC	?_Adopt@_Iterator_base12@std@@QAEXPBU_Container_base12@2@@Z ; std::_Iterator_base12::_Adopt
PUBLIC	?_Getcont@_Iterator_base12@std@@QBEPBU_Container_base12@2@XZ ; std::_Iterator_base12::_Getcont
PUBLIC	?_Assign_unlocked@_Iterator_base12@std@@AAEXABU12@@Z ; std::_Iterator_base12::_Assign_unlocked
PUBLIC	?_Assign_locked@_Iterator_base12@std@@AAEXABU12@@Z ; std::_Iterator_base12::_Assign_locked
PUBLIC	?_Adopt_unlocked@_Iterator_base12@std@@AAEXPBU_Container_base12@2@@Z ; std::_Iterator_base12::_Adopt_unlocked
PUBLIC	?_Adopt_locked@_Iterator_base12@std@@AAEXPBU_Container_base12@2@@Z ; std::_Iterator_base12::_Adopt_locked
PUBLIC	?_Orphan_me_unlocked_v3@_Iterator_base12@std@@AAEXXZ ; std::_Iterator_base12::_Orphan_me_unlocked_v3
PUBLIC	?_Orphan_me_locked_v3@_Iterator_base12@std@@AAEXXZ ; std::_Iterator_base12::_Orphan_me_locked_v3
PUBLIC	??$exchange@PAU_Iterator_base12@std@@$$T@std@@YAPAU_Iterator_base12@0@AAPAU10@$$QA$$T@Z ; std::exchange<std::_Iterator_base12 *,std::nullptr_t>
PUBLIC	?_Release@_Basic_container_proxy_ptr12@std@@QAEXXZ ; std::_Basic_container_proxy_ptr12::_Release
PUBLIC	??0_Basic_container_proxy_ptr12@std@@IAE@XZ	; std::_Basic_container_proxy_ptr12::_Basic_container_proxy_ptr12
PUBLIC	?_Throw_tree_length_error@std@@YAXXZ		; std::_Throw_tree_length_error
PUBLIC	?before@type_info@@QBE_NABV1@@Z			; type_info::before
PUBLIC	??Bauto_any_base@foreach_detail_@boost@@QBE_NXZ	; boost::foreach_detail_::auto_any_base::operator bool
PUBLIC	?set_false@foreach_detail_@boost@@YA_NAA_N@Z	; boost::foreach_detail_::set_false
PUBLIC	?cnull@detail@tuples@boost@@YA?BUnull_type@23@XZ ; boost::tuples::detail::cnull
PUBLIC	??$lt@Unull_type@tuples@boost@@U123@@detail@tuples@boost@@YA_NABUnull_type@12@0@Z ; boost::tuples::detail::lt<boost::tuples::null_type,boost::tuples::null_type>
PUBLIC	??Mtype_id@luabind@@QBE_NABV01@@Z		; luabind::type_id::operator<
PUBLIC	??0cast_graph@detail@luabind@@QAE@XZ		; luabind::detail::cast_graph::cast_graph
PUBLIC	??1cast_graph@detail@luabind@@QAE@XZ		; luabind::detail::cast_graph::~cast_graph
PUBLIC	?cast@cast_graph@detail@luabind@@QBE?AU?$pair@PAXH@std@@PAXIIIPBX@Z ; luabind::detail::cast_graph::cast
PUBLIC	?insert@cast_graph@detail@luabind@@QAEXIIP6APAXPAX@Z@Z ; luabind::detail::cast_graph::insert
PUBLIC	??0?$scoped_ptr@Vimpl@cast_graph@detail@luabind@@@boost@@QAE@PAVimpl@cast_graph@detail@luabind@@@Z ; boost::scoped_ptr<luabind::detail::cast_graph::impl>::scoped_ptr<luabind::detail::cast_graph::impl>
PUBLIC	??1?$scoped_ptr@Vimpl@cast_graph@detail@luabind@@@boost@@QAE@XZ ; boost::scoped_ptr<luabind::detail::cast_graph::impl>::~scoped_ptr<luabind::detail::cast_graph::impl>
PUBLIC	??C?$scoped_ptr@Vimpl@cast_graph@detail@luabind@@@boost@@QBEPAVimpl@cast_graph@detail@luabind@@XZ ; boost::scoped_ptr<luabind::detail::cast_graph::impl>::operator->
PUBLIC	??0?$allocator@U?$_Tree_node@U?$pair@$$CBVtype_id@luabind@@I@std@@PAX@std@@@std@@QAE@XZ ; std::allocator<std::_Tree_node<std::pair<luabind::type_id const ,unsigned int>,void *> >::allocator<std::_Tree_node<std::pair<luabind::type_id const ,unsigned int>,void *> >
PUBLIC	?deallocate@?$allocator@U?$_Tree_node@U?$pair@$$CBVtype_id@luabind@@I@std@@PAX@std@@@std@@QAEXQAU?$_Tree_node@U?$pair@$$CBVtype_id@luabind@@I@std@@PAX@2@I@Z ; std::allocator<std::_Tree_node<std::pair<luabind::type_id const ,unsigned int>,void *> >::deallocate
PUBLIC	?allocate@?$allocator@U?$_Tree_node@U?$pair@$$CBVtype_id@luabind@@I@std@@PAX@std@@@std@@QAEPAU?$_Tree_node@U?$pair@$$CBVtype_id@luabind@@I@std@@PAX@2@I@Z ; std::allocator<std::_Tree_node<std::pair<luabind::type_id const ,unsigned int>,void *> >::allocate
PUBLIC	?deallocate@?$_Default_allocator_traits@V?$allocator@U?$_Tree_node@U?$pair@$$CBVtype_id@luabind@@I@std@@PAX@std@@@std@@@std@@SAXAAV?$allocator@U?$_Tree_node@U?$pair@$$CBVtype_id@luabind@@I@std@@PAX@std@@@2@QAU?$_Tree_node@U?$pair@$$CBVtype_id@luabind@@I@std@@PAX@2@I@Z ; std::_Default_allocator_traits<std::allocator<std::_Tree_node<std::pair<luabind::type_id const ,unsigned int>,void *> > >::deallocate
PUBLIC	?max_size@?$_Default_allocator_traits@V?$allocator@U?$_Tree_node@U?$pair@$$CBVtype_id@luabind@@I@std@@PAX@std@@@std@@@std@@SAIABV?$allocator@U?$_Tree_node@U?$pair@$$CBVtype_id@luabind@@I@std@@PAX@std@@@2@@Z ; std::_Default_allocator_traits<std::allocator<std::_Tree_node<std::pair<luabind::type_id const ,unsigned int>,void *> > >::max_size
PUBLIC	??0?$_Tree@V?$_Tmap_traits@Vtype_id@luabind@@IU?$less@Vtype_id@luabind@@@std@@V?$allocator@U?$pair@$$CBVtype_id@luabind@@I@std@@@4@$0A@@std@@@std@@QAE@ABU?$less@Vtype_id@luabind@@@1@@Z ; std::_Tree<std::_Tmap_traits<luabind::type_id,unsigned int,std::less<luabind::type_id>,std::allocator<std::pair<luabind::type_id const ,unsigned int> >,0> >::_Tree<std::_Tmap_traits<luabind::type_id,unsigned int,std::less<luabind::type_id>,std::allocator<std::pair<luabind::type_id const ,unsigned int> >,0> >
PUBLIC	??1?$_Tree@V?$_Tmap_traits@Vtype_id@luabind@@IU?$less@Vtype_id@luabind@@@std@@V?$allocator@U?$pair@$$CBVtype_id@luabind@@I@std@@@4@$0A@@std@@@std@@QAE@XZ ; std::_Tree<std::_Tmap_traits<luabind::type_id,unsigned int,std::less<luabind::type_id>,std::allocator<std::pair<luabind::type_id const ,unsigned int> >,0> >::~_Tree<std::_Tmap_traits<luabind::type_id,unsigned int,std::less<luabind::type_id>,std::allocator<std::pair<luabind::type_id const ,unsigned int> >,0> >
PUBLIC	?max_size@?$_Tree@V?$_Tmap_traits@Vtype_id@luabind@@IU?$less@Vtype_id@luabind@@@std@@V?$allocator@U?$pair@$$CBVtype_id@luabind@@I@std@@@4@$0A@@std@@@std@@QBEIXZ ; std::_Tree<std::_Tmap_traits<luabind::type_id,unsigned int,std::less<luabind::type_id>,std::allocator<std::pair<luabind::type_id const ,unsigned int> >,0> >::max_size
PUBLIC	?_Check_grow_by_1@?$_Tree@V?$_Tmap_traits@Vtype_id@luabind@@IU?$less@Vtype_id@luabind@@@std@@V?$allocator@U?$pair@$$CBVtype_id@luabind@@I@std@@@4@$0A@@std@@@std@@IAEXXZ ; std::_Tree<std::_Tmap_traits<luabind::type_id,unsigned int,std::less<luabind::type_id>,std::allocator<std::pair<luabind::type_id const ,unsigned int> >,0> >::_Check_grow_by_1
PUBLIC	?_Alloc_sentinel_and_proxy@?$_Tree@V?$_Tmap_traits@Vtype_id@luabind@@IU?$less@Vtype_id@luabind@@@std@@V?$allocator@U?$pair@$$CBVtype_id@luabind@@I@std@@@4@$0A@@std@@@std@@IAEXXZ ; std::_Tree<std::_Tmap_traits<luabind::type_id,unsigned int,std::less<luabind::type_id>,std::allocator<std::pair<luabind::type_id const ,unsigned int> >,0> >::_Alloc_sentinel_and_proxy
PUBLIC	?_Getcomp@?$_Tree@V?$_Tmap_traits@Vtype_id@luabind@@IU?$less@Vtype_id@luabind@@@std@@V?$allocator@U?$pair@$$CBVtype_id@luabind@@I@std@@@4@$0A@@std@@@std@@IBEABU?$less@Vtype_id@luabind@@@2@XZ ; std::_Tree<std::_Tmap_traits<luabind::type_id,unsigned int,std::less<luabind::type_id>,std::allocator<std::pair<luabind::type_id const ,unsigned int> >,0> >::_Getcomp
PUBLIC	?_Getal@?$_Tree@V?$_Tmap_traits@Vtype_id@luabind@@IU?$less@Vtype_id@luabind@@@std@@V?$allocator@U?$pair@$$CBVtype_id@luabind@@I@std@@@4@$0A@@std@@@std@@IAEAAV?$allocator@U?$_Tree_node@U?$pair@$$CBVtype_id@luabind@@I@std@@PAX@std@@@2@XZ ; std::_Tree<std::_Tmap_traits<luabind::type_id,unsigned int,std::less<luabind::type_id>,std::allocator<std::pair<luabind::type_id const ,unsigned int> >,0> >::_Getal
PUBLIC	?_Getal@?$_Tree@V?$_Tmap_traits@Vtype_id@luabind@@IU?$less@Vtype_id@luabind@@@std@@V?$allocator@U?$pair@$$CBVtype_id@luabind@@I@std@@@4@$0A@@std@@@std@@IBEABV?$allocator@U?$_Tree_node@U?$pair@$$CBVtype_id@luabind@@I@std@@PAX@std@@@2@XZ ; std::_Tree<std::_Tmap_traits<luabind::type_id,unsigned int,std::less<luabind::type_id>,std::allocator<std::pair<luabind::type_id const ,unsigned int> >,0> >::_Getal
PUBLIC	?_Get_scary@?$_Tree@V?$_Tmap_traits@Vtype_id@luabind@@IU?$less@Vtype_id@luabind@@@std@@V?$allocator@U?$pair@$$CBVtype_id@luabind@@I@std@@@4@$0A@@std@@@std@@IAEPAV?$_Tree_val@U?$_Tree_simple_types@U?$pair@$$CBVtype_id@luabind@@I@std@@@std@@@2@XZ ; std::_Tree<std::_Tmap_traits<luabind::type_id,unsigned int,std::less<luabind::type_id>,std::allocator<std::pair<luabind::type_id const ,unsigned int> >,0> >::_Get_scary
PUBLIC	?_Get_scary@?$_Tree@V?$_Tmap_traits@Vtype_id@luabind@@IU?$less@Vtype_id@luabind@@@std@@V?$allocator@U?$pair@$$CBVtype_id@luabind@@I@std@@@4@$0A@@std@@@std@@IBEPBV?$_Tree_val@U?$_Tree_simple_types@U?$pair@$$CBVtype_id@luabind@@I@std@@@std@@@2@XZ ; std::_Tree<std::_Tmap_traits<luabind::type_id,unsigned int,std::less<luabind::type_id>,std::allocator<std::pair<luabind::type_id const ,unsigned int> >,0> >::_Get_scary
PUBLIC	??R?$less@Vtype_id@luabind@@@std@@QBE_NABVtype_id@luabind@@0@Z ; std::less<luabind::type_id>::operator()
PUBLIC	??0?$_Tree_val@U?$_Tree_simple_types@U?$pair@$$CBVtype_id@luabind@@I@std@@@std@@@std@@QAE@XZ ; std::_Tree_val<std::_Tree_simple_types<std::pair<luabind::type_id const ,unsigned int> > >::_Tree_val<std::_Tree_simple_types<std::pair<luabind::type_id const ,unsigned int> > >
PUBLIC	?_Lrotate@?$_Tree_val@U?$_Tree_simple_types@U?$pair@$$CBVtype_id@luabind@@I@std@@@std@@@std@@QAEXPAU?$_Tree_node@U?$pair@$$CBVtype_id@luabind@@I@std@@PAX@2@@Z ; std::_Tree_val<std::_Tree_simple_types<std::pair<luabind::type_id const ,unsigned int> > >::_Lrotate
PUBLIC	?_Rrotate@?$_Tree_val@U?$_Tree_simple_types@U?$pair@$$CBVtype_id@luabind@@I@std@@@std@@@std@@QAEXPAU?$_Tree_node@U?$pair@$$CBVtype_id@luabind@@I@std@@PAX@2@@Z ; std::_Tree_val<std::_Tree_simple_types<std::pair<luabind::type_id const ,unsigned int> > >::_Rrotate
PUBLIC	?_Insert_node@?$_Tree_val@U?$_Tree_simple_types@U?$pair@$$CBVtype_id@luabind@@I@std@@@std@@@std@@QAEPAU?$_Tree_node@U?$pair@$$CBVtype_id@luabind@@I@std@@PAX@2@U?$_Tree_id@PAU?$_Tree_node@U?$pair@$$CBVtype_id@luabind@@I@std@@PAX@std@@@2@QAU32@@Z ; std::_Tree_val<std::_Tree_simple_types<std::pair<luabind::type_id const ,unsigned int> > >::_Insert_node
PUBLIC	?_Get_first@?$_Compressed_pair@V?$allocator@U?$_Tree_node@U?$pair@$$CBVtype_id@luabind@@I@std@@PAX@std@@@std@@V?$_Tree_val@U?$_Tree_simple_types@U?$pair@$$CBVtype_id@luabind@@I@std@@@std@@@2@$00@std@@QAEAAV?$allocator@U?$_Tree_node@U?$pair@$$CBVtype_id@luabind@@I@std@@PAX@std@@@2@XZ ; std::_Compressed_pair<std::allocator<std::_Tree_node<std::pair<luabind::type_id const ,unsigned int>,void *> >,std::_Tree_val<std::_Tree_simple_types<std::pair<luabind::type_id const ,unsigned int> > >,1>::_Get_first
PUBLIC	?_Get_first@?$_Compressed_pair@V?$allocator@U?$_Tree_node@U?$pair@$$CBVtype_id@luabind@@I@std@@PAX@std@@@std@@V?$_Tree_val@U?$_Tree_simple_types@U?$pair@$$CBVtype_id@luabind@@I@std@@@std@@@2@$00@std@@QBEABV?$allocator@U?$_Tree_node@U?$pair@$$CBVtype_id@luabind@@I@std@@PAX@std@@@2@XZ ; std::_Compressed_pair<std::allocator<std::_Tree_node<std::pair<luabind::type_id const ,unsigned int>,void *> >,std::_Tree_val<std::_Tree_simple_types<std::pair<luabind::type_id const ,unsigned int> > >,1>::_Get_first
PUBLIC	?_Get_first@?$_Compressed_pair@U?$less@Vtype_id@luabind@@@std@@V?$_Compressed_pair@V?$allocator@U?$_Tree_node@U?$pair@$$CBVtype_id@luabind@@I@std@@PAX@std@@@std@@V?$_Tree_val@U?$_Tree_simple_types@U?$pair@$$CBVtype_id@luabind@@I@std@@@std@@@2@$00@2@$00@std@@QBEABU?$less@Vtype_id@luabind@@@2@XZ ; std::_Compressed_pair<std::less<luabind::type_id>,std::_Compressed_pair<std::allocator<std::_Tree_node<std::pair<luabind::type_id const ,unsigned int>,void *> >,std::_Tree_val<std::_Tree_simple_types<std::pair<luabind::type_id const ,unsigned int> > >,1>,1>::_Get_first
PUBLIC	??0?$map@Vtype_id@luabind@@IU?$less@Vtype_id@luabind@@@std@@V?$allocator@U?$pair@$$CBVtype_id@luabind@@I@std@@@4@@std@@QAE@XZ ; std::map<luabind::type_id,unsigned int,std::less<luabind::type_id>,std::allocator<std::pair<luabind::type_id const ,unsigned int> > >::map<luabind::type_id,unsigned int,std::less<luabind::type_id>,std::allocator<std::pair<luabind::type_id const ,unsigned int> > >
PUBLIC	??1?$map@Vtype_id@luabind@@IU?$less@Vtype_id@luabind@@@std@@V?$allocator@U?$pair@$$CBVtype_id@luabind@@I@std@@@4@@std@@QAE@XZ ; std::map<luabind::type_id,unsigned int,std::less<luabind::type_id>,std::allocator<std::pair<luabind::type_id const ,unsigned int> > >::~map<luabind::type_id,unsigned int,std::less<luabind::type_id>,std::allocator<std::pair<luabind::type_id const ,unsigned int> > >
PUBLIC	??0?$_Tree_unchecked_const_iterator@V?$_Tree_val@U?$_Tree_simple_types@U?$pair@$$CBVtype_id@luabind@@I@std@@@std@@@std@@U_Iterator_base12@2@@std@@QAE@PAU?$_Tree_node@U?$pair@$$CBVtype_id@luabind@@I@std@@PAX@1@PBV?$_Tree_val@U?$_Tree_simple_types@U?$pair@$$CBVtype_id@luabind@@I@std@@@std@@@1@@Z ; std::_Tree_unchecked_const_iterator<std::_Tree_val<std::_Tree_simple_types<std::pair<luabind::type_id const ,unsigned int> > >,std::_Iterator_base12>::_Tree_unchecked_const_iterator<std::_Tree_val<std::_Tree_simple_types<std::pair<luabind::type_id const ,unsigned int> > >,std::_Iterator_base12>
PUBLIC	??1?$_Tree_unchecked_const_iterator@V?$_Tree_val@U?$_Tree_simple_types@U?$pair@$$CBVtype_id@luabind@@I@std@@@std@@@std@@U_Iterator_base12@2@@std@@QAE@XZ ; std::_Tree_unchecked_const_iterator<std::_Tree_val<std::_Tree_simple_types<std::pair<luabind::type_id const ,unsigned int> > >,std::_Iterator_base12>::~_Tree_unchecked_const_iterator<std::_Tree_val<std::_Tree_simple_types<std::pair<luabind::type_id const ,unsigned int> > >,std::_Iterator_base12>
PUBLIC	??0?$_Tree_unchecked_const_iterator@V?$_Tree_val@U?$_Tree_simple_types@U?$pair@$$CBVtype_id@luabind@@I@std@@@std@@@std@@U_Iterator_base12@2@@std@@QAE@$$QAV01@@Z ; std::_Tree_unchecked_const_iterator<std::_Tree_val<std::_Tree_simple_types<std::pair<luabind::type_id const ,unsigned int> > >,std::_Iterator_base12>::_Tree_unchecked_const_iterator<std::_Tree_val<std::_Tree_simple_types<std::pair<luabind::type_id const ,unsigned int> > >,std::_Iterator_base12>
PUBLIC	??D?$_Tree_const_iterator@V?$_Tree_val@U?$_Tree_simple_types@U?$pair@$$CBVtype_id@luabind@@I@std@@@std@@@std@@@std@@QBEABU?$pair@$$CBVtype_id@luabind@@I@1@XZ ; std::_Tree_const_iterator<std::_Tree_val<std::_Tree_simple_types<std::pair<luabind::type_id const ,unsigned int> > > >::operator*
PUBLIC	??1?$_Tree_const_iterator@V?$_Tree_val@U?$_Tree_simple_types@U?$pair@$$CBVtype_id@luabind@@I@std@@@std@@@std@@@std@@QAE@XZ ; std::_Tree_const_iterator<std::_Tree_val<std::_Tree_simple_types<std::pair<luabind::type_id const ,unsigned int> > > >::~_Tree_const_iterator<std::_Tree_val<std::_Tree_simple_types<std::pair<luabind::type_id const ,unsigned int> > > >
PUBLIC	??0?$_Tree_const_iterator@V?$_Tree_val@U?$_Tree_simple_types@U?$pair@$$CBVtype_id@luabind@@I@std@@@std@@@std@@@std@@QAE@$$QAV01@@Z ; std::_Tree_const_iterator<std::_Tree_val<std::_Tree_simple_types<std::pair<luabind::type_id const ,unsigned int> > > >::_Tree_const_iterator<std::_Tree_val<std::_Tree_simple_types<std::pair<luabind::type_id const ,unsigned int> > > >
PUBLIC	??0?$_Tree_const_iterator@V?$_Tree_val@U?$_Tree_simple_types@U?$pair@$$CBVtype_id@luabind@@I@std@@@std@@@std@@@std@@QAE@PAU?$_Tree_node@U?$pair@$$CBVtype_id@luabind@@I@std@@PAX@1@PBV?$_Tree_val@U?$_Tree_simple_types@U?$pair@$$CBVtype_id@luabind@@I@std@@@std@@@1@@Z ; std::_Tree_const_iterator<std::_Tree_val<std::_Tree_simple_types<std::pair<luabind::type_id const ,unsigned int> > > >::_Tree_const_iterator<std::_Tree_val<std::_Tree_simple_types<std::pair<luabind::type_id const ,unsigned int> > > >
PUBLIC	??D?$_Tree_iterator@V?$_Tree_val@U?$_Tree_simple_types@U?$pair@$$CBVtype_id@luabind@@I@std@@@std@@@std@@@std@@QBEAAU?$pair@$$CBVtype_id@luabind@@I@1@XZ ; std::_Tree_iterator<std::_Tree_val<std::_Tree_simple_types<std::pair<luabind::type_id const ,unsigned int> > > >::operator*
PUBLIC	??C?$_Tree_iterator@V?$_Tree_val@U?$_Tree_simple_types@U?$pair@$$CBVtype_id@luabind@@I@std@@@std@@@std@@@std@@QBEPAU?$pair@$$CBVtype_id@luabind@@I@1@XZ ; std::_Tree_iterator<std::_Tree_val<std::_Tree_simple_types<std::pair<luabind::type_id const ,unsigned int> > > >::operator->
PUBLIC	??1?$_Tree_iterator@V?$_Tree_val@U?$_Tree_simple_types@U?$pair@$$CBVtype_id@luabind@@I@std@@@std@@@std@@@std@@QAE@XZ ; std::_Tree_iterator<std::_Tree_val<std::_Tree_simple_types<std::pair<luabind::type_id const ,unsigned int> > > >::~_Tree_iterator<std::_Tree_val<std::_Tree_simple_types<std::pair<luabind::type_id const ,unsigned int> > > >
PUBLIC	??0?$_Tree_iterator@V?$_Tree_val@U?$_Tree_simple_types@U?$pair@$$CBVtype_id@luabind@@I@std@@@std@@@std@@@std@@QAE@$$QAV01@@Z ; std::_Tree_iterator<std::_Tree_val<std::_Tree_simple_types<std::pair<luabind::type_id const ,unsigned int> > > >::_Tree_iterator<std::_Tree_val<std::_Tree_simple_types<std::pair<luabind::type_id const ,unsigned int> > > >
PUBLIC	??0?$_Tree_iterator@V?$_Tree_val@U?$_Tree_simple_types@U?$pair@$$CBVtype_id@luabind@@I@std@@@std@@@std@@@std@@QAE@PAU?$_Tree_node@U?$pair@$$CBVtype_id@luabind@@I@std@@PAX@1@PBV?$_Tree_val@U?$_Tree_simple_types@U?$pair@$$CBVtype_id@luabind@@I@std@@@std@@@1@@Z ; std::_Tree_iterator<std::_Tree_val<std::_Tree_simple_types<std::pair<luabind::type_id const ,unsigned int> > > >::_Tree_iterator<std::_Tree_val<std::_Tree_simple_types<std::pair<luabind::type_id const ,unsigned int> > > >
PUBLIC	??1?$pair@V?$_Tree_iterator@V?$_Tree_val@U?$_Tree_simple_types@U?$pair@$$CBVtype_id@luabind@@I@std@@@std@@@std@@@std@@_N@std@@QAE@XZ ; std::pair<std::_Tree_iterator<std::_Tree_val<std::_Tree_simple_types<std::pair<luabind::type_id const ,unsigned int> > > >,bool>::~pair<std::_Tree_iterator<std::_Tree_val<std::_Tree_simple_types<std::pair<luabind::type_id const ,unsigned int> > > >,bool>
PUBLIC	?allocate_class_id@detail@luabind@@YAIABVtype_id@2@@Z ; luabind::detail::allocate_class_id
PUBLIC	??0?$allocator@U?$_Tree_node@U?$pair@$$CBV?$tuple@IIIHUnull_type@tuples@boost@@U123@U123@U123@U123@U123@@tuples@boost@@U?$pair@HH@std@@@std@@PAX@std@@@std@@QAE@XZ ; std::allocator<std::_Tree_node<std::pair<boost::tuples::tuple<unsigned int,unsigned int,unsigned int,int,boost::tuples::null_type,boost::tuples::null_type,boost::tuples::null_type,boost::tuples::null_type,boost::tuples::null_type,boost::tuples::null_type> const ,std::pair<int,int> >,void *> >::allocator<std::_Tree_node<std::pair<boost::tuples::tuple<unsigned int,unsigned int,unsigned int,int,boost::tuples::null_type,boost::tuples::null_type,boost::tuples::null_type,boost::tuples::null_type,boost::tuples::null_type,boost::tuples::null_type> const ,std::pair<int,int> >,void *> >
PUBLIC	?deallocate@?$allocator@U?$_Tree_node@U?$pair@$$CBV?$tuple@IIIHUnull_type@tuples@boost@@U123@U123@U123@U123@U123@@tuples@boost@@U?$pair@HH@std@@@std@@PAX@std@@@std@@QAEXQAU?$_Tree_node@U?$pair@$$CBV?$tuple@IIIHUnull_type@tuples@boost@@U123@U123@U123@U123@U123@@tuples@boost@@U?$pair@HH@std@@@std@@PAX@2@I@Z ; std::allocator<std::_Tree_node<std::pair<boost::tuples::tuple<unsigned int,unsigned int,unsigned int,int,boost::tuples::null_type,boost::tuples::null_type,boost::tuples::null_type,boost::tuples::null_type,boost::tuples::null_type,boost::tuples::null_type> const ,std::pair<int,int> >,void *> >::deallocate
PUBLIC	?allocate@?$allocator@U?$_Tree_node@U?$pair@$$CBV?$tuple@IIIHUnull_type@tuples@boost@@U123@U123@U123@U123@U123@@tuples@boost@@U?$pair@HH@std@@@std@@PAX@std@@@std@@QAEPAU?$_Tree_node@U?$pair@$$CBV?$tuple@IIIHUnull_type@tuples@boost@@U123@U123@U123@U123@U123@@tuples@boost@@U?$pair@HH@std@@@std@@PAX@2@I@Z ; std::allocator<std::_Tree_node<std::pair<boost::tuples::tuple<unsigned int,unsigned int,unsigned int,int,boost::tuples::null_type,boost::tuples::null_type,boost::tuples::null_type,boost::tuples::null_type,boost::tuples::null_type,boost::tuples::null_type> const ,std::pair<int,int> >,void *> >::allocate
PUBLIC	?deallocate@?$_Default_allocator_traits@V?$allocator@U?$_Tree_node@U?$pair@$$CBV?$tuple@IIIHUnull_type@tuples@boost@@U123@U123@U123@U123@U123@@tuples@boost@@U?$pair@HH@std@@@std@@PAX@std@@@std@@@std@@SAXAAV?$allocator@U?$_Tree_node@U?$pair@$$CBV?$tuple@IIIHUnull_type@tuples@boost@@U123@U123@U123@U123@U123@@tuples@boost@@U?$pair@HH@std@@@std@@PAX@std@@@2@QAU?$_Tree_node@U?$pair@$$CBV?$tuple@IIIHUnull_type@tuples@boost@@U123@U123@U123@U123@U123@@tuples@boost@@U?$pair@HH@std@@@std@@PAX@2@I@Z ; std::_Default_allocator_traits<std::allocator<std::_Tree_node<std::pair<boost::tuples::tuple<unsigned int,unsigned int,unsigned int,int,boost::tuples::null_type,boost::tuples::null_type,boost::tuples::null_type,boost::tuples::null_type,boost::tuples::null_type,boost::tuples::null_type> const ,std::pair<int,int> >,void *> > >::deallocate
PUBLIC	?max_size@?$_Default_allocator_traits@V?$allocator@U?$_Tree_node@U?$pair@$$CBV?$tuple@IIIHUnull_type@tuples@boost@@U123@U123@U123@U123@U123@@tuples@boost@@U?$pair@HH@std@@@std@@PAX@std@@@std@@@std@@SAIABV?$allocator@U?$_Tree_node@U?$pair@$$CBV?$tuple@IIIHUnull_type@tuples@boost@@U123@U123@U123@U123@U123@@tuples@boost@@U?$pair@HH@std@@@std@@PAX@std@@@2@@Z ; std::_Default_allocator_traits<std::allocator<std::_Tree_node<std::pair<boost::tuples::tuple<unsigned int,unsigned int,unsigned int,int,boost::tuples::null_type,boost::tuples::null_type,boost::tuples::null_type,boost::tuples::null_type,boost::tuples::null_type,boost::tuples::null_type> const ,std::pair<int,int> >,void *> > >::max_size
PUBLIC	??0?$_Tree@V?$_Tmap_traits@V?$tuple@IIIHUnull_type@tuples@boost@@U123@U123@U123@U123@U123@@tuples@boost@@U?$pair@HH@std@@U?$less@V?$tuple@IIIHUnull_type@tuples@boost@@U123@U123@U123@U123@U123@@tuples@boost@@@5@V?$allocator@U?$pair@$$CBV?$tuple@IIIHUnull_type@tuples@boost@@U123@U123@U123@U123@U123@@tuples@boost@@U?$pair@HH@std@@@std@@@5@$0A@@std@@@std@@QAE@ABU?$less@V?$tuple@IIIHUnull_type@tuples@boost@@U123@U123@U123@U123@U123@@tuples@boost@@@1@@Z ; std::_Tree<std::_Tmap_traits<boost::tuples::tuple<unsigned int,unsigned int,unsigned int,int,boost::tuples::null_type,boost::tuples::null_type,boost::tuples::null_type,boost::tuples::null_type,boost::tuples::null_type,boost::tuples::null_type>,std::pair<int,int>,std::less<boost::tuples::tuple<unsigned int,unsigned int,unsigned int,int,boost::tuples::null_type,boost::tuples::null_type,boost::tuples::null_type,boost::tuples::null_type,boost::tuples::null_type,boost::tuples::null_type> >,std::allocator<std::pair<boost::tuples::tuple<unsigned int,unsigned int,unsigned int,int,boost::tuples::null_type,boost::tuples::null_type,boost::tuples::null_type,boost::tuples::null_type,boost::tuples::null_type,boost::tuples::null_type> const ,std::pair<int,int> > >,0> >::_Tree<std::_Tmap_traits<boost::tuples::tuple<unsigned int,unsigned int,unsigned int,int,boost::tuples::null_type,boost::tuples::null_type,boost::tuples::null_type,boost::tuples::null_type,boost::tuples::null_type,boost::tuples::null_type>,std::pair<int,int>,std::less<boost::tuples::tuple<unsigned int,unsigned int,unsigned int,int,boost::tuples::null_type,boost::tuples::null_type,boost::tuples::null_type,boost::tuples::null_type,boost::tuples::null_type,boost::tuples::null_type> >,std::allocator<std::pair<boost::tuples::tuple<unsigned int,unsigned int,unsigned int,int,boost::tuples::null_type,boost::tuples::null_type,boost::tuples::null_type,boost::tuples::null_type,boost::tuples::null_type,boost::tuples::null_type> const ,std::pair<int,int> > >,0> >
PUBLIC	??1?$_Tree@V?$_Tmap_traits@V?$tuple@IIIHUnull_type@tuples@boost@@U123@U123@U123@U123@U123@@tuples@boost@@U?$pair@HH@std@@U?$less@V?$tuple@IIIHUnull_type@tuples@boost@@U123@U123@U123@U123@U123@@tuples@boost@@@5@V?$allocator@U?$pair@$$CBV?$tuple@IIIHUnull_type@tuples@boost@@U123@U123@U123@U123@U123@@tuples@boost@@U?$pair@HH@std@@@std@@@5@$0A@@std@@@std@@QAE@XZ ; std::_Tree<std::_Tmap_traits<boost::tuples::tuple<unsigned int,unsigned int,unsigned int,int,boost::tuples::null_type,boost::tuples::null_type,boost::tuples::null_type,boost::tuples::null_type,boost::tuples::null_type,boost::tuples::null_type>,std::pair<int,int>,std::less<boost::tuples::tuple<unsigned int,unsigned int,unsigned int,int,boost::tuples::null_type,boost::tuples::null_type,boost::tuples::null_type,boost::tuples::null_type,boost::tuples::null_type,boost::tuples::null_type> >,std::allocator<std::pair<boost::tuples::tuple<unsigned int,unsigned int,unsigned int,int,boost::tuples::null_type,boost::tuples::null_type,boost::tuples::null_type,boost::tuples::null_type,boost::tuples::null_type,boost::tuples::null_type> const ,std::pair<int,int> > >,0> >::~_Tree<std::_Tmap_traits<boost::tuples::tuple<unsigned int,unsigned int,unsigned int,int,boost::tuples::null_type,boost::tuples::null_type,boost::tuples::null_type,boost::tuples::null_type,boost::tuples::null_type,boost::tuples::null_type>,std::pair<int,int>,std::less<boost::tuples::tuple<unsigned int,unsigned int,unsigned int,int,boost::tuples::null_type,boost::tuples::null_type,boost::tuples::null_type,boost::tuples::null_type,boost::tuples::null_type,boost::tuples::null_type> >,std::allocator<std::pair<boost::tuples::tuple<unsigned int,unsigned int,unsigned int,int,boost::tuples::null_type,boost::tuples::null_type,boost::tuples::null_type,boost::tuples::null_type,boost::tuples::null_type,boost::tuples::null_type> const ,std::pair<int,int> > >,0> >
PUBLIC	?end@?$_Tree@V?$_Tmap_traits@V?$tuple@IIIHUnull_type@tuples@boost@@U123@U123@U123@U123@U123@@tuples@boost@@U?$pair@HH@std@@U?$less@V?$tuple@IIIHUnull_type@tuples@boost@@U123@U123@U123@U123@U123@@tuples@boost@@@5@V?$allocator@U?$pair@$$CBV?$tuple@IIIHUnull_type@tuples@boost@@U123@U123@U123@U123@U123@@tuples@boost@@U?$pair@HH@std@@@std@@@5@$0A@@std@@@std@@QBE?AV?$_Tree_const_iterator@V?$_Tree_val@U?$_Tree_simple_types@U?$pair@$$CBV?$tuple@IIIHUnull_type@tuples@boost@@U123@U123@U123@U123@U123@@tuples@boost@@U?$pair@HH@std@@@std@@@std@@@std@@@2@XZ ; std::_Tree<std::_Tmap_traits<boost::tuples::tuple<unsigned int,unsigned int,unsigned int,int,boost::tuples::null_type,boost::tuples::null_type,boost::tuples::null_type,boost::tuples::null_type,boost::tuples::null_type,boost::tuples::null_type>,std::pair<int,int>,std::less<boost::tuples::tuple<unsigned int,unsigned int,unsigned int,int,boost::tuples::null_type,boost::tuples::null_type,boost::tuples::null_type,boost::tuples::null_type,boost::tuples::null_type,boost::tuples::null_type> >,std::allocator<std::pair<boost::tuples::tuple<unsigned int,unsigned int,unsigned int,int,boost::tuples::null_type,boost::tuples::null_type,boost::tuples::null_type,boost::tuples::null_type,boost::tuples::null_type,boost::tuples::null_type> const ,std::pair<int,int> > >,0> >::end
PUBLIC	?max_size@?$_Tree@V?$_Tmap_traits@V?$tuple@IIIHUnull_type@tuples@boost@@U123@U123@U123@U123@U123@@tuples@boost@@U?$pair@HH@std@@U?$less@V?$tuple@IIIHUnull_type@tuples@boost@@U123@U123@U123@U123@U123@@tuples@boost@@@5@V?$allocator@U?$pair@$$CBV?$tuple@IIIHUnull_type@tuples@boost@@U123@U123@U123@U123@U123@@tuples@boost@@U?$pair@HH@std@@@std@@@5@$0A@@std@@@std@@QBEIXZ ; std::_Tree<std::_Tmap_traits<boost::tuples::tuple<unsigned int,unsigned int,unsigned int,int,boost::tuples::null_type,boost::tuples::null_type,boost::tuples::null_type,boost::tuples::null_type,boost::tuples::null_type,boost::tuples::null_type>,std::pair<int,int>,std::less<boost::tuples::tuple<unsigned int,unsigned int,unsigned int,int,boost::tuples::null_type,boost::tuples::null_type,boost::tuples::null_type,boost::tuples::null_type,boost::tuples::null_type,boost::tuples::null_type> >,std::allocator<std::pair<boost::tuples::tuple<unsigned int,unsigned int,unsigned int,int,boost::tuples::null_type,boost::tuples::null_type,boost::tuples::null_type,boost::tuples::null_type,boost::tuples::null_type,boost::tuples::null_type> const ,std::pair<int,int> > >,0> >::max_size
PUBLIC	?clear@?$_Tree@V?$_Tmap_traits@V?$tuple@IIIHUnull_type@tuples@boost@@U123@U123@U123@U123@U123@@tuples@boost@@U?$pair@HH@std@@U?$less@V?$tuple@IIIHUnull_type@tuples@boost@@U123@U123@U123@U123@U123@@tuples@boost@@@5@V?$allocator@U?$pair@$$CBV?$tuple@IIIHUnull_type@tuples@boost@@U123@U123@U123@U123@U123@@tuples@boost@@U?$pair@HH@std@@@std@@@5@$0A@@std@@@std@@QAEXXZ ; std::_Tree<std::_Tmap_traits<boost::tuples::tuple<unsigned int,unsigned int,unsigned int,int,boost::tuples::null_type,boost::tuples::null_type,boost::tuples::null_type,boost::tuples::null_type,boost::tuples::null_type,boost::tuples::null_type>,std::pair<int,int>,std::less<boost::tuples::tuple<unsigned int,unsigned int,unsigned int,int,boost::tuples::null_type,boost::tuples::null_type,boost::tuples::null_type,boost::tuples::null_type,boost::tuples::null_type,boost::tuples::null_type> >,std::allocator<std::pair<boost::tuples::tuple<unsigned int,unsigned int,unsigned int,int,boost::tuples::null_type,boost::tuples::null_type,boost::tuples::null_type,boost::tuples::null_type,boost::tuples::null_type,boost::tuples::null_type> const ,std::pair<int,int> > >,0> >::clear
PUBLIC	?find@?$_Tree@V?$_Tmap_traits@V?$tuple@IIIHUnull_type@tuples@boost@@U123@U123@U123@U123@U123@@tuples@boost@@U?$pair@HH@std@@U?$less@V?$tuple@IIIHUnull_type@tuples@boost@@U123@U123@U123@U123@U123@@tuples@boost@@@5@V?$allocator@U?$pair@$$CBV?$tuple@IIIHUnull_type@tuples@boost@@U123@U123@U123@U123@U123@@tuples@boost@@U?$pair@HH@std@@@std@@@5@$0A@@std@@@std@@QBE?AV?$_Tree_const_iterator@V?$_Tree_val@U?$_Tree_simple_types@U?$pair@$$CBV?$tuple@IIIHUnull_type@tuples@boost@@U123@U123@U123@U123@U123@@tuples@boost@@U?$pair@HH@std@@@std@@@std@@@std@@@2@ABV?$tuple@IIIHUnull_type@tuples@boost@@U123@U123@U123@U123@U123@@tuples@boost@@@Z ; std::_Tree<std::_Tmap_traits<boost::tuples::tuple<unsigned int,unsigned int,unsigned int,int,boost::tuples::null_type,boost::tuples::null_type,boost::tuples::null_type,boost::tuples::null_type,boost::tuples::null_type,boost::tuples::null_type>,std::pair<int,int>,std::less<boost::tuples::tuple<unsigned int,unsigned int,unsigned int,int,boost::tuples::null_type,boost::tuples::null_type,boost::tuples::null_type,boost::tuples::null_type,boost::tuples::null_type,boost::tuples::null_type> >,std::allocator<std::pair<boost::tuples::tuple<unsigned int,unsigned int,unsigned int,int,boost::tuples::null_type,boost::tuples::null_type,boost::tuples::null_type,boost::tuples::null_type,boost::tuples::null_type,boost::tuples::null_type> const ,std::pair<int,int> > >,0> >::find
PUBLIC	?_Check_grow_by_1@?$_Tree@V?$_Tmap_traits@V?$tuple@IIIHUnull_type@tuples@boost@@U123@U123@U123@U123@U123@@tuples@boost@@U?$pair@HH@std@@U?$less@V?$tuple@IIIHUnull_type@tuples@boost@@U123@U123@U123@U123@U123@@tuples@boost@@@5@V?$allocator@U?$pair@$$CBV?$tuple@IIIHUnull_type@tuples@boost@@U123@U123@U123@U123@U123@@tuples@boost@@U?$pair@HH@std@@@std@@@5@$0A@@std@@@std@@IAEXXZ ; std::_Tree<std::_Tmap_traits<boost::tuples::tuple<unsigned int,unsigned int,unsigned int,int,boost::tuples::null_type,boost::tuples::null_type,boost::tuples::null_type,boost::tuples::null_type,boost::tuples::null_type,boost::tuples::null_type>,std::pair<int,int>,std::less<boost::tuples::tuple<unsigned int,unsigned int,unsigned int,int,boost::tuples::null_type,boost::tuples::null_type,boost::tuples::null_type,boost::tuples::null_type,boost::tuples::null_type,boost::tuples::null_type> >,std::allocator<std::pair<boost::tuples::tuple<unsigned int,unsigned int,unsigned int,int,boost::tuples::null_type,boost::tuples::null_type,boost::tuples::null_type,boost::tuples::null_type,boost::tuples::null_type,boost::tuples::null_type> const ,std::pair<int,int> > >,0> >::_Check_grow_by_1
PUBLIC	?_Alloc_sentinel_and_proxy@?$_Tree@V?$_Tmap_traits@V?$tuple@IIIHUnull_type@tuples@boost@@U123@U123@U123@U123@U123@@tuples@boost@@U?$pair@HH@std@@U?$less@V?$tuple@IIIHUnull_type@tuples@boost@@U123@U123@U123@U123@U123@@tuples@boost@@@5@V?$allocator@U?$pair@$$CBV?$tuple@IIIHUnull_type@tuples@boost@@U123@U123@U123@U123@U123@@tuples@boost@@U?$pair@HH@std@@@std@@@5@$0A@@std@@@std@@IAEXXZ ; std::_Tree<std::_Tmap_traits<boost::tuples::tuple<unsigned int,unsigned int,unsigned int,int,boost::tuples::null_type,boost::tuples::null_type,boost::tuples::null_type,boost::tuples::null_type,boost::tuples::null_type,boost::tuples::null_type>,std::pair<int,int>,std::less<boost::tuples::tuple<unsigned int,unsigned int,unsigned int,int,boost::tuples::null_type,boost::tuples::null_type,boost::tuples::null_type,boost::tuples::null_type,boost::tuples::null_type,boost::tuples::null_type> >,std::allocator<std::pair<boost::tuples::tuple<unsigned int,unsigned int,unsigned int,int,boost::tuples::null_type,boost::tuples::null_type,boost::tuples::null_type,boost::tuples::null_type,boost::tuples::null_type,boost::tuples::null_type> const ,std::pair<int,int> > >,0> >::_Alloc_sentinel_and_proxy
PUBLIC	?_Getcomp@?$_Tree@V?$_Tmap_traits@V?$tuple@IIIHUnull_type@tuples@boost@@U123@U123@U123@U123@U123@@tuples@boost@@U?$pair@HH@std@@U?$less@V?$tuple@IIIHUnull_type@tuples@boost@@U123@U123@U123@U123@U123@@tuples@boost@@@5@V?$allocator@U?$pair@$$CBV?$tuple@IIIHUnull_type@tuples@boost@@U123@U123@U123@U123@U123@@tuples@boost@@U?$pair@HH@std@@@std@@@5@$0A@@std@@@std@@IBEABU?$less@V?$tuple@IIIHUnull_type@tuples@boost@@U123@U123@U123@U123@U123@@tuples@boost@@@2@XZ ; std::_Tree<std::_Tmap_traits<boost::tuples::tuple<unsigned int,unsigned int,unsigned int,int,boost::tuples::null_type,boost::tuples::null_type,boost::tuples::null_type,boost::tuples::null_type,boost::tuples::null_type,boost::tuples::null_type>,std::pair<int,int>,std::less<boost::tuples::tuple<unsigned int,unsigned int,unsigned int,int,boost::tuples::null_type,boost::tuples::null_type,boost::tuples::null_type,boost::tuples::null_type,boost::tuples::null_type,boost::tuples::null_type> >,std::allocator<std::pair<boost::tuples::tuple<unsigned int,unsigned int,unsigned int,int,boost::tuples::null_type,boost::tuples::null_type,boost::tuples::null_type,boost::tuples::null_type,boost::tuples::null_type,boost::tuples::null_type> const ,std::pair<int,int> > >,0> >::_Getcomp
PUBLIC	?_Getal@?$_Tree@V?$_Tmap_traits@V?$tuple@IIIHUnull_type@tuples@boost@@U123@U123@U123@U123@U123@@tuples@boost@@U?$pair@HH@std@@U?$less@V?$tuple@IIIHUnull_type@tuples@boost@@U123@U123@U123@U123@U123@@tuples@boost@@@5@V?$allocator@U?$pair@$$CBV?$tuple@IIIHUnull_type@tuples@boost@@U123@U123@U123@U123@U123@@tuples@boost@@U?$pair@HH@std@@@std@@@5@$0A@@std@@@std@@IAEAAV?$allocator@U?$_Tree_node@U?$pair@$$CBV?$tuple@IIIHUnull_type@tuples@boost@@U123@U123@U123@U123@U123@@tuples@boost@@U?$pair@HH@std@@@std@@PAX@std@@@2@XZ ; std::_Tree<std::_Tmap_traits<boost::tuples::tuple<unsigned int,unsigned int,unsigned int,int,boost::tuples::null_type,boost::tuples::null_type,boost::tuples::null_type,boost::tuples::null_type,boost::tuples::null_type,boost::tuples::null_type>,std::pair<int,int>,std::less<boost::tuples::tuple<unsigned int,unsigned int,unsigned int,int,boost::tuples::null_type,boost::tuples::null_type,boost::tuples::null_type,boost::tuples::null_type,boost::tuples::null_type,boost::tuples::null_type> >,std::allocator<std::pair<boost::tuples::tuple<unsigned int,unsigned int,unsigned int,int,boost::tuples::null_type,boost::tuples::null_type,boost::tuples::null_type,boost::tuples::null_type,boost::tuples::null_type,boost::tuples::null_type> const ,std::pair<int,int> > >,0> >::_Getal
PUBLIC	?_Getal@?$_Tree@V?$_Tmap_traits@V?$tuple@IIIHUnull_type@tuples@boost@@U123@U123@U123@U123@U123@@tuples@boost@@U?$pair@HH@std@@U?$less@V?$tuple@IIIHUnull_type@tuples@boost@@U123@U123@U123@U123@U123@@tuples@boost@@@5@V?$allocator@U?$pair@$$CBV?$tuple@IIIHUnull_type@tuples@boost@@U123@U123@U123@U123@U123@@tuples@boost@@U?$pair@HH@std@@@std@@@5@$0A@@std@@@std@@IBEABV?$allocator@U?$_Tree_node@U?$pair@$$CBV?$tuple@IIIHUnull_type@tuples@boost@@U123@U123@U123@U123@U123@@tuples@boost@@U?$pair@HH@std@@@std@@PAX@std@@@2@XZ ; std::_Tree<std::_Tmap_traits<boost::tuples::tuple<unsigned int,unsigned int,unsigned int,int,boost::tuples::null_type,boost::tuples::null_type,boost::tuples::null_type,boost::tuples::null_type,boost::tuples::null_type,boost::tuples::null_type>,std::pair<int,int>,std::less<boost::tuples::tuple<unsigned int,unsigned int,unsigned int,int,boost::tuples::null_type,boost::tuples::null_type,boost::tuples::null_type,boost::tuples::null_type,boost::tuples::null_type,boost::tuples::null_type> >,std::allocator<std::pair<boost::tuples::tuple<unsigned int,unsigned int,unsigned int,int,boost::tuples::null_type,boost::tuples::null_type,boost::tuples::null_type,boost::tuples::null_type,boost::tuples::null_type,boost::tuples::null_type> const ,std::pair<int,int> > >,0> >::_Getal
PUBLIC	?_Get_scary@?$_Tree@V?$_Tmap_traits@V?$tuple@IIIHUnull_type@tuples@boost@@U123@U123@U123@U123@U123@@tuples@boost@@U?$pair@HH@std@@U?$less@V?$tuple@IIIHUnull_type@tuples@boost@@U123@U123@U123@U123@U123@@tuples@boost@@@5@V?$allocator@U?$pair@$$CBV?$tuple@IIIHUnull_type@tuples@boost@@U123@U123@U123@U123@U123@@tuples@boost@@U?$pair@HH@std@@@std@@@5@$0A@@std@@@std@@IAEPAV?$_Tree_val@U?$_Tree_simple_types@U?$pair@$$CBV?$tuple@IIIHUnull_type@tuples@boost@@U123@U123@U123@U123@U123@@tuples@boost@@U?$pair@HH@std@@@std@@@std@@@2@XZ ; std::_Tree<std::_Tmap_traits<boost::tuples::tuple<unsigned int,unsigned int,unsigned int,int,boost::tuples::null_type,boost::tuples::null_type,boost::tuples::null_type,boost::tuples::null_type,boost::tuples::null_type,boost::tuples::null_type>,std::pair<int,int>,std::less<boost::tuples::tuple<unsigned int,unsigned int,unsigned int,int,boost::tuples::null_type,boost::tuples::null_type,boost::tuples::null_type,boost::tuples::null_type,boost::tuples::null_type,boost::tuples::null_type> >,std::allocator<std::pair<boost::tuples::tuple<unsigned int,unsigned int,unsigned int,int,boost::tuples::null_type,boost::tuples::null_type,boost::tuples::null_type,boost::tuples::null_type,boost::tuples::null_type,boost::tuples::null_type> const ,std::pair<int,int> > >,0> >::_Get_scary
PUBLIC	?_Get_scary@?$_Tree@V?$_Tmap_traits@V?$tuple@IIIHUnull_type@tuples@boost@@U123@U123@U123@U123@U123@@tuples@boost@@U?$pair@HH@std@@U?$less@V?$tuple@IIIHUnull_type@tuples@boost@@U123@U123@U123@U123@U123@@tuples@boost@@@5@V?$allocator@U?$pair@$$CBV?$tuple@IIIHUnull_type@tuples@boost@@U123@U123@U123@U123@U123@@tuples@boost@@U?$pair@HH@std@@@std@@@5@$0A@@std@@@std@@IBEPBV?$_Tree_val@U?$_Tree_simple_types@U?$pair@$$CBV?$tuple@IIIHUnull_type@tuples@boost@@U123@U123@U123@U123@U123@@tuples@boost@@U?$pair@HH@std@@@std@@@std@@@2@XZ ; std::_Tree<std::_Tmap_traits<boost::tuples::tuple<unsigned int,unsigned int,unsigned int,int,boost::tuples::null_type,boost::tuples::null_type,boost::tuples::null_type,boost::tuples::null_type,boost::tuples::null_type,boost::tuples::null_type>,std::pair<int,int>,std::less<boost::tuples::tuple<unsigned int,unsigned int,unsigned int,int,boost::tuples::null_type,boost::tuples::null_type,boost::tuples::null_type,boost::tuples::null_type,boost::tuples::null_type,boost::tuples::null_type> >,std::allocator<std::pair<boost::tuples::tuple<unsigned int,unsigned int,unsigned int,int,boost::tuples::null_type,boost::tuples::null_type,boost::tuples::null_type,boost::tuples::null_type,boost::tuples::null_type,boost::tuples::null_type> const ,std::pair<int,int> > >,0> >::_Get_scary
PUBLIC	??R?$less@V?$tuple@IIIHUnull_type@tuples@boost@@U123@U123@U123@U123@U123@@tuples@boost@@@std@@QBE_NABV?$tuple@IIIHUnull_type@tuples@boost@@U123@U123@U123@U123@U123@@tuples@boost@@0@Z ; std::less<boost::tuples::tuple<unsigned int,unsigned int,unsigned int,int,boost::tuples::null_type,boost::tuples::null_type,boost::tuples::null_type,boost::tuples::null_type,boost::tuples::null_type,boost::tuples::null_type> >::operator()
PUBLIC	??0?$_Tree_val@U?$_Tree_simple_types@U?$pair@$$CBV?$tuple@IIIHUnull_type@tuples@boost@@U123@U123@U123@U123@U123@@tuples@boost@@U?$pair@HH@std@@@std@@@std@@@std@@QAE@XZ ; std::_Tree_val<std::_Tree_simple_types<std::pair<boost::tuples::tuple<unsigned int,unsigned int,unsigned int,int,boost::tuples::null_type,boost::tuples::null_type,boost::tuples::null_type,boost::tuples::null_type,boost::tuples::null_type,boost::tuples::null_type> const ,std::pair<int,int> > > >::_Tree_val<std::_Tree_simple_types<std::pair<boost::tuples::tuple<unsigned int,unsigned int,unsigned int,int,boost::tuples::null_type,boost::tuples::null_type,boost::tuples::null_type,boost::tuples::null_type,boost::tuples::null_type,boost::tuples::null_type> const ,std::pair<int,int> > > >
PUBLIC	?_Lrotate@?$_Tree_val@U?$_Tree_simple_types@U?$pair@$$CBV?$tuple@IIIHUnull_type@tuples@boost@@U123@U123@U123@U123@U123@@tuples@boost@@U?$pair@HH@std@@@std@@@std@@@std@@QAEXPAU?$_Tree_node@U?$pair@$$CBV?$tuple@IIIHUnull_type@tuples@boost@@U123@U123@U123@U123@U123@@tuples@boost@@U?$pair@HH@std@@@std@@PAX@2@@Z ; std::_Tree_val<std::_Tree_simple_types<std::pair<boost::tuples::tuple<unsigned int,unsigned int,unsigned int,int,boost::tuples::null_type,boost::tuples::null_type,boost::tuples::null_type,boost::tuples::null_type,boost::tuples::null_type,boost::tuples::null_type> const ,std::pair<int,int> > > >::_Lrotate
PUBLIC	?_Rrotate@?$_Tree_val@U?$_Tree_simple_types@U?$pair@$$CBV?$tuple@IIIHUnull_type@tuples@boost@@U123@U123@U123@U123@U123@@tuples@boost@@U?$pair@HH@std@@@std@@@std@@@std@@QAEXPAU?$_Tree_node@U?$pair@$$CBV?$tuple@IIIHUnull_type@tuples@boost@@U123@U123@U123@U123@U123@@tuples@boost@@U?$pair@HH@std@@@std@@PAX@2@@Z ; std::_Tree_val<std::_Tree_simple_types<std::pair<boost::tuples::tuple<unsigned int,unsigned int,unsigned int,int,boost::tuples::null_type,boost::tuples::null_type,boost::tuples::null_type,boost::tuples::null_type,boost::tuples::null_type,boost::tuples::null_type> const ,std::pair<int,int> > > >::_Rrotate
PUBLIC	?_Insert_node@?$_Tree_val@U?$_Tree_simple_types@U?$pair@$$CBV?$tuple@IIIHUnull_type@tuples@boost@@U123@U123@U123@U123@U123@@tuples@boost@@U?$pair@HH@std@@@std@@@std@@@std@@QAEPAU?$_Tree_node@U?$pair@$$CBV?$tuple@IIIHUnull_type@tuples@boost@@U123@U123@U123@U123@U123@@tuples@boost@@U?$pair@HH@std@@@std@@PAX@2@U?$_Tree_id@PAU?$_Tree_node@U?$pair@$$CBV?$tuple@IIIHUnull_type@tuples@boost@@U123@U123@U123@U123@U123@@tuples@boost@@U?$pair@HH@std@@@std@@PAX@std@@@2@QAU32@@Z ; std::_Tree_val<std::_Tree_simple_types<std::pair<boost::tuples::tuple<unsigned int,unsigned int,unsigned int,int,boost::tuples::null_type,boost::tuples::null_type,boost::tuples::null_type,boost::tuples::null_type,boost::tuples::null_type,boost::tuples::null_type> const ,std::pair<int,int> > > >::_Insert_node
PUBLIC	?_Orphan_ptr@?$_Tree_val@U?$_Tree_simple_types@U?$pair@$$CBV?$tuple@IIIHUnull_type@tuples@boost@@U123@U123@U123@U123@U123@@tuples@boost@@U?$pair@HH@std@@@std@@@std@@@std@@QAEXQAU?$_Tree_node@U?$pair@$$CBV?$tuple@IIIHUnull_type@tuples@boost@@U123@U123@U123@U123@U123@@tuples@boost@@U?$pair@HH@std@@@std@@PAX@2@@Z ; std::_Tree_val<std::_Tree_simple_types<std::pair<boost::tuples::tuple<unsigned int,unsigned int,unsigned int,int,boost::tuples::null_type,boost::tuples::null_type,boost::tuples::null_type,boost::tuples::null_type,boost::tuples::null_type,boost::tuples::null_type> const ,std::pair<int,int> > > >::_Orphan_ptr
PUBLIC	?_Get_first@?$_Compressed_pair@V?$allocator@U?$_Tree_node@U?$pair@$$CBV?$tuple@IIIHUnull_type@tuples@boost@@U123@U123@U123@U123@U123@@tuples@boost@@U?$pair@HH@std@@@std@@PAX@std@@@std@@V?$_Tree_val@U?$_Tree_simple_types@U?$pair@$$CBV?$tuple@IIIHUnull_type@tuples@boost@@U123@U123@U123@U123@U123@@tuples@boost@@U?$pair@HH@std@@@std@@@std@@@2@$00@std@@QAEAAV?$allocator@U?$_Tree_node@U?$pair@$$CBV?$tuple@IIIHUnull_type@tuples@boost@@U123@U123@U123@U123@U123@@tuples@boost@@U?$pair@HH@std@@@std@@PAX@std@@@2@XZ ; std::_Compressed_pair<std::allocator<std::_Tree_node<std::pair<boost::tuples::tuple<unsigned int,unsigned int,unsigned int,int,boost::tuples::null_type,boost::tuples::null_type,boost::tuples::null_type,boost::tuples::null_type,boost::tuples::null_type,boost::tuples::null_type> const ,std::pair<int,int> >,void *> >,std::_Tree_val<std::_Tree_simple_types<std::pair<boost::tuples::tuple<unsigned int,unsigned int,unsigned int,int,boost::tuples::null_type,boost::tuples::null_type,boost::tuples::null_type,boost::tuples::null_type,boost::tuples::null_type,boost::tuples::null_type> const ,std::pair<int,int> > > >,1>::_Get_first
PUBLIC	?_Get_first@?$_Compressed_pair@V?$allocator@U?$_Tree_node@U?$pair@$$CBV?$tuple@IIIHUnull_type@tuples@boost@@U123@U123@U123@U123@U123@@tuples@boost@@U?$pair@HH@std@@@std@@PAX@std@@@std@@V?$_Tree_val@U?$_Tree_simple_types@U?$pair@$$CBV?$tuple@IIIHUnull_type@tuples@boost@@U123@U123@U123@U123@U123@@tuples@boost@@U?$pair@HH@std@@@std@@@std@@@2@$00@std@@QBEABV?$allocator@U?$_Tree_node@U?$pair@$$CBV?$tuple@IIIHUnull_type@tuples@boost@@U123@U123@U123@U123@U123@@tuples@boost@@U?$pair@HH@std@@@std@@PAX@std@@@2@XZ ; std::_Compressed_pair<std::allocator<std::_Tree_node<std::pair<boost::tuples::tuple<unsigned int,unsigned int,unsigned int,int,boost::tuples::null_type,boost::tuples::null_type,boost::tuples::null_type,boost::tuples::null_type,boost::tuples::null_type,boost::tuples::null_type> const ,std::pair<int,int> >,void *> >,std::_Tree_val<std::_Tree_simple_types<std::pair<boost::tuples::tuple<unsigned int,unsigned int,unsigned int,int,boost::tuples::null_type,boost::tuples::null_type,boost::tuples::null_type,boost::tuples::null_type,boost::tuples::null_type,boost::tuples::null_type> const ,std::pair<int,int> > > >,1>::_Get_first
PUBLIC	?_Get_first@?$_Compressed_pair@U?$less@V?$tuple@IIIHUnull_type@tuples@boost@@U123@U123@U123@U123@U123@@tuples@boost@@@std@@V?$_Compressed_pair@V?$allocator@U?$_Tree_node@U?$pair@$$CBV?$tuple@IIIHUnull_type@tuples@boost@@U123@U123@U123@U123@U123@@tuples@boost@@U?$pair@HH@std@@@std@@PAX@std@@@std@@V?$_Tree_val@U?$_Tree_simple_types@U?$pair@$$CBV?$tuple@IIIHUnull_type@tuples@boost@@U123@U123@U123@U123@U123@@tuples@boost@@U?$pair@HH@std@@@std@@@std@@@2@$00@2@$00@std@@QBEABU?$less@V?$tuple@IIIHUnull_type@tuples@boost@@U123@U123@U123@U123@U123@@tuples@boost@@@2@XZ ; std::_Compressed_pair<std::less<boost::tuples::tuple<unsigned int,unsigned int,unsigned int,int,boost::tuples::null_type,boost::tuples::null_type,boost::tuples::null_type,boost::tuples::null_type,boost::tuples::null_type,boost::tuples::null_type> >,std::_Compressed_pair<std::allocator<std::_Tree_node<std::pair<boost::tuples::tuple<unsigned int,unsigned int,unsigned int,int,boost::tuples::null_type,boost::tuples::null_type,boost::tuples::null_type,boost::tuples::null_type,boost::tuples::null_type,boost::tuples::null_type> const ,std::pair<int,int> >,void *> >,std::_Tree_val<std::_Tree_simple_types<std::pair<boost::tuples::tuple<unsigned int,unsigned int,unsigned int,int,boost::tuples::null_type,boost::tuples::null_type,boost::tuples::null_type,boost::tuples::null_type,boost::tuples::null_type,boost::tuples::null_type> const ,std::pair<int,int> > > >,1>,1>::_Get_first
PUBLIC	??0?$map@V?$tuple@IIIHUnull_type@tuples@boost@@U123@U123@U123@U123@U123@@tuples@boost@@U?$pair@HH@std@@U?$less@V?$tuple@IIIHUnull_type@tuples@boost@@U123@U123@U123@U123@U123@@tuples@boost@@@5@V?$allocator@U?$pair@$$CBV?$tuple@IIIHUnull_type@tuples@boost@@U123@U123@U123@U123@U123@@tuples@boost@@U?$pair@HH@std@@@std@@@5@@std@@QAE@XZ ; std::map<boost::tuples::tuple<unsigned int,unsigned int,unsigned int,int,boost::tuples::null_type,boost::tuples::null_type,boost::tuples::null_type,boost::tuples::null_type,boost::tuples::null_type,boost::tuples::null_type>,std::pair<int,int>,std::less<boost::tuples::tuple<unsigned int,unsigned int,unsigned int,int,boost::tuples::null_type,boost::tuples::null_type,boost::tuples::null_type,boost::tuples::null_type,boost::tuples::null_type,boost::tuples::null_type> >,std::allocator<std::pair<boost::tuples::tuple<unsigned int,unsigned int,unsigned int,int,boost::tuples::null_type,boost::tuples::null_type,boost::tuples::null_type,boost::tuples::null_type,boost::tuples::null_type,boost::tuples::null_type> const ,std::pair<int,int> > > >::map<boost::tuples::tuple<unsigned int,unsigned int,unsigned int,int,boost::tuples::null_type,boost::tuples::null_type,boost::tuples::null_type,boost::tuples::null_type,boost::tuples::null_type,boost::tuples::null_type>,std::pair<int,int>,std::less<boost::tuples::tuple<unsigned int,unsigned int,unsigned int,int,boost::tuples::null_type,boost::tuples::null_type,boost::tuples::null_type,boost::tuples::null_type,boost::tuples::null_type,boost::tuples::null_type> >,std::allocator<std::pair<boost::tuples::tuple<unsigned int,unsigned int,unsigned int,int,boost::tuples::null_type,boost::tuples::null_type,boost::tuples::null_type,boost::tuples::null_type,boost::tuples::null_type,boost::tuples::null_type> const ,std::pair<int,int> > > >
PUBLIC	??1?$map@V?$tuple@IIIHUnull_type@tuples@boost@@U123@U123@U123@U123@U123@@tuples@boost@@U?$pair@HH@std@@U?$less@V?$tuple@IIIHUnull_type@tuples@boost@@U123@U123@U123@U123@U123@@tuples@boost@@@5@V?$allocator@U?$pair@$$CBV?$tuple@IIIHUnull_type@tuples@boost@@U123@U123@U123@U123@U123@@tuples@boost@@U?$pair@HH@std@@@std@@@5@@std@@QAE@XZ ; std::map<boost::tuples::tuple<unsigned int,unsigned int,unsigned int,int,boost::tuples::null_type,boost::tuples::null_type,boost::tuples::null_type,boost::tuples::null_type,boost::tuples::null_type,boost::tuples::null_type>,std::pair<int,int>,std::less<boost::tuples::tuple<unsigned int,unsigned int,unsigned int,int,boost::tuples::null_type,boost::tuples::null_type,boost::tuples::null_type,boost::tuples::null_type,boost::tuples::null_type,boost::tuples::null_type> >,std::allocator<std::pair<boost::tuples::tuple<unsigned int,unsigned int,unsigned int,int,boost::tuples::null_type,boost::tuples::null_type,boost::tuples::null_type,boost::tuples::null_type,boost::tuples::null_type,boost::tuples::null_type> const ,std::pair<int,int> > > >::~map<boost::tuples::tuple<unsigned int,unsigned int,unsigned int,int,boost::tuples::null_type,boost::tuples::null_type,boost::tuples::null_type,boost::tuples::null_type,boost::tuples::null_type,boost::tuples::null_type>,std::pair<int,int>,std::less<boost::tuples::tuple<unsigned int,unsigned int,unsigned int,int,boost::tuples::null_type,boost::tuples::null_type,boost::tuples::null_type,boost::tuples::null_type,boost::tuples::null_type,boost::tuples::null_type> >,std::allocator<std::pair<boost::tuples::tuple<unsigned int,unsigned int,unsigned int,int,boost::tuples::null_type,boost::tuples::null_type,boost::tuples::null_type,boost::tuples::null_type,boost::tuples::null_type,boost::tuples::null_type> const ,std::pair<int,int> > > >
PUBLIC	??0?$_Tree_unchecked_const_iterator@V?$_Tree_val@U?$_Tree_simple_types@U?$pair@$$CBV?$tuple@IIIHUnull_type@tuples@boost@@U123@U123@U123@U123@U123@@tuples@boost@@U?$pair@HH@std@@@std@@@std@@@std@@U_Iterator_base12@2@@std@@QAE@PAU?$_Tree_node@U?$pair@$$CBV?$tuple@IIIHUnull_type@tuples@boost@@U123@U123@U123@U123@U123@@tuples@boost@@U?$pair@HH@std@@@std@@PAX@1@PBV?$_Tree_val@U?$_Tree_simple_types@U?$pair@$$CBV?$tuple@IIIHUnull_type@tuples@boost@@U123@U123@U123@U123@U123@@tuples@boost@@U?$pair@HH@std@@@std@@@std@@@1@@Z ; std::_Tree_unchecked_const_iterator<std::_Tree_val<std::_Tree_simple_types<std::pair<boost::tuples::tuple<unsigned int,unsigned int,unsigned int,int,boost::tuples::null_type,boost::tuples::null_type,boost::tuples::null_type,boost::tuples::null_type,boost::tuples::null_type,boost::tuples::null_type> const ,std::pair<int,int> > > >,std::_Iterator_base12>::_Tree_unchecked_const_iterator<std::_Tree_val<std::_Tree_simple_types<std::pair<boost::tuples::tuple<unsigned int,unsigned int,unsigned int,int,boost::tuples::null_type,boost::tuples::null_type,boost::tuples::null_type,boost::tuples::null_type,boost::tuples::null_type,boost::tuples::null_type> const ,std::pair<int,int> > > >,std::_Iterator_base12>
PUBLIC	??1?$_Tree_unchecked_const_iterator@V?$_Tree_val@U?$_Tree_simple_types@U?$pair@$$CBV?$tuple@IIIHUnull_type@tuples@boost@@U123@U123@U123@U123@U123@@tuples@boost@@U?$pair@HH@std@@@std@@@std@@@std@@U_Iterator_base12@2@@std@@QAE@XZ ; std::_Tree_unchecked_const_iterator<std::_Tree_val<std::_Tree_simple_types<std::pair<boost::tuples::tuple<unsigned int,unsigned int,unsigned int,int,boost::tuples::null_type,boost::tuples::null_type,boost::tuples::null_type,boost::tuples::null_type,boost::tuples::null_type,boost::tuples::null_type> const ,std::pair<int,int> > > >,std::_Iterator_base12>::~_Tree_unchecked_const_iterator<std::_Tree_val<std::_Tree_simple_types<std::pair<boost::tuples::tuple<unsigned int,unsigned int,unsigned int,int,boost::tuples::null_type,boost::tuples::null_type,boost::tuples::null_type,boost::tuples::null_type,boost::tuples::null_type,boost::tuples::null_type> const ,std::pair<int,int> > > >,std::_Iterator_base12>
PUBLIC	??0?$_Tree_unchecked_const_iterator@V?$_Tree_val@U?$_Tree_simple_types@U?$pair@$$CBV?$tuple@IIIHUnull_type@tuples@boost@@U123@U123@U123@U123@U123@@tuples@boost@@U?$pair@HH@std@@@std@@@std@@@std@@U_Iterator_base12@2@@std@@QAE@$$QAV01@@Z ; std::_Tree_unchecked_const_iterator<std::_Tree_val<std::_Tree_simple_types<std::pair<boost::tuples::tuple<unsigned int,unsigned int,unsigned int,int,boost::tuples::null_type,boost::tuples::null_type,boost::tuples::null_type,boost::tuples::null_type,boost::tuples::null_type,boost::tuples::null_type> const ,std::pair<int,int> > > >,std::_Iterator_base12>::_Tree_unchecked_const_iterator<std::_Tree_val<std::_Tree_simple_types<std::pair<boost::tuples::tuple<unsigned int,unsigned int,unsigned int,int,boost::tuples::null_type,boost::tuples::null_type,boost::tuples::null_type,boost::tuples::null_type,boost::tuples::null_type,boost::tuples::null_type> const ,std::pair<int,int> > > >,std::_Iterator_base12>
PUBLIC	??D?$_Tree_const_iterator@V?$_Tree_val@U?$_Tree_simple_types@U?$pair@$$CBV?$tuple@IIIHUnull_type@tuples@boost@@U123@U123@U123@U123@U123@@tuples@boost@@U?$pair@HH@std@@@std@@@std@@@std@@@std@@QBEABU?$pair@$$CBV?$tuple@IIIHUnull_type@tuples@boost@@U123@U123@U123@U123@U123@@tuples@boost@@U?$pair@HH@std@@@1@XZ ; std::_Tree_const_iterator<std::_Tree_val<std::_Tree_simple_types<std::pair<boost::tuples::tuple<unsigned int,unsigned int,unsigned int,int,boost::tuples::null_type,boost::tuples::null_type,boost::tuples::null_type,boost::tuples::null_type,boost::tuples::null_type,boost::tuples::null_type> const ,std::pair<int,int> > > > >::operator*
PUBLIC	??C?$_Tree_const_iterator@V?$_Tree_val@U?$_Tree_simple_types@U?$pair@$$CBV?$tuple@IIIHUnull_type@tuples@boost@@U123@U123@U123@U123@U123@@tuples@boost@@U?$pair@HH@std@@@std@@@std@@@std@@@std@@QBEPBU?$pair@$$CBV?$tuple@IIIHUnull_type@tuples@boost@@U123@U123@U123@U123@U123@@tuples@boost@@U?$pair@HH@std@@@1@XZ ; std::_Tree_const_iterator<std::_Tree_val<std::_Tree_simple_types<std::pair<boost::tuples::tuple<unsigned int,unsigned int,unsigned int,int,boost::tuples::null_type,boost::tuples::null_type,boost::tuples::null_type,boost::tuples::null_type,boost::tuples::null_type,boost::tuples::null_type> const ,std::pair<int,int> > > > >::operator->
PUBLIC	??8?$_Tree_const_iterator@V?$_Tree_val@U?$_Tree_simple_types@U?$pair@$$CBV?$tuple@IIIHUnull_type@tuples@boost@@U123@U123@U123@U123@U123@@tuples@boost@@U?$pair@HH@std@@@std@@@std@@@std@@@std@@QBE_NABV01@@Z ; std::_Tree_const_iterator<std::_Tree_val<std::_Tree_simple_types<std::pair<boost::tuples::tuple<unsigned int,unsigned int,unsigned int,int,boost::tuples::null_type,boost::tuples::null_type,boost::tuples::null_type,boost::tuples::null_type,boost::tuples::null_type,boost::tuples::null_type> const ,std::pair<int,int> > > > >::operator==
PUBLIC	??9?$_Tree_const_iterator@V?$_Tree_val@U?$_Tree_simple_types@U?$pair@$$CBV?$tuple@IIIHUnull_type@tuples@boost@@U123@U123@U123@U123@U123@@tuples@boost@@U?$pair@HH@std@@@std@@@std@@@std@@@std@@QBE_NABV01@@Z ; std::_Tree_const_iterator<std::_Tree_val<std::_Tree_simple_types<std::pair<boost::tuples::tuple<unsigned int,unsigned int,unsigned int,int,boost::tuples::null_type,boost::tuples::null_type,boost::tuples::null_type,boost::tuples::null_type,boost::tuples::null_type,boost::tuples::null_type> const ,std::pair<int,int> > > > >::operator!=
PUBLIC	??1?$_Tree_const_iterator@V?$_Tree_val@U?$_Tree_simple_types@U?$pair@$$CBV?$tuple@IIIHUnull_type@tuples@boost@@U123@U123@U123@U123@U123@@tuples@boost@@U?$pair@HH@std@@@std@@@std@@@std@@@std@@QAE@XZ ; std::_Tree_const_iterator<std::_Tree_val<std::_Tree_simple_types<std::pair<boost::tuples::tuple<unsigned int,unsigned int,unsigned int,int,boost::tuples::null_type,boost::tuples::null_type,boost::tuples::null_type,boost::tuples::null_type,boost::tuples::null_type,boost::tuples::null_type> const ,std::pair<int,int> > > > >::~_Tree_const_iterator<std::_Tree_val<std::_Tree_simple_types<std::pair<boost::tuples::tuple<unsigned int,unsigned int,unsigned int,int,boost::tuples::null_type,boost::tuples::null_type,boost::tuples::null_type,boost::tuples::null_type,boost::tuples::null_type,boost::tuples::null_type> const ,std::pair<int,int> > > > >
PUBLIC	??0?$_Tree_const_iterator@V?$_Tree_val@U?$_Tree_simple_types@U?$pair@$$CBV?$tuple@IIIHUnull_type@tuples@boost@@U123@U123@U123@U123@U123@@tuples@boost@@U?$pair@HH@std@@@std@@@std@@@std@@@std@@QAE@$$QAV01@@Z ; std::_Tree_const_iterator<std::_Tree_val<std::_Tree_simple_types<std::pair<boost::tuples::tuple<unsigned int,unsigned int,unsigned int,int,boost::tuples::null_type,boost::tuples::null_type,boost::tuples::null_type,boost::tuples::null_type,boost::tuples::null_type,boost::tuples::null_type> const ,std::pair<int,int> > > > >::_Tree_const_iterator<std::_Tree_val<std::_Tree_simple_types<std::pair<boost::tuples::tuple<unsigned int,unsigned int,unsigned int,int,boost::tuples::null_type,boost::tuples::null_type,boost::tuples::null_type,boost::tuples::null_type,boost::tuples::null_type,boost::tuples::null_type> const ,std::pair<int,int> > > > >
PUBLIC	??0?$_Tree_const_iterator@V?$_Tree_val@U?$_Tree_simple_types@U?$pair@$$CBV?$tuple@IIIHUnull_type@tuples@boost@@U123@U123@U123@U123@U123@@tuples@boost@@U?$pair@HH@std@@@std@@@std@@@std@@@std@@QAE@PAU?$_Tree_node@U?$pair@$$CBV?$tuple@IIIHUnull_type@tuples@boost@@U123@U123@U123@U123@U123@@tuples@boost@@U?$pair@HH@std@@@std@@PAX@1@PBV?$_Tree_val@U?$_Tree_simple_types@U?$pair@$$CBV?$tuple@IIIHUnull_type@tuples@boost@@U123@U123@U123@U123@U123@@tuples@boost@@U?$pair@HH@std@@@std@@@std@@@1@@Z ; std::_Tree_const_iterator<std::_Tree_val<std::_Tree_simple_types<std::pair<boost::tuples::tuple<unsigned int,unsigned int,unsigned int,int,boost::tuples::null_type,boost::tuples::null_type,boost::tuples::null_type,boost::tuples::null_type,boost::tuples::null_type,boost::tuples::null_type> const ,std::pair<int,int> > > > >::_Tree_const_iterator<std::_Tree_val<std::_Tree_simple_types<std::pair<boost::tuples::tuple<unsigned int,unsigned int,unsigned int,int,boost::tuples::null_type,boost::tuples::null_type,boost::tuples::null_type,boost::tuples::null_type,boost::tuples::null_type,boost::tuples::null_type> const ,std::pair<int,int> > > > >
PUBLIC	?get_head@?$cons@HUnull_type@tuples@boost@@@tuples@boost@@QBEABHXZ ; boost::tuples::cons<int,boost::tuples::null_type>::get_head
PUBLIC	?get_tail@?$cons@HUnull_type@tuples@boost@@@tuples@boost@@QBE?BUnull_type@23@XZ ; boost::tuples::cons<int,boost::tuples::null_type>::get_tail
PUBLIC	??0?$cons@HUnull_type@tuples@boost@@@tuples@boost@@QAE@ABU012@@Z ; boost::tuples::cons<int,boost::tuples::null_type>::cons<int,boost::tuples::null_type>
PUBLIC	?get_head@?$cons@IU?$cons@HUnull_type@tuples@boost@@@tuples@boost@@@tuples@boost@@QBEABIXZ ; boost::tuples::cons<unsigned int,boost::tuples::cons<int,boost::tuples::null_type> >::get_head
PUBLIC	?get_tail@?$cons@IU?$cons@HUnull_type@tuples@boost@@@tuples@boost@@@tuples@boost@@QBEABU?$cons@HUnull_type@tuples@boost@@@23@XZ ; boost::tuples::cons<unsigned int,boost::tuples::cons<int,boost::tuples::null_type> >::get_tail
PUBLIC	??0?$cons@IU?$cons@HUnull_type@tuples@boost@@@tuples@boost@@@tuples@boost@@QAE@ABU012@@Z ; boost::tuples::cons<unsigned int,boost::tuples::cons<int,boost::tuples::null_type> >::cons<unsigned int,boost::tuples::cons<int,boost::tuples::null_type> >
PUBLIC	?get_head@?$cons@IU?$cons@IU?$cons@HUnull_type@tuples@boost@@@tuples@boost@@@tuples@boost@@@tuples@boost@@QBEABIXZ ; boost::tuples::cons<unsigned int,boost::tuples::cons<unsigned int,boost::tuples::cons<int,boost::tuples::null_type> > >::get_head
PUBLIC	?get_tail@?$cons@IU?$cons@IU?$cons@HUnull_type@tuples@boost@@@tuples@boost@@@tuples@boost@@@tuples@boost@@QBEABU?$cons@IU?$cons@HUnull_type@tuples@boost@@@tuples@boost@@@23@XZ ; boost::tuples::cons<unsigned int,boost::tuples::cons<unsigned int,boost::tuples::cons<int,boost::tuples::null_type> > >::get_tail
PUBLIC	??0?$cons@IU?$cons@IU?$cons@HUnull_type@tuples@boost@@@tuples@boost@@@tuples@boost@@@tuples@boost@@QAE@ABU012@@Z ; boost::tuples::cons<unsigned int,boost::tuples::cons<unsigned int,boost::tuples::cons<int,boost::tuples::null_type> > >::cons<unsigned int,boost::tuples::cons<unsigned int,boost::tuples::cons<int,boost::tuples::null_type> > >
PUBLIC	?get_head@?$cons@IU?$cons@IU?$cons@IU?$cons@HUnull_type@tuples@boost@@@tuples@boost@@@tuples@boost@@@tuples@boost@@@tuples@boost@@QBEABIXZ ; boost::tuples::cons<unsigned int,boost::tuples::cons<unsigned int,boost::tuples::cons<unsigned int,boost::tuples::cons<int,boost::tuples::null_type> > > >::get_head
PUBLIC	?get_tail@?$cons@IU?$cons@IU?$cons@IU?$cons@HUnull_type@tuples@boost@@@tuples@boost@@@tuples@boost@@@tuples@boost@@@tuples@boost@@QBEABU?$cons@IU?$cons@IU?$cons@HUnull_type@tuples@boost@@@tuples@boost@@@tuples@boost@@@23@XZ ; boost::tuples::cons<unsigned int,boost::tuples::cons<unsigned int,boost::tuples::cons<unsigned int,boost::tuples::cons<int,boost::tuples::null_type> > > >::get_tail
PUBLIC	??0?$cons@IU?$cons@IU?$cons@IU?$cons@HUnull_type@tuples@boost@@@tuples@boost@@@tuples@boost@@@tuples@boost@@@tuples@boost@@QAE@ABU012@@Z ; boost::tuples::cons<unsigned int,boost::tuples::cons<unsigned int,boost::tuples::cons<unsigned int,boost::tuples::cons<int,boost::tuples::null_type> > > >::cons<unsigned int,boost::tuples::cons<unsigned int,boost::tuples::cons<unsigned int,boost::tuples::cons<int,boost::tuples::null_type> > > >
PUBLIC	??0?$tuple@IIIHUnull_type@tuples@boost@@U123@U123@U123@U123@U123@@tuples@boost@@QAE@ABI00ABH@Z ; boost::tuples::tuple<unsigned int,unsigned int,unsigned int,int,boost::tuples::null_type,boost::tuples::null_type,boost::tuples::null_type,boost::tuples::null_type,boost::tuples::null_type,boost::tuples::null_type>::tuple<unsigned int,unsigned int,unsigned int,int,boost::tuples::null_type,boost::tuples::null_type,boost::tuples::null_type,boost::tuples::null_type,boost::tuples::null_type,boost::tuples::null_type>
PUBLIC	??0?$tuple@IIIHUnull_type@tuples@boost@@U123@U123@U123@U123@U123@@tuples@boost@@QAE@$$QAV012@@Z ; boost::tuples::tuple<unsigned int,unsigned int,unsigned int,int,boost::tuples::null_type,boost::tuples::null_type,boost::tuples::null_type,boost::tuples::null_type,boost::tuples::null_type,boost::tuples::null_type>::tuple<unsigned int,unsigned int,unsigned int,int,boost::tuples::null_type,boost::tuples::null_type,boost::tuples::null_type,boost::tuples::null_type,boost::tuples::null_type,boost::tuples::null_type>
PUBLIC	??$?0ABHH$0A@@?$pair@HH@std@@QAE@ABH$$QAH@Z	; std::pair<int,int>::pair<int,int><int const &,int,0>
PUBLIC	??$?0AAHAAI$0A@@?$pair@HH@std@@QAE@AAHAAI@Z	; std::pair<int,int>::pair<int,int><int &,unsigned int &,0>
PUBLIC	??$make_pair@V?$tuple@IIIHUnull_type@tuples@boost@@U123@U123@U123@U123@U123@@tuples@boost@@U?$pair@HH@std@@@std@@YA?AU?$pair@V?$tuple@IIIHUnull_type@tuples@boost@@U123@U123@U123@U123@U123@@tuples@boost@@U?$pair@HH@std@@@0@$$QAV?$tuple@IIIHUnull_type@tuples@boost@@U123@U123@U123@U123@U123@@tuples@boost@@$$QAU?$pair@HH@0@@Z ; std::make_pair<boost::tuples::tuple<unsigned int,unsigned int,unsigned int,int,boost::tuples::null_type,boost::tuples::null_type,boost::tuples::null_type,boost::tuples::null_type,boost::tuples::null_type,boost::tuples::null_type>,std::pair<int,int> >
PUBLIC	??$?0V?$tuple@IIIHUnull_type@tuples@boost@@U123@U123@U123@U123@U123@@tuples@boost@@U?$pair@HH@std@@$0A@@?$pair@$$CBV?$tuple@IIIHUnull_type@tuples@boost@@U123@U123@U123@U123@U123@@tuples@boost@@U?$pair@HH@std@@@std@@QAE@$$QAU?$pair@V?$tuple@IIIHUnull_type@tuples@boost@@U123@U123@U123@U123@U123@@tuples@boost@@U?$pair@HH@std@@@1@@Z ; std::pair<boost::tuples::tuple<unsigned int,unsigned int,unsigned int,int,boost::tuples::null_type,boost::tuples::null_type,boost::tuples::null_type,boost::tuples::null_type,boost::tuples::null_type,boost::tuples::null_type> const ,std::pair<int,int> >::pair<boost::tuples::tuple<unsigned int,unsigned int,unsigned int,int,boost::tuples::null_type,boost::tuples::null_type,boost::tuples::null_type,boost::tuples::null_type,boost::tuples::null_type,boost::tuples::null_type> const ,std::pair<int,int> ><boost::tuples::tuple<unsigned int,unsigned int,unsigned int,int,boost::tuples::null_type,boost::tuples::null_type,boost::tuples::null_type,boost::tuples::null_type,boost::tuples::null_type,boost::tuples::null_type>,std::pair<int,int>,0>
PUBLIC	??$insert@U?$pair@V?$tuple@IIIHUnull_type@tuples@boost@@U123@U123@U123@U123@U123@@tuples@boost@@U?$pair@HH@std@@@std@@$0A@@?$map@V?$tuple@IIIHUnull_type@tuples@boost@@U123@U123@U123@U123@U123@@tuples@boost@@U?$pair@HH@std@@U?$less@V?$tuple@IIIHUnull_type@tuples@boost@@U123@U123@U123@U123@U123@@tuples@boost@@@5@V?$allocator@U?$pair@$$CBV?$tuple@IIIHUnull_type@tuples@boost@@U123@U123@U123@U123@U123@@tuples@boost@@U?$pair@HH@std@@@std@@@5@@std@@QAE?AU?$pair@V?$_Tree_iterator@V?$_Tree_val@U?$_Tree_simple_types@U?$pair@$$CBV?$tuple@IIIHUnull_type@tuples@boost@@U123@U123@U123@U123@U123@@tuples@boost@@U?$pair@HH@std@@@std@@@std@@@std@@@std@@_N@1@$$QAU?$pair@V?$tuple@IIIHUnull_type@tuples@boost@@U123@U123@U123@U123@U123@@tuples@boost@@U?$pair@HH@std@@@1@@Z ; std::map<boost::tuples::tuple<unsigned int,unsigned int,unsigned int,int,boost::tuples::null_type,boost::tuples::null_type,boost::tuples::null_type,boost::tuples::null_type,boost::tuples::null_type,boost::tuples::null_type>,std::pair<int,int>,std::less<boost::tuples::tuple<unsigned int,unsigned int,unsigned int,int,boost::tuples::null_type,boost::tuples::null_type,boost::tuples::null_type,boost::tuples::null_type,boost::tuples::null_type,boost::tuples::null_type> >,std::allocator<std::pair<boost::tuples::tuple<unsigned int,unsigned int,unsigned int,int,boost::tuples::null_type,boost::tuples::null_type,boost::tuples::null_type,boost::tuples::null_type,boost::tuples::null_type,boost::tuples::null_type> const ,std::pair<int,int> > > >::insert<std::pair<boost::tuples::tuple<unsigned int,unsigned int,unsigned int,int,boost::tuples::null_type,boost::tuples::null_type,boost::tuples::null_type,boost::tuples::null_type,boost::tuples::null_type,boost::tuples::null_type>,std::pair<int,int> >,0>
PUBLIC	??1?$_Tree_iterator@V?$_Tree_val@U?$_Tree_simple_types@U?$pair@$$CBV?$tuple@IIIHUnull_type@tuples@boost@@U123@U123@U123@U123@U123@@tuples@boost@@U?$pair@HH@std@@@std@@@std@@@std@@@std@@QAE@XZ ; std::_Tree_iterator<std::_Tree_val<std::_Tree_simple_types<std::pair<boost::tuples::tuple<unsigned int,unsigned int,unsigned int,int,boost::tuples::null_type,boost::tuples::null_type,boost::tuples::null_type,boost::tuples::null_type,boost::tuples::null_type,boost::tuples::null_type> const ,std::pair<int,int> > > > >::~_Tree_iterator<std::_Tree_val<std::_Tree_simple_types<std::pair<boost::tuples::tuple<unsigned int,unsigned int,unsigned int,int,boost::tuples::null_type,boost::tuples::null_type,boost::tuples::null_type,boost::tuples::null_type,boost::tuples::null_type,boost::tuples::null_type> const ,std::pair<int,int> > > > >
PUBLIC	??0?$_Tree_iterator@V?$_Tree_val@U?$_Tree_simple_types@U?$pair@$$CBV?$tuple@IIIHUnull_type@tuples@boost@@U123@U123@U123@U123@U123@@tuples@boost@@U?$pair@HH@std@@@std@@@std@@@std@@@std@@QAE@$$QAV01@@Z ; std::_Tree_iterator<std::_Tree_val<std::_Tree_simple_types<std::pair<boost::tuples::tuple<unsigned int,unsigned int,unsigned int,int,boost::tuples::null_type,boost::tuples::null_type,boost::tuples::null_type,boost::tuples::null_type,boost::tuples::null_type,boost::tuples::null_type> const ,std::pair<int,int> > > > >::_Tree_iterator<std::_Tree_val<std::_Tree_simple_types<std::pair<boost::tuples::tuple<unsigned int,unsigned int,unsigned int,int,boost::tuples::null_type,boost::tuples::null_type,boost::tuples::null_type,boost::tuples::null_type,boost::tuples::null_type,boost::tuples::null_type> const ,std::pair<int,int> > > > >
PUBLIC	??0?$_Tree_iterator@V?$_Tree_val@U?$_Tree_simple_types@U?$pair@$$CBV?$tuple@IIIHUnull_type@tuples@boost@@U123@U123@U123@U123@U123@@tuples@boost@@U?$pair@HH@std@@@std@@@std@@@std@@@std@@QAE@PAU?$_Tree_node@U?$pair@$$CBV?$tuple@IIIHUnull_type@tuples@boost@@U123@U123@U123@U123@U123@@tuples@boost@@U?$pair@HH@std@@@std@@PAX@1@PBV?$_Tree_val@U?$_Tree_simple_types@U?$pair@$$CBV?$tuple@IIIHUnull_type@tuples@boost@@U123@U123@U123@U123@U123@@tuples@boost@@U?$pair@HH@std@@@std@@@std@@@1@@Z ; std::_Tree_iterator<std::_Tree_val<std::_Tree_simple_types<std::pair<boost::tuples::tuple<unsigned int,unsigned int,unsigned int,int,boost::tuples::null_type,boost::tuples::null_type,boost::tuples::null_type,boost::tuples::null_type,boost::tuples::null_type,boost::tuples::null_type> const ,std::pair<int,int> > > > >::_Tree_iterator<std::_Tree_val<std::_Tree_simple_types<std::pair<boost::tuples::tuple<unsigned int,unsigned int,unsigned int,int,boost::tuples::null_type,boost::tuples::null_type,boost::tuples::null_type,boost::tuples::null_type,boost::tuples::null_type,boost::tuples::null_type> const ,std::pair<int,int> > > > >
PUBLIC	??1?$pair@V?$_Tree_iterator@V?$_Tree_val@U?$_Tree_simple_types@U?$pair@$$CBV?$tuple@IIIHUnull_type@tuples@boost@@U123@U123@U123@U123@U123@@tuples@boost@@U?$pair@HH@std@@@std@@@std@@@std@@@std@@_N@std@@QAE@XZ ; std::pair<std::_Tree_iterator<std::_Tree_val<std::_Tree_simple_types<std::pair<boost::tuples::tuple<unsigned int,unsigned int,unsigned int,int,boost::tuples::null_type,boost::tuples::null_type,boost::tuples::null_type,boost::tuples::null_type,boost::tuples::null_type,boost::tuples::null_type> const ,std::pair<int,int> > > > >,bool>::~pair<std::_Tree_iterator<std::_Tree_val<std::_Tree_simple_types<std::pair<boost::tuples::tuple<unsigned int,unsigned int,unsigned int,int,boost::tuples::null_type,boost::tuples::null_type,boost::tuples::null_type,boost::tuples::null_type,boost::tuples::null_type,boost::tuples::null_type> const ,std::pair<int,int> > > > >,bool>
PUBLIC	?cast@impl@cast_graph@detail@luabind@@QBE?AU?$pair@PAXH@std@@PAXIIIPBX@Z ; luabind::detail::cast_graph::impl::cast
PUBLIC	?insert@impl@cast_graph@detail@luabind@@QAEXIIP6APAXPAX@Z@Z ; luabind::detail::cast_graph::impl::insert
PUBLIC	??0impl@cast_graph@detail@luabind@@QAE@XZ	; luabind::detail::cast_graph::impl::impl
PUBLIC	??1impl@cast_graph@detail@luabind@@QAE@XZ	; luabind::detail::cast_graph::impl::~impl
PUBLIC	??_Gimpl@cast_graph@detail@luabind@@QAEPAXI@Z	; luabind::detail::cast_graph::impl::`scalar deleting destructor'
PUBLIC	??$make_pair@ABQAXH@std@@YA?AU?$pair@PAXH@0@ABQAX$$QAH@Z ; std::make_pair<void * const &,int>
PUBLIC	??$?0PAXH$0A@@?$pair@PAXH@std@@QAE@$$QAPAX$$QAH@Z ; std::pair<void *,int>::pair<void *,int><void *,int,0>
PUBLIC	??$?0PAXH$0A@@?$pair@PAXH@std@@QAE@ABQAXABH@Z	; std::pair<void *,int>::pair<void *,int><void *,int,0>
PUBLIC	??$make_pair@PADAAH@std@@YA?AU?$pair@PADH@0@$$QAPADAAH@Z ; std::make_pair<char *,int &>
PUBLIC	??$?0PADH$0A@@?$pair@PAXH@std@@QAE@$$QAU?$pair@PADH@1@@Z ; std::pair<void *,int>::pair<void *,int><char *,int,0>
PUBLIC	??0?$allocator@K@std@@QAE@XZ			; std::allocator<unsigned long>::allocator<unsigned long>
PUBLIC	?deallocate@?$allocator@K@std@@QAEXQAKI@Z	; std::allocator<unsigned long>::deallocate
PUBLIC	?allocate@?$allocator@K@std@@QAEPAKI@Z		; std::allocator<unsigned long>::allocate
PUBLIC	?max_size@?$_Default_allocator_traits@V?$allocator@K@std@@@std@@SAIABV?$allocator@K@2@@Z ; std::_Default_allocator_traits<std::allocator<unsigned long> >::max_size
PUBLIC	??0?$vector@KV?$allocator@K@std@@@std@@QAE@ABV?$allocator@K@1@@Z ; std::vector<unsigned long,std::allocator<unsigned long> >::vector<unsigned long,std::allocator<unsigned long> >
PUBLIC	??1?$vector@KV?$allocator@K@std@@@std@@QAE@XZ	; std::vector<unsigned long,std::allocator<unsigned long> >::~vector<unsigned long,std::allocator<unsigned long> >
PUBLIC	?resize@?$vector@KV?$allocator@K@std@@@std@@QAEXI@Z ; std::vector<unsigned long,std::allocator<unsigned long> >::resize
PUBLIC	?begin@?$vector@KV?$allocator@K@std@@@std@@QAE?AV?$_Vector_iterator@V?$_Vector_val@U?$_Simple_types@K@std@@@std@@@2@XZ ; std::vector<unsigned long,std::allocator<unsigned long> >::begin
PUBLIC	?size@?$vector@KV?$allocator@K@std@@@std@@QBEIXZ ; std::vector<unsigned long,std::allocator<unsigned long> >::size
PUBLIC	?max_size@?$vector@KV?$allocator@K@std@@@std@@QBEIXZ ; std::vector<unsigned long,std::allocator<unsigned long> >::max_size
PUBLIC	?capacity@?$vector@KV?$allocator@K@std@@@std@@QBEIXZ ; std::vector<unsigned long,std::allocator<unsigned long> >::capacity
PUBLIC	??A?$vector@KV?$allocator@K@std@@@std@@QAEAAKI@Z ; std::vector<unsigned long,std::allocator<unsigned long> >::operator[]
PUBLIC	?back@?$vector@KV?$allocator@K@std@@@std@@QBEABKXZ ; std::vector<unsigned long,std::allocator<unsigned long> >::back
PUBLIC	?_Calculate_growth@?$vector@KV?$allocator@K@std@@@std@@ABEII@Z ; std::vector<unsigned long,std::allocator<unsigned long> >::_Calculate_growth
PUBLIC	?_Change_array@?$vector@KV?$allocator@K@std@@@std@@AAEXQAKII@Z ; std::vector<unsigned long,std::allocator<unsigned long> >::_Change_array
PUBLIC	?_Tidy@?$vector@KV?$allocator@K@std@@@std@@AAEXXZ ; std::vector<unsigned long,std::allocator<unsigned long> >::_Tidy
PUBLIC	?_Xlength@?$vector@KV?$allocator@K@std@@@std@@CAXXZ ; std::vector<unsigned long,std::allocator<unsigned long> >::_Xlength
PUBLIC	?_Orphan_range_unlocked@?$vector@KV?$allocator@K@std@@@std@@ABEXPAK0@Z ; std::vector<unsigned long,std::allocator<unsigned long> >::_Orphan_range_unlocked
PUBLIC	?_Orphan_range_locked@?$vector@KV?$allocator@K@std@@@std@@ABEXPAK0@Z ; std::vector<unsigned long,std::allocator<unsigned long> >::_Orphan_range_locked
PUBLIC	?_Orphan_range@?$vector@KV?$allocator@K@std@@@std@@ABEXPAK0@Z ; std::vector<unsigned long,std::allocator<unsigned long> >::_Orphan_range
PUBLIC	?_Getal@?$vector@KV?$allocator@K@std@@@std@@AAEAAV?$allocator@K@2@XZ ; std::vector<unsigned long,std::allocator<unsigned long> >::_Getal
PUBLIC	?_Getal@?$vector@KV?$allocator@K@std@@@std@@ABEABV?$allocator@K@2@XZ ; std::vector<unsigned long,std::allocator<unsigned long> >::_Getal
PUBLIC	??0?$_Vector_val@U?$_Simple_types@K@std@@@std@@QAE@XZ ; std::_Vector_val<std::_Simple_types<unsigned long> >::_Vector_val<std::_Simple_types<unsigned long> >
PUBLIC	?_Get_first@?$_Compressed_pair@V?$allocator@K@std@@V?$_Vector_val@U?$_Simple_types@K@std@@@2@$00@std@@QAEAAV?$allocator@K@2@XZ ; std::_Compressed_pair<std::allocator<unsigned long>,std::_Vector_val<std::_Simple_types<unsigned long> >,1>::_Get_first
PUBLIC	?_Get_first@?$_Compressed_pair@V?$allocator@K@std@@V?$_Vector_val@U?$_Simple_types@K@std@@@2@$00@std@@QBEABV?$allocator@K@2@XZ ; std::_Compressed_pair<std::allocator<unsigned long>,std::_Vector_val<std::_Simple_types<unsigned long> >,1>::_Get_first
PUBLIC	??0?$dynamic_bitset@KV?$allocator@K@std@@@boost@@QAE@IKABV?$allocator@K@std@@@Z ; boost::dynamic_bitset<unsigned long,std::allocator<unsigned long> >::dynamic_bitset<unsigned long,std::allocator<unsigned long> >
PUBLIC	??1?$dynamic_bitset@KV?$allocator@K@std@@@boost@@QAE@XZ ; boost::dynamic_bitset<unsigned long,std::allocator<unsigned long> >::~dynamic_bitset<unsigned long,std::allocator<unsigned long> >
PUBLIC	??A?$dynamic_bitset@KV?$allocator@K@std@@@boost@@QAE?AVreference@01@I@Z ; boost::dynamic_bitset<unsigned long,std::allocator<unsigned long> >::operator[]
PUBLIC	?size@?$dynamic_bitset@KV?$allocator@K@std@@@boost@@QBEIXZ ; boost::dynamic_bitset<unsigned long,std::allocator<unsigned long> >::size
PUBLIC	?num_blocks@?$dynamic_bitset@KV?$allocator@K@std@@@boost@@QBEIXZ ; boost::dynamic_bitset<unsigned long,std::allocator<unsigned long> >::num_blocks
PUBLIC	?m_check_invariants@?$dynamic_bitset@KV?$allocator@K@std@@@boost@@ABE_NXZ ; boost::dynamic_bitset<unsigned long,std::allocator<unsigned long> >::m_check_invariants
PUBLIC	?count_extra_bits@?$dynamic_bitset@KV?$allocator@K@std@@@boost@@ABEIXZ ; boost::dynamic_bitset<unsigned long,std::allocator<unsigned long> >::count_extra_bits
PUBLIC	?block_index@?$dynamic_bitset@KV?$allocator@K@std@@@boost@@CAII@Z ; boost::dynamic_bitset<unsigned long,std::allocator<unsigned long> >::block_index
PUBLIC	?bit_index@?$dynamic_bitset@KV?$allocator@K@std@@@boost@@CAII@Z ; boost::dynamic_bitset<unsigned long,std::allocator<unsigned long> >::bit_index
PUBLIC	?init_from_unsigned_long@?$dynamic_bitset@KV?$allocator@K@std@@@boost@@AAEXIK@Z ; boost::dynamic_bitset<unsigned long,std::allocator<unsigned long> >::init_from_unsigned_long
PUBLIC	?calc_num_blocks@?$dynamic_bitset@KV?$allocator@K@std@@@boost@@CAII@Z ; boost::dynamic_bitset<unsigned long,std::allocator<unsigned long> >::calc_num_blocks
PUBLIC	?m_highest_block@?$dynamic_bitset@KV?$allocator@K@std@@@boost@@ABEABKXZ ; boost::dynamic_bitset<unsigned long,std::allocator<unsigned long> >::m_highest_block
PUBLIC	??0reference@?$dynamic_bitset@KV?$allocator@K@std@@@boost@@AAE@AAKI@Z ; boost::dynamic_bitset<unsigned long,std::allocator<unsigned long> >::reference::reference
PUBLIC	??Breference@?$dynamic_bitset@KV?$allocator@K@std@@@boost@@QBE_NXZ ; boost::dynamic_bitset<unsigned long,std::allocator<unsigned long> >::reference::operator bool
PUBLIC	??4reference@?$dynamic_bitset@KV?$allocator@K@std@@@boost@@QAEAAV012@_N@Z ; boost::dynamic_bitset<unsigned long,std::allocator<unsigned long> >::reference::operator=
PUBLIC	?do_set@reference@?$dynamic_bitset@KV?$allocator@K@std@@@boost@@AAEXXZ ; boost::dynamic_bitset<unsigned long,std::allocator<unsigned long> >::reference::do_set
PUBLIC	?do_reset@reference@?$dynamic_bitset@KV?$allocator@K@std@@@boost@@AAEXXZ ; boost::dynamic_bitset<unsigned long,std::allocator<unsigned long> >::reference::do_reset
PUBLIC	?do_assign@reference@?$dynamic_bitset@KV?$allocator@K@std@@@boost@@AAEX_N@Z ; boost::dynamic_bitset<unsigned long,std::allocator<unsigned long> >::reference::do_assign
PUBLIC	??$make_pair@ABQAXABH@std@@YA?AU?$pair@PAXH@0@ABQAXABH@Z ; std::make_pair<void * const &,int const &>
PUBLIC	??$max@I@std@@YAABIABI0@Z			; std::max<unsigned int>
PUBLIC	??$make_pair@ABVtype_id@luabind@@AAI@std@@YA?AU?$pair@Vtype_id@luabind@@I@0@ABVtype_id@luabind@@AAI@Z ; std::make_pair<luabind::type_id const &,unsigned int &>
PUBLIC	??$?0Vtype_id@luabind@@I$0A@@?$pair@$$CBVtype_id@luabind@@I@std@@QAE@$$QAU?$pair@Vtype_id@luabind@@I@1@@Z ; std::pair<luabind::type_id const ,unsigned int>::pair<luabind::type_id const ,unsigned int><luabind::type_id,unsigned int,0>
PUBLIC	??$insert@U?$pair@Vtype_id@luabind@@I@std@@$0A@@?$map@Vtype_id@luabind@@IU?$less@Vtype_id@luabind@@@std@@V?$allocator@U?$pair@$$CBVtype_id@luabind@@I@std@@@4@@std@@QAE?AU?$pair@V?$_Tree_iterator@V?$_Tree_val@U?$_Tree_simple_types@U?$pair@$$CBVtype_id@luabind@@I@std@@@std@@@std@@@std@@_N@1@$$QAU?$pair@Vtype_id@luabind@@I@1@@Z ; std::map<luabind::type_id,unsigned int,std::less<luabind::type_id>,std::allocator<std::pair<luabind::type_id const ,unsigned int> > >::insert<std::pair<luabind::type_id,unsigned int>,0>
PUBLIC	?allocate@?$allocator@U_Container_proxy@std@@@std@@QAEPAU_Container_proxy@2@I@Z ; std::allocator<std::_Container_proxy>::allocate
PUBLIC	??$exchange@PAU_Container_proxy@std@@$$T@std@@YAPAU_Container_proxy@0@AAPAU10@$$QA$$T@Z ; std::exchange<std::_Container_proxy *,std::nullptr_t>
PUBLIC	??$_Delete_plain_internal@V?$allocator@U_Container_proxy@std@@@std@@@std@@YAXAAV?$allocator@U_Container_proxy@std@@@0@QAU_Container_proxy@0@@Z ; std::_Delete_plain_internal<std::allocator<std::_Container_proxy> >
PUBLIC	??$_Alloc_proxy@V?$allocator@U_Container_proxy@std@@@std@@@_Container_base12@std@@QAEX$$QAV?$allocator@U_Container_proxy@std@@@1@@Z ; std::_Container_base12::_Alloc_proxy<std::allocator<std::_Container_proxy> >
PUBLIC	??$?0$$CBI$$CBI$$CBI$$CBH$$CBUnull_type@tuples@boost@@$$CBU012@$$CBU012@$$CBU012@$$CBU012@$$CBU012@@?$cons@IU?$cons@IU?$cons@IU?$cons@HUnull_type@tuples@boost@@@tuples@boost@@@tuples@boost@@@tuples@boost@@@tuples@boost@@QAE@ABI00ABHABUnull_type@12@22222@Z ; boost::tuples::cons<unsigned int,boost::tuples::cons<unsigned int,boost::tuples::cons<unsigned int,boost::tuples::cons<int,boost::tuples::null_type> > > >::cons<unsigned int,boost::tuples::cons<unsigned int,boost::tuples::cons<unsigned int,boost::tuples::cons<int,boost::tuples::null_type> > > ><unsigned int const ,unsigned int const ,unsigned int const ,int const ,boost::tuples::null_type const ,boost::tuples::null_type const ,boost::tuples::null_type const ,boost::tuples::null_type const ,boost::tuples::null_type const ,boost::tuples::null_type const >
PUBLIC	?pointer_to@?$pointer_traits@PBU?$pair@$$CBV?$tuple@IIIHUnull_type@tuples@boost@@U123@U123@U123@U123@U123@@tuples@boost@@U?$pair@HH@std@@@std@@@std@@SAPBU?$pair@$$CBV?$tuple@IIIHUnull_type@tuples@boost@@U123@U123@U123@U123@U123@@tuples@boost@@U?$pair@HH@std@@@2@ABU32@@Z ; std::pointer_traits<std::pair<boost::tuples::tuple<unsigned int,unsigned int,unsigned int,int,boost::tuples::null_type,boost::tuples::null_type,boost::tuples::null_type,boost::tuples::null_type,boost::tuples::null_type,boost::tuples::null_type> const ,std::pair<int,int> > const *>::pointer_to
PUBLIC	??$_Find@V?$tuple@IIIHUnull_type@tuples@boost@@U123@U123@U123@U123@U123@@tuples@boost@@@?$_Tree@V?$_Tmap_traits@V?$tuple@IIIHUnull_type@tuples@boost@@U123@U123@U123@U123@U123@@tuples@boost@@U?$pair@HH@std@@U?$less@V?$tuple@IIIHUnull_type@tuples@boost@@U123@U123@U123@U123@U123@@tuples@boost@@@5@V?$allocator@U?$pair@$$CBV?$tuple@IIIHUnull_type@tuples@boost@@U123@U123@U123@U123@U123@@tuples@boost@@U?$pair@HH@std@@@std@@@5@$0A@@std@@@std@@ABEPAU?$_Tree_node@U?$pair@$$CBV?$tuple@IIIHUnull_type@tuples@boost@@U123@U123@U123@U123@U123@@tuples@boost@@U?$pair@HH@std@@@std@@PAX@1@ABV?$tuple@IIIHUnull_type@tuples@boost@@U123@U123@U123@U123@U123@@tuples@boost@@@Z ; std::_Tree<std::_Tmap_traits<boost::tuples::tuple<unsigned int,unsigned int,unsigned int,int,boost::tuples::null_type,boost::tuples::null_type,boost::tuples::null_type,boost::tuples::null_type,boost::tuples::null_type,boost::tuples::null_type>,std::pair<int,int>,std::less<boost::tuples::tuple<unsigned int,unsigned int,unsigned int,int,boost::tuples::null_type,boost::tuples::null_type,boost::tuples::null_type,boost::tuples::null_type,boost::tuples::null_type,boost::tuples::null_type> >,std::allocator<std::pair<boost::tuples::tuple<unsigned int,unsigned int,unsigned int,int,boost::tuples::null_type,boost::tuples::null_type,boost::tuples::null_type,boost::tuples::null_type,boost::tuples::null_type,boost::tuples::null_type> const ,std::pair<int,int> > >,0> >::_Find<boost::tuples::tuple<unsigned int,unsigned int,unsigned int,int,boost::tuples::null_type,boost::tuples::null_type,boost::tuples::null_type,boost::tuples::null_type,boost::tuples::null_type,boost::tuples::null_type> >
PUBLIC	??$_Erase_tree@V?$allocator@U?$_Tree_node@U?$pair@$$CBV?$tuple@IIIHUnull_type@tuples@boost@@U123@U123@U123@U123@U123@@tuples@boost@@U?$pair@HH@std@@@std@@PAX@std@@@std@@@?$_Tree_val@U?$_Tree_simple_types@U?$pair@$$CBV?$tuple@IIIHUnull_type@tuples@boost@@U123@U123@U123@U123@U123@@tuples@boost@@U?$pair@HH@std@@@std@@@std@@@std@@QAEXAAV?$allocator@U?$_Tree_node@U?$pair@$$CBV?$tuple@IIIHUnull_type@tuples@boost@@U123@U123@U123@U123@U123@@tuples@boost@@U?$pair@HH@std@@@std@@PAX@std@@@1@PAU?$_Tree_node@U?$pair@$$CBV?$tuple@IIIHUnull_type@tuples@boost@@U123@U123@U123@U123@U123@@tuples@boost@@U?$pair@HH@std@@@std@@PAX@1@@Z ; std::_Tree_val<std::_Tree_simple_types<std::pair<boost::tuples::tuple<unsigned int,unsigned int,unsigned int,int,boost::tuples::null_type,boost::tuples::null_type,boost::tuples::null_type,boost::tuples::null_type,boost::tuples::null_type,boost::tuples::null_type> const ,std::pair<int,int> > > >::_Erase_tree<std::allocator<std::_Tree_node<std::pair<boost::tuples::tuple<unsigned int,unsigned int,unsigned int,int,boost::tuples::null_type,boost::tuples::null_type,boost::tuples::null_type,boost::tuples::null_type,boost::tuples::null_type,boost::tuples::null_type> const ,std::pair<int,int> >,void *> > >
PUBLIC	??$_Erase_head@V?$allocator@U?$_Tree_node@U?$pair@$$CBV?$tuple@IIIHUnull_type@tuples@boost@@U123@U123@U123@U123@U123@@tuples@boost@@U?$pair@HH@std@@@std@@PAX@std@@@std@@@?$_Tree_val@U?$_Tree_simple_types@U?$pair@$$CBV?$tuple@IIIHUnull_type@tuples@boost@@U123@U123@U123@U123@U123@@tuples@boost@@U?$pair@HH@std@@@std@@@std@@@std@@QAEXAAV?$allocator@U?$_Tree_node@U?$pair@$$CBV?$tuple@IIIHUnull_type@tuples@boost@@U123@U123@U123@U123@U123@@tuples@boost@@U?$pair@HH@std@@@std@@PAX@std@@@1@@Z ; std::_Tree_val<std::_Tree_simple_types<std::pair<boost::tuples::tuple<unsigned int,unsigned int,unsigned int,int,boost::tuples::null_type,boost::tuples::null_type,boost::tuples::null_type,boost::tuples::null_type,boost::tuples::null_type,boost::tuples::null_type> const ,std::pair<int,int> > > >::_Erase_head<std::allocator<std::_Tree_node<std::pair<boost::tuples::tuple<unsigned int,unsigned int,unsigned int,int,boost::tuples::null_type,boost::tuples::null_type,boost::tuples::null_type,boost::tuples::null_type,boost::tuples::null_type,boost::tuples::null_type> const ,std::pair<int,int> >,void *> > >
PUBLIC	??$?0U?$_Tree_node@U?$pair@$$CBV?$tuple@IIIHUnull_type@tuples@boost@@U123@U123@U123@U123@U123@@tuples@boost@@U?$pair@HH@std@@@std@@PAX@std@@@?$allocator@U_Container_proxy@std@@@std@@QAE@ABV?$allocator@U?$_Tree_node@U?$pair@$$CBV?$tuple@IIIHUnull_type@tuples@boost@@U123@U123@U123@U123@U123@@tuples@boost@@U?$pair@HH@std@@@std@@PAX@std@@@1@@Z ; std::allocator<std::_Container_proxy>::allocator<std::_Container_proxy><std::_Tree_node<std::pair<boost::tuples::tuple<unsigned int,unsigned int,unsigned int,int,boost::tuples::null_type,boost::tuples::null_type,boost::tuples::null_type,boost::tuples::null_type,boost::tuples::null_type,boost::tuples::null_type> const ,std::pair<int,int> >,void *> >
PUBLIC	?pointer_to@?$pointer_traits@PAU?$pair@$$CBVtype_id@luabind@@I@std@@@std@@SAPAU?$pair@$$CBVtype_id@luabind@@I@2@AAU32@@Z ; std::pointer_traits<std::pair<luabind::type_id const ,unsigned int> *>::pointer_to
PUBLIC	??$_Erase_head@V?$allocator@U?$_Tree_node@U?$pair@$$CBVtype_id@luabind@@I@std@@PAX@std@@@std@@@?$_Tree_val@U?$_Tree_simple_types@U?$pair@$$CBVtype_id@luabind@@I@std@@@std@@@std@@QAEXAAV?$allocator@U?$_Tree_node@U?$pair@$$CBVtype_id@luabind@@I@std@@PAX@std@@@1@@Z ; std::_Tree_val<std::_Tree_simple_types<std::pair<luabind::type_id const ,unsigned int> > >::_Erase_head<std::allocator<std::_Tree_node<std::pair<luabind::type_id const ,unsigned int>,void *> > >
PUBLIC	??$?0U?$_Tree_node@U?$pair@$$CBVtype_id@luabind@@I@std@@PAX@std@@@?$allocator@U_Container_proxy@std@@@std@@QAE@ABV?$allocator@U?$_Tree_node@U?$pair@$$CBVtype_id@luabind@@I@std@@PAX@std@@@1@@Z ; std::allocator<std::_Container_proxy>::allocator<std::_Container_proxy><std::_Tree_node<std::pair<luabind::type_id const ,unsigned int>,void *> >
PUBLIC	??$checked_delete@Vimpl@cast_graph@detail@luabind@@@boost@@YAXPAVimpl@cast_graph@detail@luabind@@@Z ; boost::checked_delete<luabind::detail::cast_graph::impl>
PUBLIC	??$addressof@U?$pair@$$CBVtype_id@luabind@@I@std@@@std@@YAPAU?$pair@$$CBVtype_id@luabind@@I@0@AAU10@@Z ; std::addressof<std::pair<luabind::type_id const ,unsigned int> >
PUBLIC	??$addressof@$$CBU?$pair@$$CBV?$tuple@IIIHUnull_type@tuples@boost@@U123@U123@U123@U123@U123@@tuples@boost@@U?$pair@HH@std@@@std@@@std@@YAPBU?$pair@$$CBV?$tuple@IIIHUnull_type@tuples@boost@@U123@U123@U123@U123@U123@@tuples@boost@@U?$pair@HH@std@@@0@ABU10@@Z ; std::addressof<std::pair<boost::tuples::tuple<unsigned int,unsigned int,unsigned int,int,boost::tuples::null_type,boost::tuples::null_type,boost::tuples::null_type,boost::tuples::null_type,boost::tuples::null_type,boost::tuples::null_type> const ,std::pair<int,int> > const >
PUBLIC	??$min@I@std@@YAABIABI0@Z			; std::min<unsigned int>
PUBLIC	??$addressof@$$CBV?$_Tree_val@U?$_Tree_simple_types@U?$pair@$$CBV?$tuple@IIIHUnull_type@tuples@boost@@U123@U123@U123@U123@U123@@tuples@boost@@U?$pair@HH@std@@@std@@@std@@@std@@@std@@YAPBV?$_Tree_val@U?$_Tree_simple_types@U?$pair@$$CBV?$tuple@IIIHUnull_type@tuples@boost@@U123@U123@U123@U123@U123@@tuples@boost@@U?$pair@HH@std@@@std@@@std@@@0@ABV10@@Z ; std::addressof<std::_Tree_val<std::_Tree_simple_types<std::pair<boost::tuples::tuple<unsigned int,unsigned int,unsigned int,int,boost::tuples::null_type,boost::tuples::null_type,boost::tuples::null_type,boost::tuples::null_type,boost::tuples::null_type,boost::tuples::null_type> const ,std::pair<int,int> > > > const >
PUBLIC	??$addressof@V?$_Tree_val@U?$_Tree_simple_types@U?$pair@$$CBV?$tuple@IIIHUnull_type@tuples@boost@@U123@U123@U123@U123@U123@@tuples@boost@@U?$pair@HH@std@@@std@@@std@@@std@@@std@@YAPAV?$_Tree_val@U?$_Tree_simple_types@U?$pair@$$CBV?$tuple@IIIHUnull_type@tuples@boost@@U123@U123@U123@U123@U123@@tuples@boost@@U?$pair@HH@std@@@std@@@std@@@0@AAV10@@Z ; std::addressof<std::_Tree_val<std::_Tree_simple_types<std::pair<boost::tuples::tuple<unsigned int,unsigned int,unsigned int,int,boost::tuples::null_type,boost::tuples::null_type,boost::tuples::null_type,boost::tuples::null_type,boost::tuples::null_type,boost::tuples::null_type> const ,std::pair<int,int> > > > >
PUBLIC	??$?0ABU?$less@V?$tuple@IIIHUnull_type@tuples@boost@@U123@U123@U123@U123@U123@@tuples@boost@@@std@@U_Zero_then_variadic_args_t@1@@?$_Compressed_pair@U?$less@V?$tuple@IIIHUnull_type@tuples@boost@@U123@U123@U123@U123@U123@@tuples@boost@@@std@@V?$_Compressed_pair@V?$allocator@U?$_Tree_node@U?$pair@$$CBV?$tuple@IIIHUnull_type@tuples@boost@@U123@U123@U123@U123@U123@@tuples@boost@@U?$pair@HH@std@@@std@@PAX@std@@@std@@V?$_Tree_val@U?$_Tree_simple_types@U?$pair@$$CBV?$tuple@IIIHUnull_type@tuples@boost@@U123@U123@U123@U123@U123@@tuples@boost@@U?$pair@HH@std@@@std@@@std@@@2@$00@2@$00@std@@QAE@U_One_then_variadic_args_t@1@ABU?$less@V?$tuple@IIIHUnull_type@tuples@boost@@U123@U123@U123@U123@U123@@tuples@boost@@@1@$$QAU_Zero_then_variadic_args_t@1@@Z ; std::_Compressed_pair<std::less<boost::tuples::tuple<unsigned int,unsigned int,unsigned int,int,boost::tuples::null_type,boost::tuples::null_type,boost::tuples::null_type,boost::tuples::null_type,boost::tuples::null_type,boost::tuples::null_type> >,std::_Compressed_pair<std::allocator<std::_Tree_node<std::pair<boost::tuples::tuple<unsigned int,unsigned int,unsigned int,int,boost::tuples::null_type,boost::tuples::null_type,boost::tuples::null_type,boost::tuples::null_type,boost::tuples::null_type,boost::tuples::null_type> const ,std::pair<int,int> >,void *> >,std::_Tree_val<std::_Tree_simple_types<std::pair<boost::tuples::tuple<unsigned int,unsigned int,unsigned int,int,boost::tuples::null_type,boost::tuples::null_type,boost::tuples::null_type,boost::tuples::null_type,boost::tuples::null_type,boost::tuples::null_type> const ,std::pair<int,int> > > >,1>,1>::_Compressed_pair<std::less<boost::tuples::tuple<unsigned int,unsigned int,unsigned int,int,boost::tuples::null_type,boost::tuples::null_type,boost::tuples::null_type,boost::tuples::null_type,boost::tuples::null_type,boost::tuples::null_type> >,std::_Compressed_pair<std::allocator<std::_Tree_node<std::pair<boost::tuples::tuple<unsigned int,unsigned int,unsigned int,int,boost::tuples::null_type,boost::tuples::null_type,boost::tuples::null_type,boost::tuples::null_type,boost::tuples::null_type,boost::tuples::null_type> const ,std::pair<int,int> >,void *> >,std::_Tree_val<std::_Tree_simple_types<std::pair<boost::tuples::tuple<unsigned int,unsigned int,unsigned int,int,boost::tuples::null_type,boost::tuples::null_type,boost::tuples::null_type,boost::tuples::null_type,boost::tuples::null_type,boost::tuples::null_type> const ,std::pair<int,int> > > >,1>,1><std::less<boost::tuples::tuple<unsigned int,unsigned int,unsigned int,int,boost::tuples::null_type,boost::tuples::null_type,boost::tuples::null_type,boost::tuples::null_type,boost::tuples::null_type,boost::tuples::null_type> > const &,std::_Zero_then_variadic_args_t>
PUBLIC	??$?0$$V@?$_Compressed_pair@V?$allocator@U?$_Tree_node@U?$pair@$$CBV?$tuple@IIIHUnull_type@tuples@boost@@U123@U123@U123@U123@U123@@tuples@boost@@U?$pair@HH@std@@@std@@PAX@std@@@std@@V?$_Tree_val@U?$_Tree_simple_types@U?$pair@$$CBV?$tuple@IIIHUnull_type@tuples@boost@@U123@U123@U123@U123@U123@@tuples@boost@@U?$pair@HH@std@@@std@@@std@@@2@$00@std@@QAE@U_Zero_then_variadic_args_t@1@@Z ; std::_Compressed_pair<std::allocator<std::_Tree_node<std::pair<boost::tuples::tuple<unsigned int,unsigned int,unsigned int,int,boost::tuples::null_type,boost::tuples::null_type,boost::tuples::null_type,boost::tuples::null_type,boost::tuples::null_type,boost::tuples::null_type> const ,std::pair<int,int> >,void *> >,std::_Tree_val<std::_Tree_simple_types<std::pair<boost::tuples::tuple<unsigned int,unsigned int,unsigned int,int,boost::tuples::null_type,boost::tuples::null_type,boost::tuples::null_type,boost::tuples::null_type,boost::tuples::null_type,boost::tuples::null_type> const ,std::pair<int,int> > > >,1>::_Compressed_pair<std::allocator<std::_Tree_node<std::pair<boost::tuples::tuple<unsigned int,unsigned int,unsigned int,int,boost::tuples::null_type,boost::tuples::null_type,boost::tuples::null_type,boost::tuples::null_type,boost::tuples::null_type,boost::tuples::null_type> const ,std::pair<int,int> >,void *> >,std::_Tree_val<std::_Tree_simple_types<std::pair<boost::tuples::tuple<unsigned int,unsigned int,unsigned int,int,boost::tuples::null_type,boost::tuples::null_type,boost::tuples::null_type,boost::tuples::null_type,boost::tuples::null_type,boost::tuples::null_type> const ,std::pair<int,int> > > >,1><>
PUBLIC	??$addressof@$$CBV?$_Tree_val@U?$_Tree_simple_types@U?$pair@$$CBVtype_id@luabind@@I@std@@@std@@@std@@@std@@YAPBV?$_Tree_val@U?$_Tree_simple_types@U?$pair@$$CBVtype_id@luabind@@I@std@@@std@@@0@ABV10@@Z ; std::addressof<std::_Tree_val<std::_Tree_simple_types<std::pair<luabind::type_id const ,unsigned int> > > const >
PUBLIC	??$addressof@V?$_Tree_val@U?$_Tree_simple_types@U?$pair@$$CBVtype_id@luabind@@I@std@@@std@@@std@@@std@@YAPAV?$_Tree_val@U?$_Tree_simple_types@U?$pair@$$CBVtype_id@luabind@@I@std@@@std@@@0@AAV10@@Z ; std::addressof<std::_Tree_val<std::_Tree_simple_types<std::pair<luabind::type_id const ,unsigned int> > > >
PUBLIC	??$?0ABU?$less@Vtype_id@luabind@@@std@@U_Zero_then_variadic_args_t@1@@?$_Compressed_pair@U?$less@Vtype_id@luabind@@@std@@V?$_Compressed_pair@V?$allocator@U?$_Tree_node@U?$pair@$$CBVtype_id@luabind@@I@std@@PAX@std@@@std@@V?$_Tree_val@U?$_Tree_simple_types@U?$pair@$$CBVtype_id@luabind@@I@std@@@std@@@2@$00@2@$00@std@@QAE@U_One_then_variadic_args_t@1@ABU?$less@Vtype_id@luabind@@@1@$$QAU_Zero_then_variadic_args_t@1@@Z ; std::_Compressed_pair<std::less<luabind::type_id>,std::_Compressed_pair<std::allocator<std::_Tree_node<std::pair<luabind::type_id const ,unsigned int>,void *> >,std::_Tree_val<std::_Tree_simple_types<std::pair<luabind::type_id const ,unsigned int> > >,1>,1>::_Compressed_pair<std::less<luabind::type_id>,std::_Compressed_pair<std::allocator<std::_Tree_node<std::pair<luabind::type_id const ,unsigned int>,void *> >,std::_Tree_val<std::_Tree_simple_types<std::pair<luabind::type_id const ,unsigned int> > >,1>,1><std::less<luabind::type_id> const &,std::_Zero_then_variadic_args_t>
PUBLIC	??$?0$$V@?$_Compressed_pair@V?$allocator@U?$_Tree_node@U?$pair@$$CBVtype_id@luabind@@I@std@@PAX@std@@@std@@V?$_Tree_val@U?$_Tree_simple_types@U?$pair@$$CBVtype_id@luabind@@I@std@@@std@@@2@$00@std@@QAE@U_Zero_then_variadic_args_t@1@@Z ; std::_Compressed_pair<std::allocator<std::_Tree_node<std::pair<luabind::type_id const ,unsigned int>,void *> >,std::_Tree_val<std::_Tree_simple_types<std::pair<luabind::type_id const ,unsigned int> > >,1>::_Compressed_pair<std::allocator<std::_Tree_node<std::pair<luabind::type_id const ,unsigned int>,void *> >,std::_Tree_val<std::_Tree_simple_types<std::pair<luabind::type_id const ,unsigned int> > >,1><>
PUBLIC	??$_Deallocate@$07$0A@@std@@YAXPAXI@Z		; std::_Deallocate<8,0>
PUBLIC	??$_Get_size_of_n@$0BE@@std@@YAII@Z		; std::_Get_size_of_n<20>
PUBLIC	??$_Allocate@$07U_Default_allocate_traits@std@@$0A@@std@@YAPAXI@Z ; std::_Allocate<8,std::_Default_allocate_traits,0>
PUBLIC	??0?$_Container_proxy_ptr12@V?$allocator@U_Container_proxy@std@@@std@@@std@@QAE@AAV?$allocator@U_Container_proxy@std@@@1@AAU_Container_base12@1@@Z ; std::_Container_proxy_ptr12<std::allocator<std::_Container_proxy> >::_Container_proxy_ptr12<std::allocator<std::_Container_proxy> >
PUBLIC	??1?$_Container_proxy_ptr12@V?$allocator@U_Container_proxy@std@@@std@@@std@@QAE@XZ ; std::_Container_proxy_ptr12<std::allocator<std::_Container_proxy> >::~_Container_proxy_ptr12<std::allocator<std::_Container_proxy> >
PUBLIC	??$_Buyheadnode@V?$allocator@U?$_Tree_node@U?$pair@$$CBV?$tuple@IIIHUnull_type@tuples@boost@@U123@U123@U123@U123@U123@@tuples@boost@@U?$pair@HH@std@@@std@@PAX@std@@@std@@@?$_Tree_node@U?$pair@$$CBV?$tuple@IIIHUnull_type@tuples@boost@@U123@U123@U123@U123@U123@@tuples@boost@@U?$pair@HH@std@@@std@@PAX@std@@SAPAU01@AAV?$allocator@U?$_Tree_node@U?$pair@$$CBV?$tuple@IIIHUnull_type@tuples@boost@@U123@U123@U123@U123@U123@@tuples@boost@@U?$pair@HH@std@@@std@@PAX@std@@@1@@Z ; std::_Tree_node<std::pair<boost::tuples::tuple<unsigned int,unsigned int,unsigned int,int,boost::tuples::null_type,boost::tuples::null_type,boost::tuples::null_type,boost::tuples::null_type,boost::tuples::null_type,boost::tuples::null_type> const ,std::pair<int,int> >,void *>::_Buyheadnode<std::allocator<std::_Tree_node<std::pair<boost::tuples::tuple<unsigned int,unsigned int,unsigned int,int,boost::tuples::null_type,boost::tuples::null_type,boost::tuples::null_type,boost::tuples::null_type,boost::tuples::null_type,boost::tuples::null_type> const ,std::pair<int,int> >,void *> > >
PUBLIC	??$_Buyheadnode@V?$allocator@U?$_Tree_node@U?$pair@$$CBVtype_id@luabind@@I@std@@PAX@std@@@std@@@?$_Tree_node@U?$pair@$$CBVtype_id@luabind@@I@std@@PAX@std@@SAPAU01@AAV?$allocator@U?$_Tree_node@U?$pair@$$CBVtype_id@luabind@@I@std@@PAX@std@@@1@@Z ; std::_Tree_node<std::pair<luabind::type_id const ,unsigned int>,void *>::_Buyheadnode<std::allocator<std::_Tree_node<std::pair<luabind::type_id const ,unsigned int>,void *> > >
PUBLIC	??$_Unfancy@U_Container_proxy@std@@@std@@YAPAU_Container_proxy@0@PAU10@@Z ; std::_Unfancy<std::_Container_proxy>
PUBLIC	??$addressof@U_Container_base12@std@@@std@@YAPAU_Container_base12@0@AAU10@@Z ; std::addressof<std::_Container_base12>
PUBLIC	??$_Construct_in_place@U_Container_proxy@std@@PAU_Container_base12@2@@std@@YAXAAU_Container_proxy@0@$$QAPAU_Container_base12@0@@Z ; std::_Construct_in_place<std::_Container_proxy,std::_Container_base12 *>
PUBLIC	??$_Get_size_of_n@$07@std@@YAII@Z		; std::_Get_size_of_n<8>
PUBLIC	??$forward@ABVtype_id@luabind@@@std@@YAABVtype_id@luabind@@ABV12@@Z ; std::forward<luabind::type_id const &>
PUBLIC	??$forward@H@std@@YA$$QAHAAH@Z			; std::forward<int>
PUBLIC	??$forward@ABH@std@@YAABHABH@Z			; std::forward<int const &>
PUBLIC	??$forward@AAH@std@@YAAAHAAH@Z			; std::forward<int &>
PUBLIC	??$forward@AAI@std@@YAAAIAAI@Z			; std::forward<unsigned int &>
PUBLIC	??$forward@V?$tuple@IIIHUnull_type@tuples@boost@@U123@U123@U123@U123@U123@@tuples@boost@@@std@@YA$$QAV?$tuple@IIIHUnull_type@tuples@boost@@U123@U123@U123@U123@U123@@tuples@boost@@AAV123@@Z ; std::forward<boost::tuples::tuple<unsigned int,unsigned int,unsigned int,int,boost::tuples::null_type,boost::tuples::null_type,boost::tuples::null_type,boost::tuples::null_type,boost::tuples::null_type,boost::tuples::null_type> >
PUBLIC	??$forward@U?$pair@HH@std@@@std@@YA$$QAU?$pair@HH@0@AAU10@@Z ; std::forward<std::pair<int,int> >
PUBLIC	??$?0V?$tuple@IIIHUnull_type@tuples@boost@@U123@U123@U123@U123@U123@@tuples@boost@@U?$pair@HH@std@@$0A@@?$pair@V?$tuple@IIIHUnull_type@tuples@boost@@U123@U123@U123@U123@U123@@tuples@boost@@U?$pair@HH@std@@@std@@QAE@$$QAV?$tuple@IIIHUnull_type@tuples@boost@@U123@U123@U123@U123@U123@@tuples@boost@@$$QAU?$pair@HH@1@@Z ; std::pair<boost::tuples::tuple<unsigned int,unsigned int,unsigned int,int,boost::tuples::null_type,boost::tuples::null_type,boost::tuples::null_type,boost::tuples::null_type,boost::tuples::null_type,boost::tuples::null_type>,std::pair<int,int> >::pair<boost::tuples::tuple<unsigned int,unsigned int,unsigned int,int,boost::tuples::null_type,boost::tuples::null_type,boost::tuples::null_type,boost::tuples::null_type,boost::tuples::null_type,boost::tuples::null_type>,std::pair<int,int> ><boost::tuples::tuple<unsigned int,unsigned int,unsigned int,int,boost::tuples::null_type,boost::tuples::null_type,boost::tuples::null_type,boost::tuples::null_type,boost::tuples::null_type,boost::tuples::null_type>,std::pair<int,int>,0>
PUBLIC	??$forward@U?$pair@V?$tuple@IIIHUnull_type@tuples@boost@@U123@U123@U123@U123@U123@@tuples@boost@@U?$pair@HH@std@@@std@@@std@@YA$$QAU?$pair@V?$tuple@IIIHUnull_type@tuples@boost@@U123@U123@U123@U123@U123@@tuples@boost@@U?$pair@HH@std@@@0@AAU10@@Z ; std::forward<std::pair<boost::tuples::tuple<unsigned int,unsigned int,unsigned int,int,boost::tuples::null_type,boost::tuples::null_type,boost::tuples::null_type,boost::tuples::null_type,boost::tuples::null_type,boost::tuples::null_type>,std::pair<int,int> > >
PUBLIC	??$emplace@U?$pair@V?$tuple@IIIHUnull_type@tuples@boost@@U123@U123@U123@U123@U123@@tuples@boost@@U?$pair@HH@std@@@std@@@?$_Tree@V?$_Tmap_traits@V?$tuple@IIIHUnull_type@tuples@boost@@U123@U123@U123@U123@U123@@tuples@boost@@U?$pair@HH@std@@U?$less@V?$tuple@IIIHUnull_type@tuples@boost@@U123@U123@U123@U123@U123@@tuples@boost@@@5@V?$allocator@U?$pair@$$CBV?$tuple@IIIHUnull_type@tuples@boost@@U123@U123@U123@U123@U123@@tuples@boost@@U?$pair@HH@std@@@std@@@5@$0A@@std@@@std@@QAE?AU?$pair@V?$_Tree_iterator@V?$_Tree_val@U?$_Tree_simple_types@U?$pair@$$CBV?$tuple@IIIHUnull_type@tuples@boost@@U123@U123@U123@U123@U123@@tuples@boost@@U?$pair@HH@std@@@std@@@std@@@std@@@std@@_N@1@$$QAU?$pair@V?$tuple@IIIHUnull_type@tuples@boost@@U123@U123@U123@U123@U123@@tuples@boost@@U?$pair@HH@std@@@1@@Z ; std::_Tree<std::_Tmap_traits<boost::tuples::tuple<unsigned int,unsigned int,unsigned int,int,boost::tuples::null_type,boost::tuples::null_type,boost::tuples::null_type,boost::tuples::null_type,boost::tuples::null_type,boost::tuples::null_type>,std::pair<int,int>,std::less<boost::tuples::tuple<unsigned int,unsigned int,unsigned int,int,boost::tuples::null_type,boost::tuples::null_type,boost::tuples::null_type,boost::tuples::null_type,boost::tuples::null_type,boost::tuples::null_type> >,std::allocator<std::pair<boost::tuples::tuple<unsigned int,unsigned int,unsigned int,int,boost::tuples::null_type,boost::tuples::null_type,boost::tuples::null_type,boost::tuples::null_type,boost::tuples::null_type,boost::tuples::null_type> const ,std::pair<int,int> > >,0> >::emplace<std::pair<boost::tuples::tuple<unsigned int,unsigned int,unsigned int,int,boost::tuples::null_type,boost::tuples::null_type,boost::tuples::null_type,boost::tuples::null_type,boost::tuples::null_type,boost::tuples::null_type>,std::pair<int,int> > >
PUBLIC	??$forward@ABQAX@std@@YAABQAXABQAX@Z		; std::forward<void * const &>
PUBLIC	??$?0ABQAXH$0A@@?$pair@PAXH@std@@QAE@ABQAX$$QAH@Z ; std::pair<void *,int>::pair<void *,int><void * const &,int,0>
PUBLIC	??$forward@PAX@std@@YA$$QAPAXAAPAX@Z		; std::forward<void *>
PUBLIC	??$forward@PAD@std@@YA$$QAPADAAPAD@Z		; std::forward<char *>
PUBLIC	??$?0PADAAH$0A@@?$pair@PADH@std@@QAE@$$QAPADAAH@Z ; std::pair<char *,int>::pair<char *,int><char *,int &,0>
PUBLIC	??$?0ABVtype_id@luabind@@AAI$0A@@?$pair@Vtype_id@luabind@@I@std@@QAE@ABVtype_id@luabind@@AAI@Z ; std::pair<luabind::type_id,unsigned int>::pair<luabind::type_id,unsigned int><luabind::type_id const &,unsigned int &,0>
PUBLIC	??$forward@U?$pair@Vtype_id@luabind@@I@std@@@std@@YA$$QAU?$pair@Vtype_id@luabind@@I@0@AAU10@@Z ; std::forward<std::pair<luabind::type_id,unsigned int> >
PUBLIC	??$emplace@U?$pair@Vtype_id@luabind@@I@std@@@?$_Tree@V?$_Tmap_traits@Vtype_id@luabind@@IU?$less@Vtype_id@luabind@@@std@@V?$allocator@U?$pair@$$CBVtype_id@luabind@@I@std@@@4@$0A@@std@@@std@@QAE?AU?$pair@V?$_Tree_iterator@V?$_Tree_val@U?$_Tree_simple_types@U?$pair@$$CBVtype_id@luabind@@I@std@@@std@@@std@@@std@@_N@1@$$QAU?$pair@Vtype_id@luabind@@I@1@@Z ; std::_Tree<std::_Tmap_traits<luabind::type_id,unsigned int,std::less<luabind::type_id>,std::allocator<std::pair<luabind::type_id const ,unsigned int> >,0> >::emplace<std::pair<luabind::type_id,unsigned int> >
PUBLIC	??$_Deallocate_plain@V?$allocator@U_Container_proxy@std@@@std@@@std@@YAXAAV?$allocator@U_Container_proxy@std@@@0@QAU_Container_proxy@0@@Z ; std::_Deallocate_plain<std::allocator<std::_Container_proxy> >
PUBLIC	??$?0$$CBI$$CBI$$CBH$$CBUnull_type@tuples@boost@@$$CBU012@$$CBU012@$$CBU012@$$CBU012@$$CBU012@$$CBU012@@?$cons@IU?$cons@IU?$cons@HUnull_type@tuples@boost@@@tuples@boost@@@tuples@boost@@@tuples@boost@@QAE@ABI0ABHABUnull_type@12@222222@Z ; boost::tuples::cons<unsigned int,boost::tuples::cons<unsigned int,boost::tuples::cons<int,boost::tuples::null_type> > >::cons<unsigned int,boost::tuples::cons<unsigned int,boost::tuples::cons<int,boost::tuples::null_type> > ><unsigned int const ,unsigned int const ,int const ,boost::tuples::null_type const ,boost::tuples::null_type const ,boost::tuples::null_type const ,boost::tuples::null_type const ,boost::tuples::null_type const ,boost::tuples::null_type const ,boost::tuples::null_type const >
PUBLIC	??$_Find_lower_bound@V?$tuple@IIIHUnull_type@tuples@boost@@U123@U123@U123@U123@U123@@tuples@boost@@@?$_Tree@V?$_Tmap_traits@V?$tuple@IIIHUnull_type@tuples@boost@@U123@U123@U123@U123@U123@@tuples@boost@@U?$pair@HH@std@@U?$less@V?$tuple@IIIHUnull_type@tuples@boost@@U123@U123@U123@U123@U123@@tuples@boost@@@5@V?$allocator@U?$pair@$$CBV?$tuple@IIIHUnull_type@tuples@boost@@U123@U123@U123@U123@U123@@tuples@boost@@U?$pair@HH@std@@@std@@@5@$0A@@std@@@std@@IBE?AU?$_Tree_find_result@PAU?$_Tree_node@U?$pair@$$CBV?$tuple@IIIHUnull_type@tuples@boost@@U123@U123@U123@U123@U123@@tuples@boost@@U?$pair@HH@std@@@std@@PAX@std@@@1@ABV?$tuple@IIIHUnull_type@tuples@boost@@U123@U123@U123@U123@U123@@tuples@boost@@@Z ; std::_Tree<std::_Tmap_traits<boost::tuples::tuple<unsigned int,unsigned int,unsigned int,int,boost::tuples::null_type,boost::tuples::null_type,boost::tuples::null_type,boost::tuples::null_type,boost::tuples::null_type,boost::tuples::null_type>,std::pair<int,int>,std::less<boost::tuples::tuple<unsigned int,unsigned int,unsigned int,int,boost::tuples::null_type,boost::tuples::null_type,boost::tuples::null_type,boost::tuples::null_type,boost::tuples::null_type,boost::tuples::null_type> >,std::allocator<std::pair<boost::tuples::tuple<unsigned int,unsigned int,unsigned int,int,boost::tuples::null_type,boost::tuples::null_type,boost::tuples::null_type,boost::tuples::null_type,boost::tuples::null_type,boost::tuples::null_type> const ,std::pair<int,int> > >,0> >::_Find_lower_bound<boost::tuples::tuple<unsigned int,unsigned int,unsigned int,int,boost::tuples::null_type,boost::tuples::null_type,boost::tuples::null_type,boost::tuples::null_type,boost::tuples::null_type,boost::tuples::null_type> >
PUBLIC	??$_Lower_bound_duplicate@V?$tuple@IIIHUnull_type@tuples@boost@@U123@U123@U123@U123@U123@@tuples@boost@@@?$_Tree@V?$_Tmap_traits@V?$tuple@IIIHUnull_type@tuples@boost@@U123@U123@U123@U123@U123@@tuples@boost@@U?$pair@HH@std@@U?$less@V?$tuple@IIIHUnull_type@tuples@boost@@U123@U123@U123@U123@U123@@tuples@boost@@@5@V?$allocator@U?$pair@$$CBV?$tuple@IIIHUnull_type@tuples@boost@@U123@U123@U123@U123@U123@@tuples@boost@@U?$pair@HH@std@@@std@@@5@$0A@@std@@@std@@IBE_NQAU?$_Tree_node@U?$pair@$$CBV?$tuple@IIIHUnull_type@tuples@boost@@U123@U123@U123@U123@U123@@tuples@boost@@U?$pair@HH@std@@@std@@PAX@1@ABV?$tuple@IIIHUnull_type@tuples@boost@@U123@U123@U123@U123@U123@@tuples@boost@@@Z ; std::_Tree<std::_Tmap_traits<boost::tuples::tuple<unsigned int,unsigned int,unsigned int,int,boost::tuples::null_type,boost::tuples::null_type,boost::tuples::null_type,boost::tuples::null_type,boost::tuples::null_type,boost::tuples::null_type>,std::pair<int,int>,std::less<boost::tuples::tuple<unsigned int,unsigned int,unsigned int,int,boost::tuples::null_type,boost::tuples::null_type,boost::tuples::null_type,boost::tuples::null_type,boost::tuples::null_type,boost::tuples::null_type> >,std::allocator<std::pair<boost::tuples::tuple<unsigned int,unsigned int,unsigned int,int,boost::tuples::null_type,boost::tuples::null_type,boost::tuples::null_type,boost::tuples::null_type,boost::tuples::null_type,boost::tuples::null_type> const ,std::pair<int,int> > >,0> >::_Lower_bound_duplicate<boost::tuples::tuple<unsigned int,unsigned int,unsigned int,int,boost::tuples::null_type,boost::tuples::null_type,boost::tuples::null_type,boost::tuples::null_type,boost::tuples::null_type,boost::tuples::null_type> >
PUBLIC	??$exchange@PAU?$_Tree_node@U?$pair@$$CBV?$tuple@IIIHUnull_type@tuples@boost@@U123@U123@U123@U123@U123@@tuples@boost@@U?$pair@HH@std@@@std@@PAX@std@@AAPAU12@@std@@YAPAU?$_Tree_node@U?$pair@$$CBV?$tuple@IIIHUnull_type@tuples@boost@@U123@U123@U123@U123@U123@@tuples@boost@@U?$pair@HH@std@@@std@@PAX@0@AAPAU10@0@Z ; std::exchange<std::_Tree_node<std::pair<boost::tuples::tuple<unsigned int,unsigned int,unsigned int,int,boost::tuples::null_type,boost::tuples::null_type,boost::tuples::null_type,boost::tuples::null_type,boost::tuples::null_type,boost::tuples::null_type> const ,std::pair<int,int> >,void *> *,std::_Tree_node<std::pair<boost::tuples::tuple<unsigned int,unsigned int,unsigned int,int,boost::tuples::null_type,boost::tuples::null_type,boost::tuples::null_type,boost::tuples::null_type,boost::tuples::null_type,boost::tuples::null_type> const ,std::pair<int,int> >,void *> * &>
PUBLIC	??$_Freenode@V?$allocator@U?$_Tree_node@U?$pair@$$CBV?$tuple@IIIHUnull_type@tuples@boost@@U123@U123@U123@U123@U123@@tuples@boost@@U?$pair@HH@std@@@std@@PAX@std@@@std@@@?$_Tree_node@U?$pair@$$CBV?$tuple@IIIHUnull_type@tuples@boost@@U123@U123@U123@U123@U123@@tuples@boost@@U?$pair@HH@std@@@std@@PAX@std@@SAXAAV?$allocator@U?$_Tree_node@U?$pair@$$CBV?$tuple@IIIHUnull_type@tuples@boost@@U123@U123@U123@U123@U123@@tuples@boost@@U?$pair@HH@std@@@std@@PAX@std@@@1@PAU01@@Z ; std::_Tree_node<std::pair<boost::tuples::tuple<unsigned int,unsigned int,unsigned int,int,boost::tuples::null_type,boost::tuples::null_type,boost::tuples::null_type,boost::tuples::null_type,boost::tuples::null_type,boost::tuples::null_type> const ,std::pair<int,int> >,void *>::_Freenode<std::allocator<std::_Tree_node<std::pair<boost::tuples::tuple<unsigned int,unsigned int,unsigned int,int,boost::tuples::null_type,boost::tuples::null_type,boost::tuples::null_type,boost::tuples::null_type,boost::tuples::null_type,boost::tuples::null_type> const ,std::pair<int,int> >,void *> > >
PUBLIC	??$_Freenode0@V?$allocator@U?$_Tree_node@U?$pair@$$CBV?$tuple@IIIHUnull_type@tuples@boost@@U123@U123@U123@U123@U123@@tuples@boost@@U?$pair@HH@std@@@std@@PAX@std@@@std@@@?$_Tree_node@U?$pair@$$CBV?$tuple@IIIHUnull_type@tuples@boost@@U123@U123@U123@U123@U123@@tuples@boost@@U?$pair@HH@std@@@std@@PAX@std@@SAXAAV?$allocator@U?$_Tree_node@U?$pair@$$CBV?$tuple@IIIHUnull_type@tuples@boost@@U123@U123@U123@U123@U123@@tuples@boost@@U?$pair@HH@std@@@std@@PAX@std@@@1@PAU01@@Z ; std::_Tree_node<std::pair<boost::tuples::tuple<unsigned int,unsigned int,unsigned int,int,boost::tuples::null_type,boost::tuples::null_type,boost::tuples::null_type,boost::tuples::null_type,boost::tuples::null_type,boost::tuples::null_type> const ,std::pair<int,int> >,void *>::_Freenode0<std::allocator<std::_Tree_node<std::pair<boost::tuples::tuple<unsigned int,unsigned int,unsigned int,int,boost::tuples::null_type,boost::tuples::null_type,boost::tuples::null_type,boost::tuples::null_type,boost::tuples::null_type,boost::tuples::null_type> const ,std::pair<int,int> >,void *> > >
PUBLIC	??$_Find_lower_bound@Vtype_id@luabind@@@?$_Tree@V?$_Tmap_traits@Vtype_id@luabind@@IU?$less@Vtype_id@luabind@@@std@@V?$allocator@U?$pair@$$CBVtype_id@luabind@@I@std@@@4@$0A@@std@@@std@@IBE?AU?$_Tree_find_result@PAU?$_Tree_node@U?$pair@$$CBVtype_id@luabind@@I@std@@PAX@std@@@1@ABVtype_id@luabind@@@Z ; std::_Tree<std::_Tmap_traits<luabind::type_id,unsigned int,std::less<luabind::type_id>,std::allocator<std::pair<luabind::type_id const ,unsigned int> >,0> >::_Find_lower_bound<luabind::type_id>
PUBLIC	??$_Lower_bound_duplicate@Vtype_id@luabind@@@?$_Tree@V?$_Tmap_traits@Vtype_id@luabind@@IU?$less@Vtype_id@luabind@@@std@@V?$allocator@U?$pair@$$CBVtype_id@luabind@@I@std@@@4@$0A@@std@@@std@@IBE_NQAU?$_Tree_node@U?$pair@$$CBVtype_id@luabind@@I@std@@PAX@1@ABVtype_id@luabind@@@Z ; std::_Tree<std::_Tmap_traits<luabind::type_id,unsigned int,std::less<luabind::type_id>,std::allocator<std::pair<luabind::type_id const ,unsigned int> >,0> >::_Lower_bound_duplicate<luabind::type_id>
PUBLIC	??$_Erase_tree@V?$allocator@U?$_Tree_node@U?$pair@$$CBVtype_id@luabind@@I@std@@PAX@std@@@std@@@?$_Tree_val@U?$_Tree_simple_types@U?$pair@$$CBVtype_id@luabind@@I@std@@@std@@@std@@QAEXAAV?$allocator@U?$_Tree_node@U?$pair@$$CBVtype_id@luabind@@I@std@@PAX@std@@@1@PAU?$_Tree_node@U?$pair@$$CBVtype_id@luabind@@I@std@@PAX@1@@Z ; std::_Tree_val<std::_Tree_simple_types<std::pair<luabind::type_id const ,unsigned int> > >::_Erase_tree<std::allocator<std::_Tree_node<std::pair<luabind::type_id const ,unsigned int>,void *> > >
PUBLIC	??$_Freenode0@V?$allocator@U?$_Tree_node@U?$pair@$$CBVtype_id@luabind@@I@std@@PAX@std@@@std@@@?$_Tree_node@U?$pair@$$CBVtype_id@luabind@@I@std@@PAX@std@@SAXAAV?$allocator@U?$_Tree_node@U?$pair@$$CBVtype_id@luabind@@I@std@@PAX@std@@@1@PAU01@@Z ; std::_Tree_node<std::pair<luabind::type_id const ,unsigned int>,void *>::_Freenode0<std::allocator<std::_Tree_node<std::pair<luabind::type_id const ,unsigned int>,void *> > >
PUBLIC	??$forward@ABU?$less@V?$tuple@IIIHUnull_type@tuples@boost@@U123@U123@U123@U123@U123@@tuples@boost@@@std@@@std@@YAABU?$less@V?$tuple@IIIHUnull_type@tuples@boost@@U123@U123@U123@U123@U123@@tuples@boost@@@0@ABU10@@Z ; std::forward<std::less<boost::tuples::tuple<unsigned int,unsigned int,unsigned int,int,boost::tuples::null_type,boost::tuples::null_type,boost::tuples::null_type,boost::tuples::null_type,boost::tuples::null_type,boost::tuples::null_type> > const &>
PUBLIC	??$forward@U_Zero_then_variadic_args_t@std@@@std@@YA$$QAU_Zero_then_variadic_args_t@0@AAU10@@Z ; std::forward<std::_Zero_then_variadic_args_t>
PUBLIC	??$forward@ABU?$less@Vtype_id@luabind@@@std@@@std@@YAABU?$less@Vtype_id@luabind@@@0@ABU10@@Z ; std::forward<std::less<luabind::type_id> const &>
PUBLIC	??$_Allocate_manually_vector_aligned@U_Default_allocate_traits@std@@@std@@YAPAXI@Z ; std::_Allocate_manually_vector_aligned<std::_Default_allocate_traits>
PUBLIC	??$_Construct_in_place@PAU?$_Tree_node@U?$pair@$$CBV?$tuple@IIIHUnull_type@tuples@boost@@U123@U123@U123@U123@U123@@tuples@boost@@U?$pair@HH@std@@@std@@PAX@std@@ABQAU12@@std@@YAXAAPAU?$_Tree_node@U?$pair@$$CBV?$tuple@IIIHUnull_type@tuples@boost@@U123@U123@U123@U123@U123@@tuples@boost@@U?$pair@HH@std@@@std@@PAX@0@ABQAU10@@Z ; std::_Construct_in_place<std::_Tree_node<std::pair<boost::tuples::tuple<unsigned int,unsigned int,unsigned int,int,boost::tuples::null_type,boost::tuples::null_type,boost::tuples::null_type,boost::tuples::null_type,boost::tuples::null_type,boost::tuples::null_type> const ,std::pair<int,int> >,void *> *,std::_Tree_node<std::pair<boost::tuples::tuple<unsigned int,unsigned int,unsigned int,int,boost::tuples::null_type,boost::tuples::null_type,boost::tuples::null_type,boost::tuples::null_type,boost::tuples::null_type,boost::tuples::null_type> const ,std::pair<int,int> >,void *> * const &>
PUBLIC	??$_Construct_in_place@PAU?$_Tree_node@U?$pair@$$CBVtype_id@luabind@@I@std@@PAX@std@@ABQAU12@@std@@YAXAAPAU?$_Tree_node@U?$pair@$$CBVtype_id@luabind@@I@std@@PAX@0@ABQAU10@@Z ; std::_Construct_in_place<std::_Tree_node<std::pair<luabind::type_id const ,unsigned int>,void *> *,std::_Tree_node<std::pair<luabind::type_id const ,unsigned int>,void *> * const &>
PUBLIC	??$addressof@U_Container_proxy@std@@@std@@YAPAU_Container_proxy@0@AAU10@@Z ; std::addressof<std::_Container_proxy>
PUBLIC	??$_Voidify_iter@PAU_Container_proxy@std@@@std@@YAPAXPAU_Container_proxy@0@@Z ; std::_Voidify_iter<std::_Container_proxy *>
PUBLIC	??$forward@PAU_Container_base12@std@@@std@@YA$$QAPAU_Container_base12@0@AAPAU10@@Z ; std::forward<std::_Container_base12 *>
PUBLIC	??0?$_Vector_const_iterator@V?$_Vector_val@U?$_Simple_types@K@std@@@std@@@std@@QAE@PAKPBU_Container_base12@1@@Z ; std::_Vector_const_iterator<std::_Vector_val<std::_Simple_types<unsigned long> > >::_Vector_const_iterator<std::_Vector_val<std::_Simple_types<unsigned long> > >
PUBLIC	??D?$_Vector_const_iterator@V?$_Vector_val@U?$_Simple_types@K@std@@@std@@@std@@QBEABKXZ ; std::_Vector_const_iterator<std::_Vector_val<std::_Simple_types<unsigned long> > >::operator*
PUBLIC	??E?$_Vector_const_iterator@V?$_Vector_val@U?$_Simple_types@K@std@@@std@@@std@@QAEAAV01@XZ ; std::_Vector_const_iterator<std::_Vector_val<std::_Simple_types<unsigned long> > >::operator++
PUBLIC	??1?$_Vector_const_iterator@V?$_Vector_val@U?$_Simple_types@K@std@@@std@@@std@@QAE@XZ ; std::_Vector_const_iterator<std::_Vector_val<std::_Simple_types<unsigned long> > >::~_Vector_const_iterator<std::_Vector_val<std::_Simple_types<unsigned long> > >
PUBLIC	??D?$_Vector_iterator@V?$_Vector_val@U?$_Simple_types@K@std@@@std@@@std@@QBEAAKXZ ; std::_Vector_iterator<std::_Vector_val<std::_Simple_types<unsigned long> > >::operator*
PUBLIC	??E?$_Vector_iterator@V?$_Vector_val@U?$_Simple_types@K@std@@@std@@@std@@QAEAAV01@XZ ; std::_Vector_iterator<std::_Vector_val<std::_Simple_types<unsigned long> > >::operator++
PUBLIC	??1?$_Vector_iterator@V?$_Vector_val@U?$_Simple_types@K@std@@@std@@@std@@QAE@XZ ; std::_Vector_iterator<std::_Vector_val<std::_Simple_types<unsigned long> > >::~_Vector_iterator<std::_Vector_val<std::_Simple_types<unsigned long> > >
PUBLIC	??0?$_Vector_iterator@V?$_Vector_val@U?$_Simple_types@K@std@@@std@@@std@@QAE@PAKPBU_Container_base12@1@@Z ; std::_Vector_iterator<std::_Vector_val<std::_Simple_types<unsigned long> > >::_Vector_iterator<std::_Vector_val<std::_Simple_types<unsigned long> > >
PUBLIC	?left_shift@?$shifter@K$0CA@$0CA@@dynamic_bitset_impl@detail@boost@@SAXAAK@Z ; boost::detail::dynamic_bitset_impl::shifter<unsigned long,32,32>::left_shift
PUBLIC	??$?0K@?$allocator@U_Container_proxy@std@@@std@@QAE@ABV?$allocator@K@1@@Z ; std::allocator<std::_Container_proxy>::allocator<std::_Container_proxy><unsigned long>
PUBLIC	??$?0ABV?$allocator@K@std@@$$V@?$_Compressed_pair@V?$allocator@K@std@@V?$_Vector_val@U?$_Simple_types@K@std@@@2@$00@std@@QAE@U_One_then_variadic_args_t@1@ABV?$allocator@K@1@@Z ; std::_Compressed_pair<std::allocator<unsigned long>,std::_Vector_val<std::_Simple_types<unsigned long> >,1>::_Compressed_pair<std::allocator<unsigned long>,std::_Vector_val<std::_Simple_types<unsigned long> >,1><std::allocator<unsigned long> const &>
PUBLIC	??$_Get_size_of_n@$0M@@std@@YAII@Z		; std::_Get_size_of_n<12>
PUBLIC	??$_Get_size_of_n@$0CI@@std@@YAII@Z		; std::_Get_size_of_n<40>
PUBLIC	??$_Get_size_of_n@$0BI@@std@@YAII@Z		; std::_Get_size_of_n<24>
PUBLIC	??$_Get_size_of_n@$03@std@@YAII@Z		; std::_Get_size_of_n<4>
PUBLIC	??$_Destroy_range@V?$allocator@K@std@@@std@@YAXPAKQAKAAV?$allocator@K@0@@Z ; std::_Destroy_range<std::allocator<unsigned long> >
PUBLIC	??$addressof@V?$_Vector_val@U?$_Simple_types@K@std@@@std@@@std@@YAPAV?$_Vector_val@U?$_Simple_types@K@std@@@0@AAV10@@Z ; std::addressof<std::_Vector_val<std::_Simple_types<unsigned long> > >
PUBLIC	??$_Resize@U_Value_init_tag@std@@@?$vector@KV?$allocator@K@std@@@std@@AAEXIABU_Value_init_tag@1@@Z ; std::vector<unsigned long,std::allocator<unsigned long> >::_Resize<std::_Value_init_tag>
PUBLIC	??$?0V?$_Tree_iterator@V?$_Tree_val@U?$_Tree_simple_types@U?$pair@$$CBVtype_id@luabind@@I@std@@@std@@@std@@@std@@AB_N$0A@@?$pair@V?$_Tree_iterator@V?$_Tree_val@U?$_Tree_simple_types@U?$pair@$$CBVtype_id@luabind@@I@std@@@std@@@std@@@std@@_N@std@@QAE@$$QAV?$_Tree_iterator@V?$_Tree_val@U?$_Tree_simple_types@U?$pair@$$CBVtype_id@luabind@@I@std@@@std@@@std@@@1@AB_N@Z ; std::pair<std::_Tree_iterator<std::_Tree_val<std::_Tree_simple_types<std::pair<luabind::type_id const ,unsigned int> > > >,bool>::pair<std::_Tree_iterator<std::_Tree_val<std::_Tree_simple_types<std::pair<luabind::type_id const ,unsigned int> > > >,bool><std::_Tree_iterator<std::_Tree_val<std::_Tree_simple_types<std::pair<luabind::type_id const ,unsigned int> > > >,bool const &,0>
PUBLIC	??$_Emplace@U?$pair@V?$tuple@IIIHUnull_type@tuples@boost@@U123@U123@U123@U123@U123@@tuples@boost@@U?$pair@HH@std@@@std@@@?$_Tree@V?$_Tmap_traits@V?$tuple@IIIHUnull_type@tuples@boost@@U123@U123@U123@U123@U123@@tuples@boost@@U?$pair@HH@std@@U?$less@V?$tuple@IIIHUnull_type@tuples@boost@@U123@U123@U123@U123@U123@@tuples@boost@@@5@V?$allocator@U?$pair@$$CBV?$tuple@IIIHUnull_type@tuples@boost@@U123@U123@U123@U123@U123@@tuples@boost@@U?$pair@HH@std@@@std@@@5@$0A@@std@@@std@@IAE?AU?$pair@PAU?$_Tree_node@U?$pair@$$CBV?$tuple@IIIHUnull_type@tuples@boost@@U123@U123@U123@U123@U123@@tuples@boost@@U?$pair@HH@std@@@std@@PAX@std@@_N@1@$$QAU?$pair@V?$tuple@IIIHUnull_type@tuples@boost@@U123@U123@U123@U123@U123@@tuples@boost@@U?$pair@HH@std@@@1@@Z ; std::_Tree<std::_Tmap_traits<boost::tuples::tuple<unsigned int,unsigned int,unsigned int,int,boost::tuples::null_type,boost::tuples::null_type,boost::tuples::null_type,boost::tuples::null_type,boost::tuples::null_type,boost::tuples::null_type>,std::pair<int,int>,std::less<boost::tuples::tuple<unsigned int,unsigned int,unsigned int,int,boost::tuples::null_type,boost::tuples::null_type,boost::tuples::null_type,boost::tuples::null_type,boost::tuples::null_type,boost::tuples::null_type> >,std::allocator<std::pair<boost::tuples::tuple<unsigned int,unsigned int,unsigned int,int,boost::tuples::null_type,boost::tuples::null_type,boost::tuples::null_type,boost::tuples::null_type,boost::tuples::null_type,boost::tuples::null_type> const ,std::pair<int,int> > >,0> >::_Emplace<std::pair<boost::tuples::tuple<unsigned int,unsigned int,unsigned int,int,boost::tuples::null_type,boost::tuples::null_type,boost::tuples::null_type,boost::tuples::null_type,boost::tuples::null_type,boost::tuples::null_type>,std::pair<int,int> > >
PUBLIC	??$?0V?$_Tree_iterator@V?$_Tree_val@U?$_Tree_simple_types@U?$pair@$$CBV?$tuple@IIIHUnull_type@tuples@boost@@U123@U123@U123@U123@U123@@tuples@boost@@U?$pair@HH@std@@@std@@@std@@@std@@@std@@AB_N$0A@@?$pair@V?$_Tree_iterator@V?$_Tree_val@U?$_Tree_simple_types@U?$pair@$$CBV?$tuple@IIIHUnull_type@tuples@boost@@U123@U123@U123@U123@U123@@tuples@boost@@U?$pair@HH@std@@@std@@@std@@@std@@@std@@_N@std@@QAE@$$QAV?$_Tree_iterator@V?$_Tree_val@U?$_Tree_simple_types@U?$pair@$$CBV?$tuple@IIIHUnull_type@tuples@boost@@U123@U123@U123@U123@U123@@tuples@boost@@U?$pair@HH@std@@@std@@@std@@@std@@@1@AB_N@Z ; std::pair<std::_Tree_iterator<std::_Tree_val<std::_Tree_simple_types<std::pair<boost::tuples::tuple<unsigned int,unsigned int,unsigned int,int,boost::tuples::null_type,boost::tuples::null_type,boost::tuples::null_type,boost::tuples::null_type,boost::tuples::null_type,boost::tuples::null_type> const ,std::pair<int,int> > > > >,bool>::pair<std::_Tree_iterator<std::_Tree_val<std::_Tree_simple_types<std::pair<boost::tuples::tuple<unsigned int,unsigned int,unsigned int,int,boost::tuples::null_type,boost::tuples::null_type,boost::tuples::null_type,boost::tuples::null_type,boost::tuples::null_type,boost::tuples::null_type> const ,std::pair<int,int> > > > >,bool><std::_Tree_iterator<std::_Tree_val<std::_Tree_simple_types<std::pair<boost::tuples::tuple<unsigned int,unsigned int,unsigned int,int,boost::tuples::null_type,boost::tuples::null_type,boost::tuples::null_type,boost::tuples::null_type,boost::tuples::null_type,boost::tuples::null_type> const ,std::pair<int,int> > > > >,bool const &,0>
PUBLIC	??$_Emplace@U?$pair@Vtype_id@luabind@@I@std@@@?$_Tree@V?$_Tmap_traits@Vtype_id@luabind@@IU?$less@Vtype_id@luabind@@@std@@V?$allocator@U?$pair@$$CBVtype_id@luabind@@I@std@@@4@$0A@@std@@@std@@IAE?AU?$pair@PAU?$_Tree_node@U?$pair@$$CBVtype_id@luabind@@I@std@@PAX@std@@_N@1@$$QAU?$pair@Vtype_id@luabind@@I@1@@Z ; std::_Tree<std::_Tmap_traits<luabind::type_id,unsigned int,std::less<luabind::type_id>,std::allocator<std::pair<luabind::type_id const ,unsigned int> >,0> >::_Emplace<std::pair<luabind::type_id,unsigned int> >
PUBLIC	?deallocate@?$_Default_allocator_traits@V?$allocator@U_Container_proxy@std@@@std@@@std@@SAXAAV?$allocator@U_Container_proxy@std@@@2@QAU_Container_proxy@2@I@Z ; std::_Default_allocator_traits<std::allocator<std::_Container_proxy> >::deallocate
PUBLIC	??$?0$$CBI$$CBH$$CBUnull_type@tuples@boost@@$$CBU012@$$CBU012@$$CBU012@$$CBU012@$$CBU012@$$CBU012@$$CBU012@@?$cons@IU?$cons@HUnull_type@tuples@boost@@@tuples@boost@@@tuples@boost@@QAE@ABIABHABUnull_type@12@2222222@Z ; boost::tuples::cons<unsigned int,boost::tuples::cons<int,boost::tuples::null_type> >::cons<unsigned int,boost::tuples::cons<int,boost::tuples::null_type> ><unsigned int const ,int const ,boost::tuples::null_type const ,boost::tuples::null_type const ,boost::tuples::null_type const ,boost::tuples::null_type const ,boost::tuples::null_type const ,boost::tuples::null_type const ,boost::tuples::null_type const ,boost::tuples::null_type const >
PUBLIC	??$_Kfn@$$CBV?$tuple@IIIHUnull_type@tuples@boost@@U123@U123@U123@U123@U123@@tuples@boost@@U?$pair@HH@std@@@?$_Tmap_traits@V?$tuple@IIIHUnull_type@tuples@boost@@U123@U123@U123@U123@U123@@tuples@boost@@U?$pair@HH@std@@U?$less@V?$tuple@IIIHUnull_type@tuples@boost@@U123@U123@U123@U123@U123@@tuples@boost@@@5@V?$allocator@U?$pair@$$CBV?$tuple@IIIHUnull_type@tuples@boost@@U123@U123@U123@U123@U123@@tuples@boost@@U?$pair@HH@std@@@std@@@5@$0A@@std@@SAABV?$tuple@IIIHUnull_type@tuples@boost@@U123@U123@U123@U123@U123@@tuples@boost@@ABU?$pair@$$CBV?$tuple@IIIHUnull_type@tuples@boost@@U123@U123@U123@U123@U123@@tuples@boost@@U?$pair@HH@std@@@1@@Z ; std::_Tmap_traits<boost::tuples::tuple<unsigned int,unsigned int,unsigned int,int,boost::tuples::null_type,boost::tuples::null_type,boost::tuples::null_type,boost::tuples::null_type,boost::tuples::null_type,boost::tuples::null_type>,std::pair<int,int>,std::less<boost::tuples::tuple<unsigned int,unsigned int,unsigned int,int,boost::tuples::null_type,boost::tuples::null_type,boost::tuples::null_type,boost::tuples::null_type,boost::tuples::null_type,boost::tuples::null_type> >,std::allocator<std::pair<boost::tuples::tuple<unsigned int,unsigned int,unsigned int,int,boost::tuples::null_type,boost::tuples::null_type,boost::tuples::null_type,boost::tuples::null_type,boost::tuples::null_type,boost::tuples::null_type> const ,std::pair<int,int> > >,0>::_Kfn<boost::tuples::tuple<unsigned int,unsigned int,unsigned int,int,boost::tuples::null_type,boost::tuples::null_type,boost::tuples::null_type,boost::tuples::null_type,boost::tuples::null_type,boost::tuples::null_type> const ,std::pair<int,int> >
PUBLIC	??$_Debug_lt_pred@ABU?$less@V?$tuple@IIIHUnull_type@tuples@boost@@U123@U123@U123@U123@U123@@tuples@boost@@@std@@ABV?$tuple@IIIHUnull_type@tuples@boost@@U123@U123@U123@U123@U123@@tuples@boost@@ABV345@$0A@@std@@YA_NABU?$less@V?$tuple@IIIHUnull_type@tuples@boost@@U123@U123@U123@U123@U123@@tuples@boost@@@0@ABV?$tuple@IIIHUnull_type@tuples@boost@@U123@U123@U123@U123@U123@@tuples@boost@@1@Z ; std::_Debug_lt_pred<std::less<boost::tuples::tuple<unsigned int,unsigned int,unsigned int,int,boost::tuples::null_type,boost::tuples::null_type,boost::tuples::null_type,boost::tuples::null_type,boost::tuples::null_type,boost::tuples::null_type> > const &,boost::tuples::tuple<unsigned int,unsigned int,unsigned int,int,boost::tuples::null_type,boost::tuples::null_type,boost::tuples::null_type,boost::tuples::null_type,boost::tuples::null_type,boost::tuples::null_type> const &,boost::tuples::tuple<unsigned int,unsigned int,unsigned int,int,boost::tuples::null_type,boost::tuples::null_type,boost::tuples::null_type,boost::tuples::null_type,boost::tuples::null_type,boost::tuples::null_type> const &,0>
PUBLIC	??$?MIU?$cons@IU?$cons@IU?$cons@HUnull_type@tuples@boost@@@tuples@boost@@@tuples@boost@@@tuples@boost@@IU012@@tuples@boost@@YA_NABU?$cons@IU?$cons@IU?$cons@IU?$cons@HUnull_type@tuples@boost@@@tuples@boost@@@tuples@boost@@@tuples@boost@@@01@0@Z ; boost::tuples::operator<<unsigned int,boost::tuples::cons<unsigned int,boost::tuples::cons<unsigned int,boost::tuples::cons<int,boost::tuples::null_type> > >,unsigned int,boost::tuples::cons<unsigned int,boost::tuples::cons<unsigned int,boost::tuples::cons<int,boost::tuples::null_type> > > >
PUBLIC	??$addressof@U?$pair@$$CBV?$tuple@IIIHUnull_type@tuples@boost@@U123@U123@U123@U123@U123@@tuples@boost@@U?$pair@HH@std@@@std@@@std@@YAPAU?$pair@$$CBV?$tuple@IIIHUnull_type@tuples@boost@@U123@U123@U123@U123@U123@@tuples@boost@@U?$pair@HH@std@@@0@AAU10@@Z ; std::addressof<std::pair<boost::tuples::tuple<unsigned int,unsigned int,unsigned int,int,boost::tuples::null_type,boost::tuples::null_type,boost::tuples::null_type,boost::tuples::null_type,boost::tuples::null_type,boost::tuples::null_type> const ,std::pair<int,int> > >
PUBLIC	??$destroy@U?$pair@$$CBV?$tuple@IIIHUnull_type@tuples@boost@@U123@U123@U123@U123@U123@@tuples@boost@@U?$pair@HH@std@@@std@@@?$_Default_allocator_traits@V?$allocator@U?$_Tree_node@U?$pair@$$CBV?$tuple@IIIHUnull_type@tuples@boost@@U123@U123@U123@U123@U123@@tuples@boost@@U?$pair@HH@std@@@std@@PAX@std@@@std@@@std@@SAXAAV?$allocator@U?$_Tree_node@U?$pair@$$CBV?$tuple@IIIHUnull_type@tuples@boost@@U123@U123@U123@U123@U123@@tuples@boost@@U?$pair@HH@std@@@std@@PAX@std@@@1@QAU?$pair@$$CBV?$tuple@IIIHUnull_type@tuples@boost@@U123@U123@U123@U123@U123@@tuples@boost@@U?$pair@HH@std@@@1@@Z ; std::_Default_allocator_traits<std::allocator<std::_Tree_node<std::pair<boost::tuples::tuple<unsigned int,unsigned int,unsigned int,int,boost::tuples::null_type,boost::tuples::null_type,boost::tuples::null_type,boost::tuples::null_type,boost::tuples::null_type,boost::tuples::null_type> const ,std::pair<int,int> >,void *> > >::destroy<std::pair<boost::tuples::tuple<unsigned int,unsigned int,unsigned int,int,boost::tuples::null_type,boost::tuples::null_type,boost::tuples::null_type,boost::tuples::null_type,boost::tuples::null_type,boost::tuples::null_type> const ,std::pair<int,int> > >
PUBLIC	??$_Destroy_in_place@PAU?$_Tree_node@U?$pair@$$CBV?$tuple@IIIHUnull_type@tuples@boost@@U123@U123@U123@U123@U123@@tuples@boost@@U?$pair@HH@std@@@std@@PAX@std@@@std@@YAXAAPAU?$_Tree_node@U?$pair@$$CBV?$tuple@IIIHUnull_type@tuples@boost@@U123@U123@U123@U123@U123@@tuples@boost@@U?$pair@HH@std@@@std@@PAX@0@@Z ; std::_Destroy_in_place<std::_Tree_node<std::pair<boost::tuples::tuple<unsigned int,unsigned int,unsigned int,int,boost::tuples::null_type,boost::tuples::null_type,boost::tuples::null_type,boost::tuples::null_type,boost::tuples::null_type,boost::tuples::null_type> const ,std::pair<int,int> >,void *> *>
PUBLIC	??$_Kfn@$$CBVtype_id@luabind@@I@?$_Tmap_traits@Vtype_id@luabind@@IU?$less@Vtype_id@luabind@@@std@@V?$allocator@U?$pair@$$CBVtype_id@luabind@@I@std@@@4@$0A@@std@@SAABVtype_id@luabind@@ABU?$pair@$$CBVtype_id@luabind@@I@1@@Z ; std::_Tmap_traits<luabind::type_id,unsigned int,std::less<luabind::type_id>,std::allocator<std::pair<luabind::type_id const ,unsigned int> >,0>::_Kfn<luabind::type_id const ,unsigned int>
PUBLIC	??$_Debug_lt_pred@ABU?$less@Vtype_id@luabind@@@std@@ABVtype_id@luabind@@ABV34@$0A@@std@@YA_NABU?$less@Vtype_id@luabind@@@0@ABVtype_id@luabind@@1@Z ; std::_Debug_lt_pred<std::less<luabind::type_id> const &,luabind::type_id const &,luabind::type_id const &,0>
PUBLIC	??$exchange@PAU?$_Tree_node@U?$pair@$$CBVtype_id@luabind@@I@std@@PAX@std@@AAPAU12@@std@@YAPAU?$_Tree_node@U?$pair@$$CBVtype_id@luabind@@I@std@@PAX@0@AAPAU10@0@Z ; std::exchange<std::_Tree_node<std::pair<luabind::type_id const ,unsigned int>,void *> *,std::_Tree_node<std::pair<luabind::type_id const ,unsigned int>,void *> * &>
PUBLIC	??$_Freenode@V?$allocator@U?$_Tree_node@U?$pair@$$CBVtype_id@luabind@@I@std@@PAX@std@@@std@@@?$_Tree_node@U?$pair@$$CBVtype_id@luabind@@I@std@@PAX@std@@SAXAAV?$allocator@U?$_Tree_node@U?$pair@$$CBVtype_id@luabind@@I@std@@PAX@std@@@1@PAU01@@Z ; std::_Tree_node<std::pair<luabind::type_id const ,unsigned int>,void *>::_Freenode<std::allocator<std::_Tree_node<std::pair<luabind::type_id const ,unsigned int>,void *> > >
PUBLIC	??$_Destroy_in_place@PAU?$_Tree_node@U?$pair@$$CBVtype_id@luabind@@I@std@@PAX@std@@@std@@YAXAAPAU?$_Tree_node@U?$pair@$$CBVtype_id@luabind@@I@std@@PAX@0@@Z ; std::_Destroy_in_place<std::_Tree_node<std::pair<luabind::type_id const ,unsigned int>,void *> *>
PUBLIC	??$addressof@PAU?$_Tree_node@U?$pair@$$CBV?$tuple@IIIHUnull_type@tuples@boost@@U123@U123@U123@U123@U123@@tuples@boost@@U?$pair@HH@std@@@std@@PAX@std@@@std@@YAPAPAU?$_Tree_node@U?$pair@$$CBV?$tuple@IIIHUnull_type@tuples@boost@@U123@U123@U123@U123@U123@@tuples@boost@@U?$pair@HH@std@@@std@@PAX@0@AAPAU10@@Z ; std::addressof<std::_Tree_node<std::pair<boost::tuples::tuple<unsigned int,unsigned int,unsigned int,int,boost::tuples::null_type,boost::tuples::null_type,boost::tuples::null_type,boost::tuples::null_type,boost::tuples::null_type,boost::tuples::null_type> const ,std::pair<int,int> >,void *> *>
PUBLIC	??$_Voidify_iter@PAPAU?$_Tree_node@U?$pair@$$CBV?$tuple@IIIHUnull_type@tuples@boost@@U123@U123@U123@U123@U123@@tuples@boost@@U?$pair@HH@std@@@std@@PAX@std@@@std@@YAPAXPAPAU?$_Tree_node@U?$pair@$$CBV?$tuple@IIIHUnull_type@tuples@boost@@U123@U123@U123@U123@U123@@tuples@boost@@U?$pair@HH@std@@@std@@PAX@0@@Z ; std::_Voidify_iter<std::_Tree_node<std::pair<boost::tuples::tuple<unsigned int,unsigned int,unsigned int,int,boost::tuples::null_type,boost::tuples::null_type,boost::tuples::null_type,boost::tuples::null_type,boost::tuples::null_type,boost::tuples::null_type> const ,std::pair<int,int> >,void *> * *>
PUBLIC	??$forward@ABQAU?$_Tree_node@U?$pair@$$CBV?$tuple@IIIHUnull_type@tuples@boost@@U123@U123@U123@U123@U123@@tuples@boost@@U?$pair@HH@std@@@std@@PAX@std@@@std@@YAABQAU?$_Tree_node@U?$pair@$$CBV?$tuple@IIIHUnull_type@tuples@boost@@U123@U123@U123@U123@U123@@tuples@boost@@U?$pair@HH@std@@@std@@PAX@0@ABQAU10@@Z ; std::forward<std::_Tree_node<std::pair<boost::tuples::tuple<unsigned int,unsigned int,unsigned int,int,boost::tuples::null_type,boost::tuples::null_type,boost::tuples::null_type,boost::tuples::null_type,boost::tuples::null_type,boost::tuples::null_type> const ,std::pair<int,int> >,void *> * const &>
PUBLIC	??$addressof@PAU?$_Tree_node@U?$pair@$$CBVtype_id@luabind@@I@std@@PAX@std@@@std@@YAPAPAU?$_Tree_node@U?$pair@$$CBVtype_id@luabind@@I@std@@PAX@0@AAPAU10@@Z ; std::addressof<std::_Tree_node<std::pair<luabind::type_id const ,unsigned int>,void *> *>
PUBLIC	??$_Voidify_iter@PAPAU?$_Tree_node@U?$pair@$$CBVtype_id@luabind@@I@std@@PAX@std@@@std@@YAPAXPAPAU?$_Tree_node@U?$pair@$$CBVtype_id@luabind@@I@std@@PAX@0@@Z ; std::_Voidify_iter<std::_Tree_node<std::pair<luabind::type_id const ,unsigned int>,void *> * *>
PUBLIC	??$forward@ABQAU?$_Tree_node@U?$pair@$$CBVtype_id@luabind@@I@std@@PAX@std@@@std@@YAABQAU?$_Tree_node@U?$pair@$$CBVtype_id@luabind@@I@std@@PAX@0@ABQAU10@@Z ; std::forward<std::_Tree_node<std::pair<luabind::type_id const ,unsigned int>,void *> * const &>
PUBLIC	??$forward@ABV?$allocator@K@std@@@std@@YAABV?$allocator@K@0@ABV10@@Z ; std::forward<std::allocator<unsigned long> const &>
PUBLIC	??$_Resize_reallocate@U_Value_init_tag@std@@@?$vector@KV?$allocator@K@std@@@std@@AAEXIABU_Value_init_tag@1@@Z ; std::vector<unsigned long,std::allocator<unsigned long> >::_Resize_reallocate<std::_Value_init_tag>
PUBLIC	??$_Uninitialized_value_construct_n@V?$allocator@K@std@@@std@@YAPAKPAKIAAV?$allocator@K@0@@Z ; std::_Uninitialized_value_construct_n<std::allocator<unsigned long> >
PUBLIC	??$?0AAPAU?$_Tree_node@U?$pair@$$CBVtype_id@luabind@@I@std@@PAX@std@@_N$0A@@?$pair@PAU?$_Tree_node@U?$pair@$$CBVtype_id@luabind@@I@std@@PAX@std@@_N@std@@QAE@AAPAU?$_Tree_node@U?$pair@$$CBVtype_id@luabind@@I@std@@PAX@1@$$QA_N@Z ; std::pair<std::_Tree_node<std::pair<luabind::type_id const ,unsigned int>,void *> *,bool>::pair<std::_Tree_node<std::pair<luabind::type_id const ,unsigned int>,void *> *,bool><std::_Tree_node<std::pair<luabind::type_id const ,unsigned int>,void *> * &,bool,0>
PUBLIC	??0?$_Alloc_construct_ptr@V?$allocator@U?$_Tree_node@U?$pair@$$CBVtype_id@luabind@@I@std@@PAX@std@@@std@@@std@@QAE@AAV?$allocator@U?$_Tree_node@U?$pair@$$CBVtype_id@luabind@@I@std@@PAX@std@@@1@@Z ; std::_Alloc_construct_ptr<std::allocator<std::_Tree_node<std::pair<luabind::type_id const ,unsigned int>,void *> > >::_Alloc_construct_ptr<std::allocator<std::_Tree_node<std::pair<luabind::type_id const ,unsigned int>,void *> > >
PUBLIC	?_Release@?$_Alloc_construct_ptr@V?$allocator@U?$_Tree_node@U?$pair@$$CBVtype_id@luabind@@I@std@@PAX@std@@@std@@@std@@QAEPAU?$_Tree_node@U?$pair@$$CBVtype_id@luabind@@I@std@@PAX@2@XZ ; std::_Alloc_construct_ptr<std::allocator<std::_Tree_node<std::pair<luabind::type_id const ,unsigned int>,void *> > >::_Release
PUBLIC	?_Allocate@?$_Alloc_construct_ptr@V?$allocator@U?$_Tree_node@U?$pair@$$CBVtype_id@luabind@@I@std@@PAX@std@@@std@@@std@@QAEXXZ ; std::_Alloc_construct_ptr<std::allocator<std::_Tree_node<std::pair<luabind::type_id const ,unsigned int>,void *> > >::_Allocate
PUBLIC	??1?$_Alloc_construct_ptr@V?$allocator@U?$_Tree_node@U?$pair@$$CBVtype_id@luabind@@I@std@@PAX@std@@@std@@@std@@QAE@XZ ; std::_Alloc_construct_ptr<std::allocator<std::_Tree_node<std::pair<luabind::type_id const ,unsigned int>,void *> > >::~_Alloc_construct_ptr<std::allocator<std::_Tree_node<std::pair<luabind::type_id const ,unsigned int>,void *> > >
PUBLIC	??0?$_Tree_temp_node_alloc@V?$allocator@U?$_Tree_node@U?$pair@$$CBVtype_id@luabind@@I@std@@PAX@std@@@std@@@std@@QAE@AAV?$allocator@U?$_Tree_node@U?$pair@$$CBVtype_id@luabind@@I@std@@PAX@std@@@1@@Z ; std::_Tree_temp_node_alloc<std::allocator<std::_Tree_node<std::pair<luabind::type_id const ,unsigned int>,void *> > >::_Tree_temp_node_alloc<std::allocator<std::_Tree_node<std::pair<luabind::type_id const ,unsigned int>,void *> > >
PUBLIC	??1?$_Tree_temp_node_alloc@V?$allocator@U?$_Tree_node@U?$pair@$$CBVtype_id@luabind@@I@std@@PAX@std@@@std@@@std@@QAE@XZ ; std::_Tree_temp_node_alloc<std::allocator<std::_Tree_node<std::pair<luabind::type_id const ,unsigned int>,void *> > >::~_Tree_temp_node_alloc<std::allocator<std::_Tree_node<std::pair<luabind::type_id const ,unsigned int>,void *> > >
PUBLIC	??1?$_Tree_temp_node@V?$allocator@U?$_Tree_node@U?$pair@$$CBVtype_id@luabind@@I@std@@PAX@std@@@std@@@std@@QAE@XZ ; std::_Tree_temp_node<std::allocator<std::_Tree_node<std::pair<luabind::type_id const ,unsigned int>,void *> > >::~_Tree_temp_node<std::allocator<std::_Tree_node<std::pair<luabind::type_id const ,unsigned int>,void *> > >
PUBLIC	??$?0PAU?$_Tree_node@U?$pair@$$CBVtype_id@luabind@@I@std@@PAX@std@@_N$0A@@?$pair@PAU?$_Tree_node@U?$pair@$$CBVtype_id@luabind@@I@std@@PAX@std@@_N@std@@QAE@$$QAPAU?$_Tree_node@U?$pair@$$CBVtype_id@luabind@@I@std@@PAX@1@$$QA_N@Z ; std::pair<std::_Tree_node<std::pair<luabind::type_id const ,unsigned int>,void *> *,bool>::pair<std::_Tree_node<std::pair<luabind::type_id const ,unsigned int>,void *> *,bool><std::_Tree_node<std::pair<luabind::type_id const ,unsigned int>,void *> *,bool,0>
PUBLIC	??$forward@V?$_Tree_iterator@V?$_Tree_val@U?$_Tree_simple_types@U?$pair@$$CBVtype_id@luabind@@I@std@@@std@@@std@@@std@@@std@@YA$$QAV?$_Tree_iterator@V?$_Tree_val@U?$_Tree_simple_types@U?$pair@$$CBVtype_id@luabind@@I@std@@@std@@@std@@@0@AAV10@@Z ; std::forward<std::_Tree_iterator<std::_Tree_val<std::_Tree_simple_types<std::pair<luabind::type_id const ,unsigned int> > > > >
PUBLIC	??$forward@AB_N@std@@YAAB_NAB_N@Z		; std::forward<bool const &>
PUBLIC	?_Extract@?$_In_place_key_extract_map@V?$tuple@IIIHUnull_type@tuples@boost@@U123@U123@U123@U123@U123@@tuples@boost@@U?$pair@V?$tuple@IIIHUnull_type@tuples@boost@@U123@U123@U123@U123@U123@@tuples@boost@@U?$pair@HH@std@@@std@@@std@@SAABV?$tuple@IIIHUnull_type@tuples@boost@@U123@U123@U123@U123@U123@@tuples@boost@@ABU?$pair@V?$tuple@IIIHUnull_type@tuples@boost@@U123@U123@U123@U123@U123@@tuples@boost@@U?$pair@HH@std@@@2@@Z ; std::_In_place_key_extract_map<boost::tuples::tuple<unsigned int,unsigned int,unsigned int,int,boost::tuples::null_type,boost::tuples::null_type,boost::tuples::null_type,boost::tuples::null_type,boost::tuples::null_type,boost::tuples::null_type>,std::pair<boost::tuples::tuple<unsigned int,unsigned int,unsigned int,int,boost::tuples::null_type,boost::tuples::null_type,boost::tuples::null_type,boost::tuples::null_type,boost::tuples::null_type,boost::tuples::null_type>,std::pair<int,int> > >::_Extract
PUBLIC	??$?0AAPAU?$_Tree_node@U?$pair@$$CBV?$tuple@IIIHUnull_type@tuples@boost@@U123@U123@U123@U123@U123@@tuples@boost@@U?$pair@HH@std@@@std@@PAX@std@@_N$0A@@?$pair@PAU?$_Tree_node@U?$pair@$$CBV?$tuple@IIIHUnull_type@tuples@boost@@U123@U123@U123@U123@U123@@tuples@boost@@U?$pair@HH@std@@@std@@PAX@std@@_N@std@@QAE@AAPAU?$_Tree_node@U?$pair@$$CBV?$tuple@IIIHUnull_type@tuples@boost@@U123@U123@U123@U123@U123@@tuples@boost@@U?$pair@HH@std@@@std@@PAX@1@$$QA_N@Z ; std::pair<std::_Tree_node<std::pair<boost::tuples::tuple<unsigned int,unsigned int,unsigned int,int,boost::tuples::null_type,boost::tuples::null_type,boost::tuples::null_type,boost::tuples::null_type,boost::tuples::null_type,boost::tuples::null_type> const ,std::pair<int,int> >,void *> *,bool>::pair<std::_Tree_node<std::pair<boost::tuples::tuple<unsigned int,unsigned int,unsigned int,int,boost::tuples::null_type,boost::tuples::null_type,boost::tuples::null_type,boost::tuples::null_type,boost::tuples::null_type,boost::tuples::null_type> const ,std::pair<int,int> >,void *> *,bool><std::_Tree_node<std::pair<boost::tuples::tuple<unsigned int,unsigned int,unsigned int,int,boost::tuples::null_type,boost::tuples::null_type,boost::tuples::null_type,boost::tuples::null_type,boost::tuples::null_type,boost::tuples::null_type> const ,std::pair<int,int> >,void *> * &,bool,0>
PUBLIC	??0?$_Alloc_construct_ptr@V?$allocator@U?$_Tree_node@U?$pair@$$CBV?$tuple@IIIHUnull_type@tuples@boost@@U123@U123@U123@U123@U123@@tuples@boost@@U?$pair@HH@std@@@std@@PAX@std@@@std@@@std@@QAE@AAV?$allocator@U?$_Tree_node@U?$pair@$$CBV?$tuple@IIIHUnull_type@tuples@boost@@U123@U123@U123@U123@U123@@tuples@boost@@U?$pair@HH@std@@@std@@PAX@std@@@1@@Z ; std::_Alloc_construct_ptr<std::allocator<std::_Tree_node<std::pair<boost::tuples::tuple<unsigned int,unsigned int,unsigned int,int,boost::tuples::null_type,boost::tuples::null_type,boost::tuples::null_type,boost::tuples::null_type,boost::tuples::null_type,boost::tuples::null_type> const ,std::pair<int,int> >,void *> > >::_Alloc_construct_ptr<std::allocator<std::_Tree_node<std::pair<boost::tuples::tuple<unsigned int,unsigned int,unsigned int,int,boost::tuples::null_type,boost::tuples::null_type,boost::tuples::null_type,boost::tuples::null_type,boost::tuples::null_type,boost::tuples::null_type> const ,std::pair<int,int> >,void *> > >
PUBLIC	?_Release@?$_Alloc_construct_ptr@V?$allocator@U?$_Tree_node@U?$pair@$$CBV?$tuple@IIIHUnull_type@tuples@boost@@U123@U123@U123@U123@U123@@tuples@boost@@U?$pair@HH@std@@@std@@PAX@std@@@std@@@std@@QAEPAU?$_Tree_node@U?$pair@$$CBV?$tuple@IIIHUnull_type@tuples@boost@@U123@U123@U123@U123@U123@@tuples@boost@@U?$pair@HH@std@@@std@@PAX@2@XZ ; std::_Alloc_construct_ptr<std::allocator<std::_Tree_node<std::pair<boost::tuples::tuple<unsigned int,unsigned int,unsigned int,int,boost::tuples::null_type,boost::tuples::null_type,boost::tuples::null_type,boost::tuples::null_type,boost::tuples::null_type,boost::tuples::null_type> const ,std::pair<int,int> >,void *> > >::_Release
PUBLIC	?_Allocate@?$_Alloc_construct_ptr@V?$allocator@U?$_Tree_node@U?$pair@$$CBV?$tuple@IIIHUnull_type@tuples@boost@@U123@U123@U123@U123@U123@@tuples@boost@@U?$pair@HH@std@@@std@@PAX@std@@@std@@@std@@QAEXXZ ; std::_Alloc_construct_ptr<std::allocator<std::_Tree_node<std::pair<boost::tuples::tuple<unsigned int,unsigned int,unsigned int,int,boost::tuples::null_type,boost::tuples::null_type,boost::tuples::null_type,boost::tuples::null_type,boost::tuples::null_type,boost::tuples::null_type> const ,std::pair<int,int> >,void *> > >::_Allocate
PUBLIC	??1?$_Alloc_construct_ptr@V?$allocator@U?$_Tree_node@U?$pair@$$CBV?$tuple@IIIHUnull_type@tuples@boost@@U123@U123@U123@U123@U123@@tuples@boost@@U?$pair@HH@std@@@std@@PAX@std@@@std@@@std@@QAE@XZ ; std::_Alloc_construct_ptr<std::allocator<std::_Tree_node<std::pair<boost::tuples::tuple<unsigned int,unsigned int,unsigned int,int,boost::tuples::null_type,boost::tuples::null_type,boost::tuples::null_type,boost::tuples::null_type,boost::tuples::null_type,boost::tuples::null_type> const ,std::pair<int,int> >,void *> > >::~_Alloc_construct_ptr<std::allocator<std::_Tree_node<std::pair<boost::tuples::tuple<unsigned int,unsigned int,unsigned int,int,boost::tuples::null_type,boost::tuples::null_type,boost::tuples::null_type,boost::tuples::null_type,boost::tuples::null_type,boost::tuples::null_type> const ,std::pair<int,int> >,void *> > >
PUBLIC	??0?$_Tree_temp_node_alloc@V?$allocator@U?$_Tree_node@U?$pair@$$CBV?$tuple@IIIHUnull_type@tuples@boost@@U123@U123@U123@U123@U123@@tuples@boost@@U?$pair@HH@std@@@std@@PAX@std@@@std@@@std@@QAE@AAV?$allocator@U?$_Tree_node@U?$pair@$$CBV?$tuple@IIIHUnull_type@tuples@boost@@U123@U123@U123@U123@U123@@tuples@boost@@U?$pair@HH@std@@@std@@PAX@std@@@1@@Z ; std::_Tree_temp_node_alloc<std::allocator<std::_Tree_node<std::pair<boost::tuples::tuple<unsigned int,unsigned int,unsigned int,int,boost::tuples::null_type,boost::tuples::null_type,boost::tuples::null_type,boost::tuples::null_type,boost::tuples::null_type,boost::tuples::null_type> const ,std::pair<int,int> >,void *> > >::_Tree_temp_node_alloc<std::allocator<std::_Tree_node<std::pair<boost::tuples::tuple<unsigned int,unsigned int,unsigned int,int,boost::tuples::null_type,boost::tuples::null_type,boost::tuples::null_type,boost::tuples::null_type,boost::tuples::null_type,boost::tuples::null_type> const ,std::pair<int,int> >,void *> > >
PUBLIC	??1?$_Tree_temp_node_alloc@V?$allocator@U?$_Tree_node@U?$pair@$$CBV?$tuple@IIIHUnull_type@tuples@boost@@U123@U123@U123@U123@U123@@tuples@boost@@U?$pair@HH@std@@@std@@PAX@std@@@std@@@std@@QAE@XZ ; std::_Tree_temp_node_alloc<std::allocator<std::_Tree_node<std::pair<boost::tuples::tuple<unsigned int,unsigned int,unsigned int,int,boost::tuples::null_type,boost::tuples::null_type,boost::tuples::null_type,boost::tuples::null_type,boost::tuples::null_type,boost::tuples::null_type> const ,std::pair<int,int> >,void *> > >::~_Tree_temp_node_alloc<std::allocator<std::_Tree_node<std::pair<boost::tuples::tuple<unsigned int,unsigned int,unsigned int,int,boost::tuples::null_type,boost::tuples::null_type,boost::tuples::null_type,boost::tuples::null_type,boost::tuples::null_type,boost::tuples::null_type> const ,std::pair<int,int> >,void *> > >
PUBLIC	??1?$_Tree_temp_node@V?$allocator@U?$_Tree_node@U?$pair@$$CBV?$tuple@IIIHUnull_type@tuples@boost@@U123@U123@U123@U123@U123@@tuples@boost@@U?$pair@HH@std@@@std@@PAX@std@@@std@@@std@@QAE@XZ ; std::_Tree_temp_node<std::allocator<std::_Tree_node<std::pair<boost::tuples::tuple<unsigned int,unsigned int,unsigned int,int,boost::tuples::null_type,boost::tuples::null_type,boost::tuples::null_type,boost::tuples::null_type,boost::tuples::null_type,boost::tuples::null_type> const ,std::pair<int,int> >,void *> > >::~_Tree_temp_node<std::allocator<std::_Tree_node<std::pair<boost::tuples::tuple<unsigned int,unsigned int,unsigned int,int,boost::tuples::null_type,boost::tuples::null_type,boost::tuples::null_type,boost::tuples::null_type,boost::tuples::null_type,boost::tuples::null_type> const ,std::pair<int,int> >,void *> > >
PUBLIC	??$?0U?$pair@V?$tuple@IIIHUnull_type@tuples@boost@@U123@U123@U123@U123@U123@@tuples@boost@@U?$pair@HH@std@@@std@@@?$_Tree_temp_node@V?$allocator@U?$_Tree_node@U?$pair@$$CBV?$tuple@IIIHUnull_type@tuples@boost@@U123@U123@U123@U123@U123@@tuples@boost@@U?$pair@HH@std@@@std@@PAX@std@@@std@@@std@@QAE@AAV?$allocator@U?$_Tree_node@U?$pair@$$CBV?$tuple@IIIHUnull_type@tuples@boost@@U123@U123@U123@U123@U123@@tuples@boost@@U?$pair@HH@std@@@std@@PAX@std@@@1@PAU?$_Tree_node@U?$pair@$$CBV?$tuple@IIIHUnull_type@tuples@boost@@U123@U123@U123@U123@U123@@tuples@boost@@U?$pair@HH@std@@@std@@PAX@1@$$QAU?$pair@V?$tuple@IIIHUnull_type@tuples@boost@@U123@U123@U123@U123@U123@@tuples@boost@@U?$pair@HH@std@@@1@@Z ; std::_Tree_temp_node<std::allocator<std::_Tree_node<std::pair<boost::tuples::tuple<unsigned int,unsigned int,unsigned int,int,boost::tuples::null_type,boost::tuples::null_type,boost::tuples::null_type,boost::tuples::null_type,boost::tuples::null_type,boost::tuples::null_type> const ,std::pair<int,int> >,void *> > >::_Tree_temp_node<std::allocator<std::_Tree_node<std::pair<boost::tuples::tuple<unsigned int,unsigned int,unsigned int,int,boost::tuples::null_type,boost::tuples::null_type,boost::tuples::null_type,boost::tuples::null_type,boost::tuples::null_type,boost::tuples::null_type> const ,std::pair<int,int> >,void *> > ><std::pair<boost::tuples::tuple<unsigned int,unsigned int,unsigned int,int,boost::tuples::null_type,boost::tuples::null_type,boost::tuples::null_type,boost::tuples::null_type,boost::tuples::null_type,boost::tuples::null_type>,std::pair<int,int> > >
PUBLIC	??$?0PAU?$_Tree_node@U?$pair@$$CBV?$tuple@IIIHUnull_type@tuples@boost@@U123@U123@U123@U123@U123@@tuples@boost@@U?$pair@HH@std@@@std@@PAX@std@@_N$0A@@?$pair@PAU?$_Tree_node@U?$pair@$$CBV?$tuple@IIIHUnull_type@tuples@boost@@U123@U123@U123@U123@U123@@tuples@boost@@U?$pair@HH@std@@@std@@PAX@std@@_N@std@@QAE@$$QAPAU?$_Tree_node@U?$pair@$$CBV?$tuple@IIIHUnull_type@tuples@boost@@U123@U123@U123@U123@U123@@tuples@boost@@U?$pair@HH@std@@@std@@PAX@1@$$QA_N@Z ; std::pair<std::_Tree_node<std::pair<boost::tuples::tuple<unsigned int,unsigned int,unsigned int,int,boost::tuples::null_type,boost::tuples::null_type,boost::tuples::null_type,boost::tuples::null_type,boost::tuples::null_type,boost::tuples::null_type> const ,std::pair<int,int> >,void *> *,bool>::pair<std::_Tree_node<std::pair<boost::tuples::tuple<unsigned int,unsigned int,unsigned int,int,boost::tuples::null_type,boost::tuples::null_type,boost::tuples::null_type,boost::tuples::null_type,boost::tuples::null_type,boost::tuples::null_type> const ,std::pair<int,int> >,void *> *,bool><std::_Tree_node<std::pair<boost::tuples::tuple<unsigned int,unsigned int,unsigned int,int,boost::tuples::null_type,boost::tuples::null_type,boost::tuples::null_type,boost::tuples::null_type,boost::tuples::null_type,boost::tuples::null_type> const ,std::pair<int,int> >,void *> *,bool,0>
PUBLIC	??$forward@V?$_Tree_iterator@V?$_Tree_val@U?$_Tree_simple_types@U?$pair@$$CBV?$tuple@IIIHUnull_type@tuples@boost@@U123@U123@U123@U123@U123@@tuples@boost@@U?$pair@HH@std@@@std@@@std@@@std@@@std@@@std@@YA$$QAV?$_Tree_iterator@V?$_Tree_val@U?$_Tree_simple_types@U?$pair@$$CBV?$tuple@IIIHUnull_type@tuples@boost@@U123@U123@U123@U123@U123@@tuples@boost@@U?$pair@HH@std@@@std@@@std@@@std@@@0@AAV10@@Z ; std::forward<std::_Tree_iterator<std::_Tree_val<std::_Tree_simple_types<std::pair<boost::tuples::tuple<unsigned int,unsigned int,unsigned int,int,boost::tuples::null_type,boost::tuples::null_type,boost::tuples::null_type,boost::tuples::null_type,boost::tuples::null_type,boost::tuples::null_type> const ,std::pair<int,int> > > > > >
PUBLIC	?_Extract@?$_In_place_key_extract_map@Vtype_id@luabind@@U?$pair@Vtype_id@luabind@@I@std@@@std@@SAABVtype_id@luabind@@ABU?$pair@Vtype_id@luabind@@I@2@@Z ; std::_In_place_key_extract_map<luabind::type_id,std::pair<luabind::type_id,unsigned int> >::_Extract
PUBLIC	??$?0U?$pair@Vtype_id@luabind@@I@std@@@?$_Tree_temp_node@V?$allocator@U?$_Tree_node@U?$pair@$$CBVtype_id@luabind@@I@std@@PAX@std@@@std@@@std@@QAE@AAV?$allocator@U?$_Tree_node@U?$pair@$$CBVtype_id@luabind@@I@std@@PAX@std@@@1@PAU?$_Tree_node@U?$pair@$$CBVtype_id@luabind@@I@std@@PAX@1@$$QAU?$pair@Vtype_id@luabind@@I@1@@Z ; std::_Tree_temp_node<std::allocator<std::_Tree_node<std::pair<luabind::type_id const ,unsigned int>,void *> > >::_Tree_temp_node<std::allocator<std::_Tree_node<std::pair<luabind::type_id const ,unsigned int>,void *> > ><std::pair<luabind::type_id,unsigned int> >
PUBLIC	??$?0$$CBH@?$cons@HUnull_type@tuples@boost@@@tuples@boost@@QAE@ABHABUnull_type@12@11111111@Z ; boost::tuples::cons<int,boost::tuples::null_type>::cons<int,boost::tuples::null_type><int const >
PUBLIC	??$destroy@U?$pair@$$CBVtype_id@luabind@@I@std@@@?$_Default_allocator_traits@V?$allocator@U?$_Tree_node@U?$pair@$$CBVtype_id@luabind@@I@std@@PAX@std@@@std@@@std@@SAXAAV?$allocator@U?$_Tree_node@U?$pair@$$CBVtype_id@luabind@@I@std@@PAX@std@@@1@QAU?$pair@$$CBVtype_id@luabind@@I@1@@Z ; std::_Default_allocator_traits<std::allocator<std::_Tree_node<std::pair<luabind::type_id const ,unsigned int>,void *> > >::destroy<std::pair<luabind::type_id const ,unsigned int> >
PUBLIC	??$_Uninitialized_move@PAKV?$allocator@K@std@@@std@@YAPAKQAK0PAKAAV?$allocator@K@0@@Z ; std::_Uninitialized_move<unsigned long *,std::allocator<unsigned long> >
PUBLIC	??$_Unfancy@K@std@@YAPAKPAK@Z			; std::_Unfancy<unsigned long>
PUBLIC	??$_Zero_range@PAK@std@@YAPAKQAK0@Z		; std::_Zero_range<unsigned long *>
PUBLIC	??0?$_Uninitialized_backout_al@V?$allocator@K@std@@@std@@QAE@PAKAAV?$allocator@K@1@@Z ; std::_Uninitialized_backout_al<std::allocator<unsigned long> >::_Uninitialized_backout_al<std::allocator<unsigned long> >
PUBLIC	??1?$_Uninitialized_backout_al@V?$allocator@K@std@@@std@@QAE@XZ ; std::_Uninitialized_backout_al<std::allocator<unsigned long> >::~_Uninitialized_backout_al<std::allocator<unsigned long> >
PUBLIC	?_Release@?$_Uninitialized_backout_al@V?$allocator@K@std@@@std@@QAEPAKXZ ; std::_Uninitialized_backout_al<std::allocator<unsigned long> >::_Release
PUBLIC	??$_Emplace_back@$$V@?$_Uninitialized_backout_al@V?$allocator@K@std@@@std@@QAEXXZ ; std::_Uninitialized_backout_al<std::allocator<unsigned long> >::_Emplace_back<>
PUBLIC	??$exchange@PAU?$_Tree_node@U?$pair@$$CBV?$tuple@IIIHUnull_type@tuples@boost@@U123@U123@U123@U123@U123@@tuples@boost@@U?$pair@HH@std@@@std@@PAX@std@@$$T@std@@YAPAU?$_Tree_node@U?$pair@$$CBV?$tuple@IIIHUnull_type@tuples@boost@@U123@U123@U123@U123@U123@@tuples@boost@@U?$pair@HH@std@@@std@@PAX@0@AAPAU10@$$QA$$T@Z ; std::exchange<std::_Tree_node<std::pair<boost::tuples::tuple<unsigned int,unsigned int,unsigned int,int,boost::tuples::null_type,boost::tuples::null_type,boost::tuples::null_type,boost::tuples::null_type,boost::tuples::null_type,boost::tuples::null_type> const ,std::pair<int,int> >,void *> *,std::nullptr_t>
PUBLIC	??$exchange@PAU?$_Tree_node@U?$pair@$$CBVtype_id@luabind@@I@std@@PAX@std@@$$T@std@@YAPAU?$_Tree_node@U?$pair@$$CBVtype_id@luabind@@I@std@@PAX@0@AAPAU10@$$QA$$T@Z ; std::exchange<std::_Tree_node<std::pair<luabind::type_id const ,unsigned int>,void *> *,std::nullptr_t>
PUBLIC	??$lt@U?$cons@IU?$cons@IU?$cons@IU?$cons@HUnull_type@tuples@boost@@@tuples@boost@@@tuples@boost@@@tuples@boost@@@tuples@boost@@U123@@detail@tuples@boost@@YA_NABU?$cons@IU?$cons@IU?$cons@IU?$cons@HUnull_type@tuples@boost@@@tuples@boost@@@tuples@boost@@@tuples@boost@@@12@0@Z ; boost::tuples::detail::lt<boost::tuples::cons<unsigned int,boost::tuples::cons<unsigned int,boost::tuples::cons<unsigned int,boost::tuples::cons<int,boost::tuples::null_type> > > >,boost::tuples::cons<unsigned int,boost::tuples::cons<unsigned int,boost::tuples::cons<unsigned int,boost::tuples::cons<int,boost::tuples::null_type> > > > >
PUBLIC	??$forward@AAPAU?$_Tree_node@U?$pair@$$CBVtype_id@luabind@@I@std@@PAX@std@@@std@@YAAAPAU?$_Tree_node@U?$pair@$$CBVtype_id@luabind@@I@std@@PAX@0@AAPAU10@@Z ; std::forward<std::_Tree_node<std::pair<luabind::type_id const ,unsigned int>,void *> * &>
PUBLIC	??$forward@_N@std@@YA$$QA_NAA_N@Z		; std::forward<bool>
PUBLIC	??$_Construct_in_place@PAU?$_Tree_node@U?$pair@$$CBVtype_id@luabind@@I@std@@PAX@std@@AAPAU12@@std@@YAXAAPAU?$_Tree_node@U?$pair@$$CBVtype_id@luabind@@I@std@@PAX@0@0@Z ; std::_Construct_in_place<std::_Tree_node<std::pair<luabind::type_id const ,unsigned int>,void *> *,std::_Tree_node<std::pair<luabind::type_id const ,unsigned int>,void *> * &>
PUBLIC	??$forward@PAU?$_Tree_node@U?$pair@$$CBVtype_id@luabind@@I@std@@PAX@std@@@std@@YA$$QAPAU?$_Tree_node@U?$pair@$$CBVtype_id@luabind@@I@std@@PAX@0@AAPAU10@@Z ; std::forward<std::_Tree_node<std::pair<luabind::type_id const ,unsigned int>,void *> *>
PUBLIC	??$forward@AAPAU?$_Tree_node@U?$pair@$$CBV?$tuple@IIIHUnull_type@tuples@boost@@U123@U123@U123@U123@U123@@tuples@boost@@U?$pair@HH@std@@@std@@PAX@std@@@std@@YAAAPAU?$_Tree_node@U?$pair@$$CBV?$tuple@IIIHUnull_type@tuples@boost@@U123@U123@U123@U123@U123@@tuples@boost@@U?$pair@HH@std@@@std@@PAX@0@AAPAU10@@Z ; std::forward<std::_Tree_node<std::pair<boost::tuples::tuple<unsigned int,unsigned int,unsigned int,int,boost::tuples::null_type,boost::tuples::null_type,boost::tuples::null_type,boost::tuples::null_type,boost::tuples::null_type,boost::tuples::null_type> const ,std::pair<int,int> >,void *> * &>
PUBLIC	??$construct@U?$pair@$$CBV?$tuple@IIIHUnull_type@tuples@boost@@U123@U123@U123@U123@U123@@tuples@boost@@U?$pair@HH@std@@@std@@U?$pair@V?$tuple@IIIHUnull_type@tuples@boost@@U123@U123@U123@U123@U123@@tuples@boost@@U?$pair@HH@std@@@2@@?$_Default_allocator_traits@V?$allocator@U?$_Tree_node@U?$pair@$$CBV?$tuple@IIIHUnull_type@tuples@boost@@U123@U123@U123@U123@U123@@tuples@boost@@U?$pair@HH@std@@@std@@PAX@std@@@std@@@std@@SAXAAV?$allocator@U?$_Tree_node@U?$pair@$$CBV?$tuple@IIIHUnull_type@tuples@boost@@U123@U123@U123@U123@U123@@tuples@boost@@U?$pair@HH@std@@@std@@PAX@std@@@1@QAU?$pair@$$CBV?$tuple@IIIHUnull_type@tuples@boost@@U123@U123@U123@U123@U123@@tuples@boost@@U?$pair@HH@std@@@1@$$QAU?$pair@V?$tuple@IIIHUnull_type@tuples@boost@@U123@U123@U123@U123@U123@@tuples@boost@@U?$pair@HH@std@@@1@@Z ; std::_Default_allocator_traits<std::allocator<std::_Tree_node<std::pair<boost::tuples::tuple<unsigned int,unsigned int,unsigned int,int,boost::tuples::null_type,boost::tuples::null_type,boost::tuples::null_type,boost::tuples::null_type,boost::tuples::null_type,boost::tuples::null_type> const ,std::pair<int,int> >,void *> > >::construct<std::pair<boost::tuples::tuple<unsigned int,unsigned int,unsigned int,int,boost::tuples::null_type,boost::tuples::null_type,boost::tuples::null_type,boost::tuples::null_type,boost::tuples::null_type,boost::tuples::null_type> const ,std::pair<int,int> >,std::pair<boost::tuples::tuple<unsigned int,unsigned int,unsigned int,int,boost::tuples::null_type,boost::tuples::null_type,boost::tuples::null_type,boost::tuples::null_type,boost::tuples::null_type,boost::tuples::null_type>,std::pair<int,int> > >
PUBLIC	??$_Construct_in_place@PAU?$_Tree_node@U?$pair@$$CBV?$tuple@IIIHUnull_type@tuples@boost@@U123@U123@U123@U123@U123@@tuples@boost@@U?$pair@HH@std@@@std@@PAX@std@@AAPAU12@@std@@YAXAAPAU?$_Tree_node@U?$pair@$$CBV?$tuple@IIIHUnull_type@tuples@boost@@U123@U123@U123@U123@U123@@tuples@boost@@U?$pair@HH@std@@@std@@PAX@0@0@Z ; std::_Construct_in_place<std::_Tree_node<std::pair<boost::tuples::tuple<unsigned int,unsigned int,unsigned int,int,boost::tuples::null_type,boost::tuples::null_type,boost::tuples::null_type,boost::tuples::null_type,boost::tuples::null_type,boost::tuples::null_type> const ,std::pair<int,int> >,void *> *,std::_Tree_node<std::pair<boost::tuples::tuple<unsigned int,unsigned int,unsigned int,int,boost::tuples::null_type,boost::tuples::null_type,boost::tuples::null_type,boost::tuples::null_type,boost::tuples::null_type,boost::tuples::null_type> const ,std::pair<int,int> >,void *> * &>
PUBLIC	??$forward@PAU?$_Tree_node@U?$pair@$$CBV?$tuple@IIIHUnull_type@tuples@boost@@U123@U123@U123@U123@U123@@tuples@boost@@U?$pair@HH@std@@@std@@PAX@std@@@std@@YA$$QAPAU?$_Tree_node@U?$pair@$$CBV?$tuple@IIIHUnull_type@tuples@boost@@U123@U123@U123@U123@U123@@tuples@boost@@U?$pair@HH@std@@@std@@PAX@0@AAPAU10@@Z ; std::forward<std::_Tree_node<std::pair<boost::tuples::tuple<unsigned int,unsigned int,unsigned int,int,boost::tuples::null_type,boost::tuples::null_type,boost::tuples::null_type,boost::tuples::null_type,boost::tuples::null_type,boost::tuples::null_type> const ,std::pair<int,int> >,void *> *>
PUBLIC	??$construct@U?$pair@$$CBVtype_id@luabind@@I@std@@U?$pair@Vtype_id@luabind@@I@2@@?$_Default_allocator_traits@V?$allocator@U?$_Tree_node@U?$pair@$$CBVtype_id@luabind@@I@std@@PAX@std@@@std@@@std@@SAXAAV?$allocator@U?$_Tree_node@U?$pair@$$CBVtype_id@luabind@@I@std@@PAX@std@@@1@QAU?$pair@$$CBVtype_id@luabind@@I@1@$$QAU?$pair@Vtype_id@luabind@@I@1@@Z ; std::_Default_allocator_traits<std::allocator<std::_Tree_node<std::pair<luabind::type_id const ,unsigned int>,void *> > >::construct<std::pair<luabind::type_id const ,unsigned int>,std::pair<luabind::type_id,unsigned int> >
PUBLIC	??$_Get_unwrapped@ABQAK@std@@YA?A_TABQAK@Z	; std::_Get_unwrapped<unsigned long * const &>
PUBLIC	??$move@AAK@std@@YA$$QAKAAK@Z			; std::move<unsigned long &>
PUBLIC	??$_Copy_memmove@PAKPAK@std@@YAPAKPAK00@Z	; std::_Copy_memmove<unsigned long *,unsigned long *>
PUBLIC	??$_Emplace_back@K@?$_Uninitialized_backout_al@V?$allocator@K@std@@@std@@QAEX$$QAK@Z ; std::_Uninitialized_backout_al<std::allocator<unsigned long> >::_Emplace_back<unsigned long>
PUBLIC	??$_To_address@PAK@std@@YA?A_PABQAK@Z		; std::_To_address<unsigned long *>
PUBLIC	??$construct@K$$V@?$_Default_allocator_traits@V?$allocator@K@std@@@std@@SAXAAV?$allocator@K@1@QAK@Z ; std::_Default_allocator_traits<std::allocator<unsigned long> >::construct<unsigned long>
PUBLIC	??$lt@U?$cons@IU?$cons@IU?$cons@HUnull_type@tuples@boost@@@tuples@boost@@@tuples@boost@@@tuples@boost@@U123@@detail@tuples@boost@@YA_NABU?$cons@IU?$cons@IU?$cons@HUnull_type@tuples@boost@@@tuples@boost@@@tuples@boost@@@12@0@Z ; boost::tuples::detail::lt<boost::tuples::cons<unsigned int,boost::tuples::cons<unsigned int,boost::tuples::cons<int,boost::tuples::null_type> > >,boost::tuples::cons<unsigned int,boost::tuples::cons<unsigned int,boost::tuples::cons<int,boost::tuples::null_type> > > >
PUBLIC	??$_Voidify_iter@PAU?$pair@$$CBVtype_id@luabind@@I@std@@@std@@YAPAXPAU?$pair@$$CBVtype_id@luabind@@I@0@@Z ; std::_Voidify_iter<std::pair<luabind::type_id const ,unsigned int> *>
PUBLIC	??$_Voidify_iter@PAU?$pair@$$CBV?$tuple@IIIHUnull_type@tuples@boost@@U123@U123@U123@U123@U123@@tuples@boost@@U?$pair@HH@std@@@std@@@std@@YAPAXPAU?$pair@$$CBV?$tuple@IIIHUnull_type@tuples@boost@@U123@U123@U123@U123@U123@@tuples@boost@@U?$pair@HH@std@@@0@@Z ; std::_Voidify_iter<std::pair<boost::tuples::tuple<unsigned int,unsigned int,unsigned int,int,boost::tuples::null_type,boost::tuples::null_type,boost::tuples::null_type,boost::tuples::null_type,boost::tuples::null_type,boost::tuples::null_type> const ,std::pair<int,int> > *>
PUBLIC	??$forward@K@std@@YA$$QAKAAK@Z			; std::forward<unsigned long>
PUBLIC	??$construct@KK@?$_Default_allocator_traits@V?$allocator@K@std@@@std@@SAXAAV?$allocator@K@1@QAK$$QAK@Z ; std::_Default_allocator_traits<std::allocator<unsigned long> >::construct<unsigned long,unsigned long>
PUBLIC	??$_Voidify_iter@PAK@std@@YAPAXPAK@Z		; std::_Voidify_iter<unsigned long *>
PUBLIC	??$forward@Vtype_id@luabind@@@std@@YA$$QAVtype_id@luabind@@AAV12@@Z ; std::forward<luabind::type_id>
PUBLIC	??$forward@I@std@@YA$$QAIAAI@Z			; std::forward<unsigned int>
PUBLIC	??$lt@U?$cons@IU?$cons@HUnull_type@tuples@boost@@@tuples@boost@@@tuples@boost@@U123@@detail@tuples@boost@@YA_NABU?$cons@IU?$cons@HUnull_type@tuples@boost@@@tuples@boost@@@12@0@Z ; boost::tuples::detail::lt<boost::tuples::cons<unsigned int,boost::tuples::cons<int,boost::tuples::null_type> >,boost::tuples::cons<unsigned int,boost::tuples::cons<int,boost::tuples::null_type> > >
PUBLIC	??$lt@U?$cons@HUnull_type@tuples@boost@@@tuples@boost@@U123@@detail@tuples@boost@@YA_NABU?$cons@HUnull_type@tuples@boost@@@12@0@Z ; boost::tuples::detail::lt<boost::tuples::cons<int,boost::tuples::null_type>,boost::tuples::cons<int,boost::tuples::null_type> >
PUBLIC	??_7exception@std@@6B@				; std::exception::`vftable'
PUBLIC	??_C@_0BC@EOODALEL@Unknown?5exception@		; `string'
PUBLIC	??_7bad_alloc@std@@6B@				; std::bad_alloc::`vftable'
PUBLIC	??_7bad_array_new_length@std@@6B@		; std::bad_array_new_length::`vftable'
PUBLIC	??_C@_0BF@KINCDENJ@bad?5array?5new?5length@	; `string'
PUBLIC	__TI3?AVbad_array_new_length@std@@
PUBLIC	__CTA3?AVbad_array_new_length@std@@
PUBLIC	??_R0?AVbad_array_new_length@std@@@8		; std::bad_array_new_length `RTTI Type Descriptor'
PUBLIC	__CT??_R0?AVbad_array_new_length@std@@@8??0bad_array_new_length@std@@QAE@ABV01@@Z12
PUBLIC	??_R0?AVbad_alloc@std@@@8			; std::bad_alloc `RTTI Type Descriptor'
PUBLIC	__CT??_R0?AVbad_alloc@std@@@8??0bad_alloc@std@@QAE@ABV01@@Z12
PUBLIC	??_R0?AVexception@std@@@8			; std::exception `RTTI Type Descriptor'
PUBLIC	__CT??_R0?AVexception@std@@@8??0exception@std@@QAE@ABV01@@Z12
PUBLIC	??_C@_0BB@FCMFBGOM@invalid?5argument@		; `string'
PUBLIC	??_C@_02DKCKIIND@?$CFs@				; `string'
PUBLIC	??_C@_0GC@FPOGKCLE@C?3?2Program?5Files?2Microsoft?5Visu@ ; `string'
PUBLIC	??_C@_1ME@GKDENAFF@?$AAC?$AA?3?$AA?2?$AAP?$AAr?$AAo?$AAg?$AAr?$AAa?$AAm?$AA?5?$AAF?$AAi?$AAl?$AAe@ ; `string'
PUBLIC	??_C@_11LOCGONAA@@				; `string'
PUBLIC	??_C@_1CG@JNLFBNGN@?$AA?$CC?$AAi?$AAn?$AAv?$AAa?$AAl?$AAi?$AAd?$AA?5?$AAa?$AAr?$AAg?$AAu?$AAm?$AAe@ ; `string'
PUBLIC	??_C@_0BJ@LFDBABJJ@ITERATOR?5LIST?5CORRUPTED?$CB@ ; `string'
PUBLIC	??_C@_1DG@PLBPCAEM@?$AA?$CC?$AAI?$AAT?$AAE?$AAR?$AAA?$AAT?$AAO?$AAR?$AA?5?$AAL?$AAI?$AAS?$AAT?$AA?5@ ; `string'
PUBLIC	??_C@_0BB@GCADKGJO@map?1set?5too?5long@		; `string'
PUBLIC	??_C@_0DE@CHADHGFF@can?8t?5dereference?5value?9initial@ ; `string'
PUBLIC	??_C@_0GB@NEMOGBCE@C?3?2Program?5Files?2Microsoft?5Visu@ ; `string'
PUBLIC	??_C@_1MC@BDGGHEJF@?$AAC?$AA?3?$AA?2?$AAP?$AAr?$AAo?$AAg?$AAr?$AAa?$AAm?$AA?5?$AAF?$AAi?$AAl?$AAe@ ; `string'
PUBLIC	??_C@_1GM@FNBFNBEL@?$AA?$CC?$AAc?$AAa?$AAn?$AA?8?$AAt?$AA?5?$AAd?$AAe?$AAr?$AAe?$AAf?$AAe?$AAr?$AAe@ ; `string'
PUBLIC	??_C@_0CP@MDHADBHN@can?8t?5dereference?5out?5of?5range?5@ ; `string'
PUBLIC	??_C@_1GC@JDCKOLAC@?$AA?$CC?$AAc?$AAa?$AAn?$AA?8?$AAt?$AA?5?$AAd?$AAe?$AAr?$AAe?$AAf?$AAe?$AAr?$AAe@ ; `string'
PUBLIC	??_C@_0BO@PFKOHNJC@vector?5subscript?5out?5of?5range@ ; `string'
PUBLIC	??_C@_1EA@LEKOKFNB@?$AA?$CC?$AAv?$AAe?$AAc?$AAt?$AAo?$AAr?$AA?5?$AAs?$AAu?$AAb?$AAs?$AAc?$AAr?$AAi@ ; `string'
PUBLIC	??_C@_0BP@OLDKBHLM@map?1set?5iterators?5incompatible@ ; `string'
PUBLIC	??_C@_0GA@KDHOBIAG@C?3?2Program?5Files?2Microsoft?5Visu@ ; `string'
PUBLIC	??_C@_1MA@MHBPBNNN@?$AAC?$AA?3?$AA?2?$AAP?$AAr?$AAo?$AAg?$AAr?$AAa?$AAm?$AA?5?$AAF?$AAi?$AAl?$AAe@ ; `string'
PUBLIC	??_C@_1EC@JLIDLCDH@?$AA?$CC?$AAm?$AAa?$AAp?$AA?1?$AAs?$AAe?$AAt?$AA?5?$AAi?$AAt?$AAe?$AAr?$AAa?$AAt@ ; `string'
PUBLIC	??_C@_1JA@OMHIKCMH@?$AAD?$AA?3?$AA?2?$AA_?$AA_?$AAR?$AAe?$AAp?$AAo?$AAs?$AA?2?$AA_?$AA_?$AAM?$AAy@ ; `string'
PUBLIC	??_C@_1BA@EEPFKCON@?$AAp?$AAx?$AA?5?$AA?$CB?$AA?$DN?$AA?5?$AA0@ ; `string'
PUBLIC	??_C@_0BO@CAOBBIOC@vector?5iterators?5incompatible@ ; `string'
PUBLIC	??_C@_1EA@DJDGNIII@?$AA?$CC?$AAv?$AAe?$AAc?$AAt?$AAo?$AAr?$AA?5?$AAi?$AAt?$AAe?$AAr?$AAa?$AAt?$AAo@ ; `string'
PUBLIC	??_C@_1KC@IDNIIAGO@?$AAD?$AA?3?$AA?2?$AA_?$AA_?$AAR?$AAe?$AAp?$AAo?$AAs?$AA?2?$AA_?$AA_?$AAM?$AAy@ ; `string'
PUBLIC	??_C@_1CK@LKHICBBG@?$AAp?$AAo?$AAs?$AA?5?$AA?$DM?$AA?5?$AAb?$AAi?$AAt?$AAs?$AA_?$AAp?$AAe?$AAr?$AA_@ ; `string'
PUBLIC	??_C@_0BH@EDKEEENI@deque?5empty?5before?5pop@	; `string'
PUBLIC	??_C@_0GA@IEHJGIEK@C?3?2Program?5Files?2Microsoft?5Visu@ ; `string'
PUBLIC	??_C@_1MA@ILDIFCAO@?$AAC?$AA?3?$AA?2?$AAP?$AAr?$AAo?$AAg?$AAr?$AAa?$AAm?$AA?5?$AAF?$AAi?$AAl?$AAe@ ; `string'
PUBLIC	??_C@_1DC@NJAACHCD@?$AA?$CC?$AAd?$AAe?$AAq?$AAu?$AAe?$AA?5?$AAe?$AAm?$AAp?$AAt?$AAy?$AA?5?$AAb?$AAe@ ; `string'
PUBLIC	??_C@_0BO@PEOHNLIM@front?$CI?$CJ?5called?5on?5empty?5deque@ ; `string'
PUBLIC	??_C@_1EA@EELNAHHD@?$AA?$CC?$AAf?$AAr?$AAo?$AAn?$AAt?$AA?$CI?$AA?$CJ?$AA?5?$AAc?$AAa?$AAl?$AAl?$AAe?$AAd@ ; `string'
PUBLIC	??_C@_0BA@FOIKENOD@vector?5too?5long@		; `string'
PUBLIC	??_C@_0DG@LCFNIIPB@cannot?5dereference?5value?9initia@ ; `string'
PUBLIC	??_C@_1HA@ILGCNILF@?$AA?$CC?$AAc?$AAa?$AAn?$AAn?$AAo?$AAt?$AA?5?$AAd?$AAe?$AAr?$AAe?$AAf?$AAe?$AAr@ ; `string'
PUBLIC	??_C@_0CI@OKFEHCEB@cannot?5dereference?5end?5map?1set?5@ ; `string'
PUBLIC	??_C@_1FE@NKHAAGMB@?$AA?$CC?$AAc?$AAa?$AAn?$AAn?$AAo?$AAt?$AA?5?$AAd?$AAe?$AAr?$AAe?$AAf?$AAe?$AAr@ ; `string'
PUBLIC	??_C@_0DG@KGHKKGBC@null?5pointer?5cannot?5point?5to?5a?5@ ; `string'
PUBLIC	??_C@_1HA@FACCKGGH@?$AA?$CC?$AAn?$AAu?$AAl?$AAl?$AA?5?$AAp?$AAo?$AAi?$AAn?$AAt?$AAe?$AAr?$AA?5?$AAc@ ; `string'
PUBLIC	??_C@_1CK@KJLAJJPB@?$AAm?$AA_?$AAc?$AAh?$AAe?$AAc?$AAk?$AA_?$AAi?$AAn?$AAv?$AAa?$AAr?$AAi?$AAa@ ; `string'
PUBLIC	??_C@_0CG@PHHCFCMA@vector?5emplace?5iterator?5outside@ ; `string'
PUBLIC	??_C@_1FA@JJEJIKGE@?$AA?$CC?$AAv?$AAe?$AAc?$AAt?$AAo?$AAr?$AA?5?$AAe?$AAm?$AAp?$AAl?$AAa?$AAc?$AAe@ ; `string'
PUBLIC	??_C@_0DC@KEKNBAEB@can?8t?5increment?5value?9initializ@ ; `string'
PUBLIC	??_C@_1GI@EDCILPL@?$AA?$CC?$AAc?$AAa?$AAn?$AA?8?$AAt?$AA?5?$AAi?$AAn?$AAc?$AAr?$AAe?$AAm?$AAe?$AAn@ ; `string'
PUBLIC	??_C@_0CJ@OAAAAGPM@can?8t?5increment?5vector?5iterator@ ; `string'
PUBLIC	??_C@_1FG@LDPPKMGP@?$AA?$CC?$AAc?$AAa?$AAn?$AA?8?$AAt?$AA?5?$AAi?$AAn?$AAc?$AAr?$AAe?$AAm?$AAe?$AAn@ ; `string'
PUBLIC	??_C@_1CG@GFHFJNC@?$AAm?$AA_?$AAb?$AAi?$AAt?$AAs?$AA?4?$AAs?$AAi?$AAz?$AAe?$AA?$CI?$AA?$CJ?$AA?5?$AA?$DN@ ; `string'
PUBLIC	??_C@_0BC@KBDMBKEH@deque?$DMT?$DO?5too?5long@	; `string'
PUBLIC	??_C@_0BJ@HAJGEHKO@transposed?5pointer?5range@	; `string'
PUBLIC	??_C@_0GD@PKIJFGH@C?3?2Program?5Files?2Microsoft?5Visu@ ; `string'
PUBLIC	??_C@_1MG@EMNPDMPD@?$AAC?$AA?3?$AA?2?$AAP?$AAr?$AAo?$AAg?$AAr?$AAa?$AAm?$AA?5?$AAF?$AAi?$AAl?$AAe@ ; `string'
PUBLIC	??_C@_1DG@FJIKMGFD@?$AA?$CC?$AAt?$AAr?$AAa?$AAn?$AAs?$AAp?$AAo?$AAs?$AAe?$AAd?$AA?5?$AAp?$AAo?$AAi@ ; `string'
PUBLIC	??_C@_1DO@DNNHOGGG@?$AAs?$AAi?$AAz?$AAe?$AA?$CI?$AA?$CJ?$AA?5?$AA?$DO?$AA?5?$AA0?$AA?5?$AA?$CG?$AA?$CG?$AA?5?$AAn@ ; `string'
PUBLIC	??_C@_0BD@FEEMDEPI@invalid?5comparator@		; `string'
PUBLIC	??_C@_1CK@NDNHPKPI@?$AA?$CC?$AAi?$AAn?$AAv?$AAa?$AAl?$AAi?$AAd?$AA?5?$AAc?$AAo?$AAm?$AAp?$AAa?$AAr@ ; `string'
PUBLIC	??_C@_0DI@PBEELKIF@vector?5iterators?5in?5range?5are?5f@ ; `string'
PUBLIC	??_C@_1HE@KBMFDAFB@?$AA?$CC?$AAv?$AAe?$AAc?$AAt?$AAo?$AAr?$AA?5?$AAi?$AAt?$AAe?$AAr?$AAa?$AAt?$AAo@ ; `string'
PUBLIC	??_C@_0CB@LIAHLBAO@vector?5iterator?5range?5transpose@ ; `string'
PUBLIC	??_C@_1EG@ODKBEHFN@?$AA?$CC?$AAv?$AAe?$AAc?$AAt?$AAo?$AAr?$AA?5?$AAi?$AAt?$AAe?$AAr?$AAa?$AAt?$AAo@ ; `string'
PUBLIC	??_C@_0BO@OKMPKPLD@back?$CI?$CJ?5called?5on?5empty?5vector@ ; `string'
PUBLIC	??_C@_1EA@OBAHGFFK@?$AA?$CC?$AAb?$AAa?$AAc?$AAk?$AA?$CI?$AA?$CJ?$AA?5?$AAc?$AAa?$AAl?$AAl?$AAe?$AAd?$AA?5@ ; `string'
PUBLIC	??_R4exception@std@@6B@				; std::exception::`RTTI Complete Object Locator'
PUBLIC	??_R3exception@std@@8				; std::exception::`RTTI Class Hierarchy Descriptor'
PUBLIC	??_R2exception@std@@8				; std::exception::`RTTI Base Class Array'
PUBLIC	??_R1A@?0A@EA@exception@std@@8			; std::exception::`RTTI Base Class Descriptor at (0,-1,0,64)'
PUBLIC	??_R4bad_alloc@std@@6B@				; std::bad_alloc::`RTTI Complete Object Locator'
PUBLIC	??_R3bad_alloc@std@@8				; std::bad_alloc::`RTTI Class Hierarchy Descriptor'
PUBLIC	??_R2bad_alloc@std@@8				; std::bad_alloc::`RTTI Base Class Array'
PUBLIC	??_R1A@?0A@EA@bad_alloc@std@@8			; std::bad_alloc::`RTTI Base Class Descriptor at (0,-1,0,64)'
PUBLIC	??_R4bad_array_new_length@std@@6B@		; std::bad_array_new_length::`RTTI Complete Object Locator'
PUBLIC	??_R3bad_array_new_length@std@@8		; std::bad_array_new_length::`RTTI Class Hierarchy Descriptor'
PUBLIC	??_R2bad_array_new_length@std@@8		; std::bad_array_new_length::`RTTI Base Class Array'
PUBLIC	??_R1A@?0A@EA@bad_array_new_length@std@@8	; std::bad_array_new_length::`RTTI Base Class Descriptor at (0,-1,0,64)'
EXTRN	??2@YAPAXI@Z:PROC				; operator new
EXTRN	??3@YAXPAXI@Z:PROC				; operator delete
EXTRN	_atexit:PROC
EXTRN	__Init_thread_header:PROC
EXTRN	__Init_thread_abort:PROC
EXTRN	__Init_thread_footer:PROC
EXTRN	__invalid_parameter:PROC
EXTRN	_memmove:PROC
EXTRN	_memset:PROC
EXTRN	__CrtDbgReport:PROC
EXTRN	??0_Lockit@std@@QAE@H@Z:PROC			; std::_Lockit::_Lockit
EXTRN	??1_Lockit@std@@QAE@XZ:PROC			; std::_Lockit::~_Lockit
EXTRN	___std_exception_copy:PROC
EXTRN	___std_exception_destroy:PROC
EXTRN	??_Eexception@std@@UAEPAXI@Z:PROC		; std::exception::`vector deleting destructor'
EXTRN	??_Ebad_alloc@std@@UAEPAXI@Z:PROC		; std::bad_alloc::`vector deleting destructor'
EXTRN	??_Ebad_array_new_length@std@@UAEPAXI@Z:PROC	; std::bad_array_new_length::`vector deleting destructor'
EXTRN	?_Xlength_error@std@@YAXPBD@Z:PROC		; std::_Xlength_error
EXTRN	__wassert:PROC
EXTRN	___std_type_info_compare:PROC
EXTRN	@_RTC_CheckStackVars@8:PROC
EXTRN	@__security_check_cookie@4:PROC
EXTRN	__CxxThrowException@8:PROC
EXTRN	__RTC_CheckEsp:PROC
EXTRN	__RTC_InitBase:PROC
EXTRN	__RTC_Shutdown:PROC
EXTRN	___CxxFrameHandler3:PROC
EXTRN	_memset:PROC
EXTRN	__Init_thread_epoch:DWORD
EXTRN	??_7type_info@@6B@:QWORD			; type_info::`vftable'
EXTRN	___security_cookie:DWORD
EXTRN	__tls_array:DWORD
EXTRN	__tls_index:DWORD
;	COMDAT ?registered@?1??allocate_class_id@detail@luabind@@YAIABVtype_id@3@@Z@4V?$map@Vtype_id@luabind@@IU?$less@Vtype_id@luabind@@@std@@V?$allocator@U?$pair@$$CBVtype_id@luabind@@I@std@@@4@@std@@A
_BSS	SEGMENT
?registered@?1??allocate_class_id@detail@luabind@@YAIABVtype_id@3@@Z@4V?$map@Vtype_id@luabind@@IU?$less@Vtype_id@luabind@@@std@@V?$allocator@U?$pair@$$CBVtype_id@luabind@@I@std@@@4@@std@@A DB 0cH DUP (?) ; `luabind::detail::allocate_class_id'::`2'::registered
_BSS	ENDS
;	COMDAT ?$TSS0@?1??allocate_class_id@detail@luabind@@YAIABVtype_id@3@@Z@4HA
_BSS	SEGMENT
?$TSS0@?1??allocate_class_id@detail@luabind@@YAIABVtype_id@3@@Z@4HA DD 01H DUP (?) ; `luabind::detail::allocate_class_id'::`2'::$TSS0
_BSS	ENDS
;	COMDAT ?id@?1??allocate_class_id@detail@luabind@@YAIABVtype_id@3@@Z@4IA
_BSS	SEGMENT
?id@?1??allocate_class_id@detail@luabind@@YAIABVtype_id@3@@Z@4IA DD 01H DUP (?) ; `luabind::detail::allocate_class_id'::`2'::id
_BSS	ENDS
;	COMDAT ?t@?1???$to_ptr@V?$vector@Uedge@?A0xac297765@detail@luabind@@V?$allocator@Uedge@?A0xac297765@detail@luabind@@@std@@@std@@@foreach_detail_@boost@@YAAAPAV?$vector@Uedge@?A0xac297765@detail@luabind@@V?$allocator@Uedge@?A0xac297765@detail@luabind@@@std@@@std@@ABV34@@Z@4PAV34@A
_BSS	SEGMENT
?t@?1???$to_ptr@V?$vector@Uedge@?A0xac297765@detail@luabind@@V?$allocator@Uedge@?A0xac297765@detail@luabind@@@std@@@std@@@foreach_detail_@boost@@YAAAPAV?$vector@Uedge@?A0xac297765@detail@luabind@@V?$allocator@Uedge@?A0xac297765@detail@luabind@@@std@@@std@@ABV34@@Z@4PAV34@A DD 01H DUP (?) ; `boost::foreach_detail_::to_ptr<std::vector<luabind::detail::`anonymous namespace'::edge,std::allocator<luabind::detail::`anonymous namespace'::edge> > >'::`2'::t
_BSS	ENDS
;	COMDAT rtc$TMZ
rtc$TMZ	SEGMENT
__RTC_Shutdown.rtc$TMZ DD FLAT:__RTC_Shutdown
rtc$TMZ	ENDS
;	COMDAT rtc$IMZ
rtc$IMZ	SEGMENT
__RTC_InitBase.rtc$IMZ DD FLAT:__RTC_InitBase
rtc$IMZ	ENDS
;	COMDAT ??_R1A@?0A@EA@bad_array_new_length@std@@8
rdata$r	SEGMENT
??_R1A@?0A@EA@bad_array_new_length@std@@8 DD FLAT:??_R0?AVbad_array_new_length@std@@@8 ; std::bad_array_new_length::`RTTI Base Class Descriptor at (0,-1,0,64)'
	DD	02H
	DD	00H
	DD	0ffffffffH
	DD	00H
	DD	040H
	DD	FLAT:??_R3bad_array_new_length@std@@8
rdata$r	ENDS
;	COMDAT ??_R2bad_array_new_length@std@@8
rdata$r	SEGMENT
??_R2bad_array_new_length@std@@8 DD FLAT:??_R1A@?0A@EA@bad_array_new_length@std@@8 ; std::bad_array_new_length::`RTTI Base Class Array'
	DD	FLAT:??_R1A@?0A@EA@bad_alloc@std@@8
	DD	FLAT:??_R1A@?0A@EA@exception@std@@8
rdata$r	ENDS
;	COMDAT ??_R3bad_array_new_length@std@@8
rdata$r	SEGMENT
??_R3bad_array_new_length@std@@8 DD 00H			; std::bad_array_new_length::`RTTI Class Hierarchy Descriptor'
	DD	00H
	DD	03H
	DD	FLAT:??_R2bad_array_new_length@std@@8
rdata$r	ENDS
;	COMDAT ??_R4bad_array_new_length@std@@6B@
rdata$r	SEGMENT
??_R4bad_array_new_length@std@@6B@ DD 00H		; std::bad_array_new_length::`RTTI Complete Object Locator'
	DD	00H
	DD	00H
	DD	FLAT:??_R0?AVbad_array_new_length@std@@@8
	DD	FLAT:??_R3bad_array_new_length@std@@8
rdata$r	ENDS
;	COMDAT ??_R1A@?0A@EA@bad_alloc@std@@8
rdata$r	SEGMENT
??_R1A@?0A@EA@bad_alloc@std@@8 DD FLAT:??_R0?AVbad_alloc@std@@@8 ; std::bad_alloc::`RTTI Base Class Descriptor at (0,-1,0,64)'
	DD	01H
	DD	00H
	DD	0ffffffffH
	DD	00H
	DD	040H
	DD	FLAT:??_R3bad_alloc@std@@8
rdata$r	ENDS
;	COMDAT ??_R2bad_alloc@std@@8
rdata$r	SEGMENT
??_R2bad_alloc@std@@8 DD FLAT:??_R1A@?0A@EA@bad_alloc@std@@8 ; std::bad_alloc::`RTTI Base Class Array'
	DD	FLAT:??_R1A@?0A@EA@exception@std@@8
rdata$r	ENDS
;	COMDAT ??_R3bad_alloc@std@@8
rdata$r	SEGMENT
??_R3bad_alloc@std@@8 DD 00H				; std::bad_alloc::`RTTI Class Hierarchy Descriptor'
	DD	00H
	DD	02H
	DD	FLAT:??_R2bad_alloc@std@@8
rdata$r	ENDS
;	COMDAT ??_R4bad_alloc@std@@6B@
rdata$r	SEGMENT
??_R4bad_alloc@std@@6B@ DD 00H				; std::bad_alloc::`RTTI Complete Object Locator'
	DD	00H
	DD	00H
	DD	FLAT:??_R0?AVbad_alloc@std@@@8
	DD	FLAT:??_R3bad_alloc@std@@8
rdata$r	ENDS
;	COMDAT ??_R1A@?0A@EA@exception@std@@8
rdata$r	SEGMENT
??_R1A@?0A@EA@exception@std@@8 DD FLAT:??_R0?AVexception@std@@@8 ; std::exception::`RTTI Base Class Descriptor at (0,-1,0,64)'
	DD	00H
	DD	00H
	DD	0ffffffffH
	DD	00H
	DD	040H
	DD	FLAT:??_R3exception@std@@8
rdata$r	ENDS
;	COMDAT ??_R2exception@std@@8
rdata$r	SEGMENT
??_R2exception@std@@8 DD FLAT:??_R1A@?0A@EA@exception@std@@8 ; std::exception::`RTTI Base Class Array'
rdata$r	ENDS
;	COMDAT ??_R3exception@std@@8
rdata$r	SEGMENT
??_R3exception@std@@8 DD 00H				; std::exception::`RTTI Class Hierarchy Descriptor'
	DD	00H
	DD	01H
	DD	FLAT:??_R2exception@std@@8
rdata$r	ENDS
;	COMDAT ??_R4exception@std@@6B@
rdata$r	SEGMENT
??_R4exception@std@@6B@ DD 00H				; std::exception::`RTTI Complete Object Locator'
	DD	00H
	DD	00H
	DD	FLAT:??_R0?AVexception@std@@@8
	DD	FLAT:??_R3exception@std@@8
rdata$r	ENDS
;	COMDAT ??_C@_1EA@OBAHGFFK@?$AA?$CC?$AAb?$AAa?$AAc?$AAk?$AA?$CI?$AA?$CJ?$AA?5?$AAc?$AAa?$AAl?$AAl?$AAe?$AAd?$AA?5@
CONST	SEGMENT
??_C@_1EA@OBAHGFFK@?$AA?$CC?$AAb?$AAa?$AAc?$AAk?$AA?$CI?$AA?$CJ?$AA?5?$AAc?$AAa?$AAl?$AAl?$AAe?$AAd?$AA?5@ DB '"'
	DB	00H, 'b', 00H, 'a', 00H, 'c', 00H, 'k', 00H, '(', 00H, ')', 00H
	DB	' ', 00H, 'c', 00H, 'a', 00H, 'l', 00H, 'l', 00H, 'e', 00H, 'd'
	DB	00H, ' ', 00H, 'o', 00H, 'n', 00H, ' ', 00H, 'e', 00H, 'm', 00H
	DB	'p', 00H, 't', 00H, 'y', 00H, ' ', 00H, 'v', 00H, 'e', 00H, 'c'
	DB	00H, 't', 00H, 'o', 00H, 'r', 00H, '"', 00H, 00H, 00H ; `string'
CONST	ENDS
;	COMDAT ??_C@_0BO@OKMPKPLD@back?$CI?$CJ?5called?5on?5empty?5vector@
CONST	SEGMENT
??_C@_0BO@OKMPKPLD@back?$CI?$CJ?5called?5on?5empty?5vector@ DB 'back() ca'
	DB	'lled on empty vector', 00H			; `string'
CONST	ENDS
;	COMDAT ??_C@_1EG@ODKBEHFN@?$AA?$CC?$AAv?$AAe?$AAc?$AAt?$AAo?$AAr?$AA?5?$AAi?$AAt?$AAe?$AAr?$AAa?$AAt?$AAo@
CONST	SEGMENT
??_C@_1EG@ODKBEHFN@?$AA?$CC?$AAv?$AAe?$AAc?$AAt?$AAo?$AAr?$AA?5?$AAi?$AAt?$AAe?$AAr?$AAa?$AAt?$AAo@ DB '"'
	DB	00H, 'v', 00H, 'e', 00H, 'c', 00H, 't', 00H, 'o', 00H, 'r', 00H
	DB	' ', 00H, 'i', 00H, 't', 00H, 'e', 00H, 'r', 00H, 'a', 00H, 't'
	DB	00H, 'o', 00H, 'r', 00H, ' ', 00H, 'r', 00H, 'a', 00H, 'n', 00H
	DB	'g', 00H, 'e', 00H, ' ', 00H, 't', 00H, 'r', 00H, 'a', 00H, 'n'
	DB	00H, 's', 00H, 'p', 00H, 'o', 00H, 's', 00H, 'e', 00H, 'd', 00H
	DB	'"', 00H, 00H, 00H				; `string'
CONST	ENDS
;	COMDAT ??_C@_0CB@LIAHLBAO@vector?5iterator?5range?5transpose@
CONST	SEGMENT
??_C@_0CB@LIAHLBAO@vector?5iterator?5range?5transpose@ DB 'vector iterato'
	DB	'r range transposed', 00H			; `string'
CONST	ENDS
;	COMDAT ??_C@_1HE@KBMFDAFB@?$AA?$CC?$AAv?$AAe?$AAc?$AAt?$AAo?$AAr?$AA?5?$AAi?$AAt?$AAe?$AAr?$AAa?$AAt?$AAo@
CONST	SEGMENT
??_C@_1HE@KBMFDAFB@?$AA?$CC?$AAv?$AAe?$AAc?$AAt?$AAo?$AAr?$AA?5?$AAi?$AAt?$AAe?$AAr?$AAa?$AAt?$AAo@ DB '"'
	DB	00H, 'v', 00H, 'e', 00H, 'c', 00H, 't', 00H, 'o', 00H, 'r', 00H
	DB	' ', 00H, 'i', 00H, 't', 00H, 'e', 00H, 'r', 00H, 'a', 00H, 't'
	DB	00H, 'o', 00H, 'r', 00H, 's', 00H, ' ', 00H, 'i', 00H, 'n', 00H
	DB	' ', 00H, 'r', 00H, 'a', 00H, 'n', 00H, 'g', 00H, 'e', 00H, ' '
	DB	00H, 'a', 00H, 'r', 00H, 'e', 00H, ' ', 00H, 'f', 00H, 'r', 00H
	DB	'o', 00H, 'm', 00H, ' ', 00H, 'd', 00H, 'i', 00H, 'f', 00H, 'f'
	DB	00H, 'e', 00H, 'r', 00H, 'e', 00H, 'n', 00H, 't', 00H, ' ', 00H
	DB	'c', 00H, 'o', 00H, 'n', 00H, 't', 00H, 'a', 00H, 'i', 00H, 'n'
	DB	00H, 'e', 00H, 'r', 00H, 's', 00H, '"', 00H, 00H, 00H ; `string'
CONST	ENDS
;	COMDAT ??_C@_0DI@PBEELKIF@vector?5iterators?5in?5range?5are?5f@
CONST	SEGMENT
??_C@_0DI@PBEELKIF@vector?5iterators?5in?5range?5are?5f@ DB 'vector itera'
	DB	'tors in range are from different containers', 00H ; `string'
CONST	ENDS
;	COMDAT ??_C@_1CK@NDNHPKPI@?$AA?$CC?$AAi?$AAn?$AAv?$AAa?$AAl?$AAi?$AAd?$AA?5?$AAc?$AAo?$AAm?$AAp?$AAa?$AAr@
CONST	SEGMENT
??_C@_1CK@NDNHPKPI@?$AA?$CC?$AAi?$AAn?$AAv?$AAa?$AAl?$AAi?$AAd?$AA?5?$AAc?$AAo?$AAm?$AAp?$AAa?$AAr@ DB '"'
	DB	00H, 'i', 00H, 'n', 00H, 'v', 00H, 'a', 00H, 'l', 00H, 'i', 00H
	DB	'd', 00H, ' ', 00H, 'c', 00H, 'o', 00H, 'm', 00H, 'p', 00H, 'a'
	DB	00H, 'r', 00H, 'a', 00H, 't', 00H, 'o', 00H, 'r', 00H, '"', 00H
	DB	00H, 00H					; `string'
CONST	ENDS
;	COMDAT ??_C@_0BD@FEEMDEPI@invalid?5comparator@
CONST	SEGMENT
??_C@_0BD@FEEMDEPI@invalid?5comparator@ DB 'invalid comparator', 00H ; `string'
CONST	ENDS
;	COMDAT ??_C@_1DO@DNNHOGGG@?$AAs?$AAi?$AAz?$AAe?$AA?$CI?$AA?$CJ?$AA?5?$AA?$DO?$AA?5?$AA0?$AA?5?$AA?$CG?$AA?$CG?$AA?5?$AAn@
CONST	SEGMENT
??_C@_1DO@DNNHOGGG@?$AAs?$AAi?$AAz?$AAe?$AA?$CI?$AA?$CJ?$AA?5?$AA?$DO?$AA?5?$AA0?$AA?5?$AA?$CG?$AA?$CG?$AA?5?$AAn@ DB 's'
	DB	00H, 'i', 00H, 'z', 00H, 'e', 00H, '(', 00H, ')', 00H, ' ', 00H
	DB	'>', 00H, ' ', 00H, '0', 00H, ' ', 00H, '&', 00H, '&', 00H, ' '
	DB	00H, 'n', 00H, 'u', 00H, 'm', 00H, '_', 00H, 'b', 00H, 'l', 00H
	DB	'o', 00H, 'c', 00H, 'k', 00H, 's', 00H, '(', 00H, ')', 00H, ' '
	DB	00H, '>', 00H, ' ', 00H, '0', 00H, 00H, 00H	; `string'
CONST	ENDS
;	COMDAT ??_C@_1DG@FJIKMGFD@?$AA?$CC?$AAt?$AAr?$AAa?$AAn?$AAs?$AAp?$AAo?$AAs?$AAe?$AAd?$AA?5?$AAp?$AAo?$AAi@
CONST	SEGMENT
??_C@_1DG@FJIKMGFD@?$AA?$CC?$AAt?$AAr?$AAa?$AAn?$AAs?$AAp?$AAo?$AAs?$AAe?$AAd?$AA?5?$AAp?$AAo?$AAi@ DB '"'
	DB	00H, 't', 00H, 'r', 00H, 'a', 00H, 'n', 00H, 's', 00H, 'p', 00H
	DB	'o', 00H, 's', 00H, 'e', 00H, 'd', 00H, ' ', 00H, 'p', 00H, 'o'
	DB	00H, 'i', 00H, 'n', 00H, 't', 00H, 'e', 00H, 'r', 00H, ' ', 00H
	DB	'r', 00H, 'a', 00H, 'n', 00H, 'g', 00H, 'e', 00H, '"', 00H, 00H
	DB	00H						; `string'
CONST	ENDS
;	COMDAT ??_C@_1MG@EMNPDMPD@?$AAC?$AA?3?$AA?2?$AAP?$AAr?$AAo?$AAg?$AAr?$AAa?$AAm?$AA?5?$AAF?$AAi?$AAl?$AAe@
CONST	SEGMENT
??_C@_1MG@EMNPDMPD@?$AAC?$AA?3?$AA?2?$AAP?$AAr?$AAo?$AAg?$AAr?$AAa?$AAm?$AA?5?$AAF?$AAi?$AAl?$AAe@ DB 'C'
	DB	00H, ':', 00H, '\', 00H, 'P', 00H, 'r', 00H, 'o', 00H, 'g', 00H
	DB	'r', 00H, 'a', 00H, 'm', 00H, ' ', 00H, 'F', 00H, 'i', 00H, 'l'
	DB	00H, 'e', 00H, 's', 00H, '\', 00H, 'M', 00H, 'i', 00H, 'c', 00H
	DB	'r', 00H, 'o', 00H, 's', 00H, 'o', 00H, 'f', 00H, 't', 00H, ' '
	DB	00H, 'V', 00H, 'i', 00H, 's', 00H, 'u', 00H, 'a', 00H, 'l', 00H
	DB	' ', 00H, 'S', 00H, 't', 00H, 'u', 00H, 'd', 00H, 'i', 00H, 'o'
	DB	00H, '\', 00H, '2', 00H, '0', 00H, '2', 00H, '2', 00H, '\', 00H
	DB	'C', 00H, 'o', 00H, 'm', 00H, 'm', 00H, 'u', 00H, 'n', 00H, 'i'
	DB	00H, 't', 00H, 'y', 00H, '\', 00H, 'V', 00H, 'C', 00H, '\', 00H
	DB	'T', 00H, 'o', 00H, 'o', 00H, 'l', 00H, 's', 00H, '\', 00H, 'M'
	DB	00H, 'S', 00H, 'V', 00H, 'C', 00H, '\', 00H, '1', 00H, '4', 00H
	DB	'.', 00H, '3', 00H, '5', 00H, '.', 00H, '3', 00H, '2', 00H, '2'
	DB	00H, '1', 00H, '5', 00H, '\', 00H, 'i', 00H, 'n', 00H, 'c', 00H
	DB	'l', 00H, 'u', 00H, 'd', 00H, 'e', 00H, '\', 00H, 'x', 00H, 'u'
	DB	00H, 't', 00H, 'i', 00H, 'l', 00H, 'i', 00H, 't', 00H, 'y', 00H
	DB	00H, 00H					; `string'
CONST	ENDS
;	COMDAT ??_C@_0GD@PKIJFGH@C?3?2Program?5Files?2Microsoft?5Visu@
CONST	SEGMENT
??_C@_0GD@PKIJFGH@C?3?2Program?5Files?2Microsoft?5Visu@ DB 'C:\Program Fi'
	DB	'les\Microsoft Visual Studio\2022\Community\VC\Tools\MSVC\14.3'
	DB	'5.32215\include\xutility', 00H		; `string'
CONST	ENDS
;	COMDAT ??_C@_0BJ@HAJGEHKO@transposed?5pointer?5range@
CONST	SEGMENT
??_C@_0BJ@HAJGEHKO@transposed?5pointer?5range@ DB 'transposed pointer ran'
	DB	'ge', 00H					; `string'
CONST	ENDS
;	COMDAT ??_C@_0BC@KBDMBKEH@deque?$DMT?$DO?5too?5long@
CONST	SEGMENT
??_C@_0BC@KBDMBKEH@deque?$DMT?$DO?5too?5long@ DB 'deque<T> too long', 00H ; `string'
CONST	ENDS
;	COMDAT ??_C@_1CG@GFHFJNC@?$AAm?$AA_?$AAb?$AAi?$AAt?$AAs?$AA?4?$AAs?$AAi?$AAz?$AAe?$AA?$CI?$AA?$CJ?$AA?5?$AA?$DN@
CONST	SEGMENT
??_C@_1CG@GFHFJNC@?$AAm?$AA_?$AAb?$AAi?$AAt?$AAs?$AA?4?$AAs?$AAi?$AAz?$AAe?$AA?$CI?$AA?$CJ?$AA?5?$AA?$DN@ DB 'm'
	DB	00H, '_', 00H, 'b', 00H, 'i', 00H, 't', 00H, 's', 00H, '.', 00H
	DB	's', 00H, 'i', 00H, 'z', 00H, 'e', 00H, '(', 00H, ')', 00H, ' '
	DB	00H, '=', 00H, '=', 00H, ' ', 00H, '0', 00H, 00H, 00H ; `string'
CONST	ENDS
;	COMDAT ??_C@_1FG@LDPPKMGP@?$AA?$CC?$AAc?$AAa?$AAn?$AA?8?$AAt?$AA?5?$AAi?$AAn?$AAc?$AAr?$AAe?$AAm?$AAe?$AAn@
CONST	SEGMENT
??_C@_1FG@LDPPKMGP@?$AA?$CC?$AAc?$AAa?$AAn?$AA?8?$AAt?$AA?5?$AAi?$AAn?$AAc?$AAr?$AAe?$AAm?$AAe?$AAn@ DB '"'
	DB	00H, 'c', 00H, 'a', 00H, 'n', 00H, '''', 00H, 't', 00H, ' ', 00H
	DB	'i', 00H, 'n', 00H, 'c', 00H, 'r', 00H, 'e', 00H, 'm', 00H, 'e'
	DB	00H, 'n', 00H, 't', 00H, ' ', 00H, 'v', 00H, 'e', 00H, 'c', 00H
	DB	't', 00H, 'o', 00H, 'r', 00H, ' ', 00H, 'i', 00H, 't', 00H, 'e'
	DB	00H, 'r', 00H, 'a', 00H, 't', 00H, 'o', 00H, 'r', 00H, ' ', 00H
	DB	'p', 00H, 'a', 00H, 's', 00H, 't', 00H, ' ', 00H, 'e', 00H, 'n'
	DB	00H, 'd', 00H, '"', 00H, 00H, 00H		; `string'
CONST	ENDS
;	COMDAT ??_C@_0CJ@OAAAAGPM@can?8t?5increment?5vector?5iterator@
CONST	SEGMENT
??_C@_0CJ@OAAAAGPM@can?8t?5increment?5vector?5iterator@ DB 'can''t increm'
	DB	'ent vector iterator past end', 00H		; `string'
CONST	ENDS
;	COMDAT ??_C@_1GI@EDCILPL@?$AA?$CC?$AAc?$AAa?$AAn?$AA?8?$AAt?$AA?5?$AAi?$AAn?$AAc?$AAr?$AAe?$AAm?$AAe?$AAn@
CONST	SEGMENT
??_C@_1GI@EDCILPL@?$AA?$CC?$AAc?$AAa?$AAn?$AA?8?$AAt?$AA?5?$AAi?$AAn?$AAc?$AAr?$AAe?$AAm?$AAe?$AAn@ DB '"'
	DB	00H, 'c', 00H, 'a', 00H, 'n', 00H, '''', 00H, 't', 00H, ' ', 00H
	DB	'i', 00H, 'n', 00H, 'c', 00H, 'r', 00H, 'e', 00H, 'm', 00H, 'e'
	DB	00H, 'n', 00H, 't', 00H, ' ', 00H, 'v', 00H, 'a', 00H, 'l', 00H
	DB	'u', 00H, 'e', 00H, '-', 00H, 'i', 00H, 'n', 00H, 'i', 00H, 't'
	DB	00H, 'i', 00H, 'a', 00H, 'l', 00H, 'i', 00H, 'z', 00H, 'e', 00H
	DB	'd', 00H, ' ', 00H, 'v', 00H, 'e', 00H, 'c', 00H, 't', 00H, 'o'
	DB	00H, 'r', 00H, ' ', 00H, 'i', 00H, 't', 00H, 'e', 00H, 'r', 00H
	DB	'a', 00H, 't', 00H, 'o', 00H, 'r', 00H, '"', 00H, 00H, 00H ; `string'
CONST	ENDS
;	COMDAT ??_C@_0DC@KEKNBAEB@can?8t?5increment?5value?9initializ@
CONST	SEGMENT
??_C@_0DC@KEKNBAEB@can?8t?5increment?5value?9initializ@ DB 'can''t increm'
	DB	'ent value-initialized vector iterator', 00H	; `string'
CONST	ENDS
;	COMDAT ??_C@_1FA@JJEJIKGE@?$AA?$CC?$AAv?$AAe?$AAc?$AAt?$AAo?$AAr?$AA?5?$AAe?$AAm?$AAp?$AAl?$AAa?$AAc?$AAe@
CONST	SEGMENT
??_C@_1FA@JJEJIKGE@?$AA?$CC?$AAv?$AAe?$AAc?$AAt?$AAo?$AAr?$AA?5?$AAe?$AAm?$AAp?$AAl?$AAa?$AAc?$AAe@ DB '"'
	DB	00H, 'v', 00H, 'e', 00H, 'c', 00H, 't', 00H, 'o', 00H, 'r', 00H
	DB	' ', 00H, 'e', 00H, 'm', 00H, 'p', 00H, 'l', 00H, 'a', 00H, 'c'
	DB	00H, 'e', 00H, ' ', 00H, 'i', 00H, 't', 00H, 'e', 00H, 'r', 00H
	DB	'a', 00H, 't', 00H, 'o', 00H, 'r', 00H, ' ', 00H, 'o', 00H, 'u'
	DB	00H, 't', 00H, 's', 00H, 'i', 00H, 'd', 00H, 'e', 00H, ' ', 00H
	DB	'r', 00H, 'a', 00H, 'n', 00H, 'g', 00H, 'e', 00H, '"', 00H, 00H
	DB	00H						; `string'
CONST	ENDS
;	COMDAT ??_C@_0CG@PHHCFCMA@vector?5emplace?5iterator?5outside@
CONST	SEGMENT
??_C@_0CG@PHHCFCMA@vector?5emplace?5iterator?5outside@ DB 'vector emplace'
	DB	' iterator outside range', 00H		; `string'
CONST	ENDS
;	COMDAT ??_C@_1CK@KJLAJJPB@?$AAm?$AA_?$AAc?$AAh?$AAe?$AAc?$AAk?$AA_?$AAi?$AAn?$AAv?$AAa?$AAr?$AAi?$AAa@
CONST	SEGMENT
??_C@_1CK@KJLAJJPB@?$AAm?$AA_?$AAc?$AAh?$AAe?$AAc?$AAk?$AA_?$AAi?$AAn?$AAv?$AAa?$AAr?$AAi?$AAa@ DB 'm'
	DB	00H, '_', 00H, 'c', 00H, 'h', 00H, 'e', 00H, 'c', 00H, 'k', 00H
	DB	'_', 00H, 'i', 00H, 'n', 00H, 'v', 00H, 'a', 00H, 'r', 00H, 'i'
	DB	00H, 'a', 00H, 'n', 00H, 't', 00H, 's', 00H, '(', 00H, ')', 00H
	DB	00H, 00H					; `string'
CONST	ENDS
;	COMDAT ??_C@_1HA@FACCKGGH@?$AA?$CC?$AAn?$AAu?$AAl?$AAl?$AA?5?$AAp?$AAo?$AAi?$AAn?$AAt?$AAe?$AAr?$AA?5?$AAc@
CONST	SEGMENT
??_C@_1HA@FACCKGGH@?$AA?$CC?$AAn?$AAu?$AAl?$AAl?$AA?5?$AAp?$AAo?$AAi?$AAn?$AAt?$AAe?$AAr?$AA?5?$AAc@ DB '"'
	DB	00H, 'n', 00H, 'u', 00H, 'l', 00H, 'l', 00H, ' ', 00H, 'p', 00H
	DB	'o', 00H, 'i', 00H, 'n', 00H, 't', 00H, 'e', 00H, 'r', 00H, ' '
	DB	00H, 'c', 00H, 'a', 00H, 'n', 00H, 'n', 00H, 'o', 00H, 't', 00H
	DB	' ', 00H, 'p', 00H, 'o', 00H, 'i', 00H, 'n', 00H, 't', 00H, ' '
	DB	00H, 't', 00H, 'o', 00H, ' ', 00H, 'a', 00H, ' ', 00H, 'b', 00H
	DB	'l', 00H, 'o', 00H, 'c', 00H, 'k', 00H, ' ', 00H, 'o', 00H, 'f'
	DB	00H, ' ', 00H, 'n', 00H, 'o', 00H, 'n', 00H, '-', 00H, 'z', 00H
	DB	'e', 00H, 'r', 00H, 'o', 00H, ' ', 00H, 's', 00H, 'i', 00H, 'z'
	DB	00H, 'e', 00H, '"', 00H, 00H, 00H		; `string'
CONST	ENDS
;	COMDAT ??_C@_0DG@KGHKKGBC@null?5pointer?5cannot?5point?5to?5a?5@
CONST	SEGMENT
??_C@_0DG@KGHKKGBC@null?5pointer?5cannot?5point?5to?5a?5@ DB 'null pointe'
	DB	'r cannot point to a block of non-zero size', 00H ; `string'
CONST	ENDS
;	COMDAT ??_C@_1FE@NKHAAGMB@?$AA?$CC?$AAc?$AAa?$AAn?$AAn?$AAo?$AAt?$AA?5?$AAd?$AAe?$AAr?$AAe?$AAf?$AAe?$AAr@
CONST	SEGMENT
??_C@_1FE@NKHAAGMB@?$AA?$CC?$AAc?$AAa?$AAn?$AAn?$AAo?$AAt?$AA?5?$AAd?$AAe?$AAr?$AAe?$AAf?$AAe?$AAr@ DB '"'
	DB	00H, 'c', 00H, 'a', 00H, 'n', 00H, 'n', 00H, 'o', 00H, 't', 00H
	DB	' ', 00H, 'd', 00H, 'e', 00H, 'r', 00H, 'e', 00H, 'f', 00H, 'e'
	DB	00H, 'r', 00H, 'e', 00H, 'n', 00H, 'c', 00H, 'e', 00H, ' ', 00H
	DB	'e', 00H, 'n', 00H, 'd', 00H, ' ', 00H, 'm', 00H, 'a', 00H, 'p'
	DB	00H, '/', 00H, 's', 00H, 'e', 00H, 't', 00H, ' ', 00H, 'i', 00H
	DB	't', 00H, 'e', 00H, 'r', 00H, 'a', 00H, 't', 00H, 'o', 00H, 'r'
	DB	00H, '"', 00H, 00H, 00H			; `string'
CONST	ENDS
;	COMDAT ??_C@_0CI@OKFEHCEB@cannot?5dereference?5end?5map?1set?5@
CONST	SEGMENT
??_C@_0CI@OKFEHCEB@cannot?5dereference?5end?5map?1set?5@ DB 'cannot deref'
	DB	'erence end map/set iterator', 00H		; `string'
CONST	ENDS
;	COMDAT ??_C@_1HA@ILGCNILF@?$AA?$CC?$AAc?$AAa?$AAn?$AAn?$AAo?$AAt?$AA?5?$AAd?$AAe?$AAr?$AAe?$AAf?$AAe?$AAr@
CONST	SEGMENT
??_C@_1HA@ILGCNILF@?$AA?$CC?$AAc?$AAa?$AAn?$AAn?$AAo?$AAt?$AA?5?$AAd?$AAe?$AAr?$AAe?$AAf?$AAe?$AAr@ DB '"'
	DB	00H, 'c', 00H, 'a', 00H, 'n', 00H, 'n', 00H, 'o', 00H, 't', 00H
	DB	' ', 00H, 'd', 00H, 'e', 00H, 'r', 00H, 'e', 00H, 'f', 00H, 'e'
	DB	00H, 'r', 00H, 'e', 00H, 'n', 00H, 'c', 00H, 'e', 00H, ' ', 00H
	DB	'v', 00H, 'a', 00H, 'l', 00H, 'u', 00H, 'e', 00H, '-', 00H, 'i'
	DB	00H, 'n', 00H, 'i', 00H, 't', 00H, 'i', 00H, 'a', 00H, 'l', 00H
	DB	'i', 00H, 'z', 00H, 'e', 00H, 'd', 00H, ' ', 00H, 'm', 00H, 'a'
	DB	00H, 'p', 00H, '/', 00H, 's', 00H, 'e', 00H, 't', 00H, ' ', 00H
	DB	'i', 00H, 't', 00H, 'e', 00H, 'r', 00H, 'a', 00H, 't', 00H, 'o'
	DB	00H, 'r', 00H, '"', 00H, 00H, 00H		; `string'
CONST	ENDS
;	COMDAT ??_C@_0DG@LCFNIIPB@cannot?5dereference?5value?9initia@
CONST	SEGMENT
??_C@_0DG@LCFNIIPB@cannot?5dereference?5value?9initia@ DB 'cannot derefer'
	DB	'ence value-initialized map/set iterator', 00H ; `string'
CONST	ENDS
;	COMDAT ??_C@_0BA@FOIKENOD@vector?5too?5long@
CONST	SEGMENT
??_C@_0BA@FOIKENOD@vector?5too?5long@ DB 'vector too long', 00H ; `string'
CONST	ENDS
;	COMDAT ??_C@_1EA@EELNAHHD@?$AA?$CC?$AAf?$AAr?$AAo?$AAn?$AAt?$AA?$CI?$AA?$CJ?$AA?5?$AAc?$AAa?$AAl?$AAl?$AAe?$AAd@
CONST	SEGMENT
??_C@_1EA@EELNAHHD@?$AA?$CC?$AAf?$AAr?$AAo?$AAn?$AAt?$AA?$CI?$AA?$CJ?$AA?5?$AAc?$AAa?$AAl?$AAl?$AAe?$AAd@ DB '"'
	DB	00H, 'f', 00H, 'r', 00H, 'o', 00H, 'n', 00H, 't', 00H, '(', 00H
	DB	')', 00H, ' ', 00H, 'c', 00H, 'a', 00H, 'l', 00H, 'l', 00H, 'e'
	DB	00H, 'd', 00H, ' ', 00H, 'o', 00H, 'n', 00H, ' ', 00H, 'e', 00H
	DB	'm', 00H, 'p', 00H, 't', 00H, 'y', 00H, ' ', 00H, 'd', 00H, 'e'
	DB	00H, 'q', 00H, 'u', 00H, 'e', 00H, '"', 00H, 00H, 00H ; `string'
CONST	ENDS
;	COMDAT ??_C@_0BO@PEOHNLIM@front?$CI?$CJ?5called?5on?5empty?5deque@
CONST	SEGMENT
??_C@_0BO@PEOHNLIM@front?$CI?$CJ?5called?5on?5empty?5deque@ DB 'front() c'
	DB	'alled on empty deque', 00H			; `string'
CONST	ENDS
;	COMDAT ??_C@_1DC@NJAACHCD@?$AA?$CC?$AAd?$AAe?$AAq?$AAu?$AAe?$AA?5?$AAe?$AAm?$AAp?$AAt?$AAy?$AA?5?$AAb?$AAe@
CONST	SEGMENT
??_C@_1DC@NJAACHCD@?$AA?$CC?$AAd?$AAe?$AAq?$AAu?$AAe?$AA?5?$AAe?$AAm?$AAp?$AAt?$AAy?$AA?5?$AAb?$AAe@ DB '"'
	DB	00H, 'd', 00H, 'e', 00H, 'q', 00H, 'u', 00H, 'e', 00H, ' ', 00H
	DB	'e', 00H, 'm', 00H, 'p', 00H, 't', 00H, 'y', 00H, ' ', 00H, 'b'
	DB	00H, 'e', 00H, 'f', 00H, 'o', 00H, 'r', 00H, 'e', 00H, ' ', 00H
	DB	'p', 00H, 'o', 00H, 'p', 00H, '"', 00H, 00H, 00H ; `string'
CONST	ENDS
;	COMDAT ??_C@_1MA@ILDIFCAO@?$AAC?$AA?3?$AA?2?$AAP?$AAr?$AAo?$AAg?$AAr?$AAa?$AAm?$AA?5?$AAF?$AAi?$AAl?$AAe@
CONST	SEGMENT
??_C@_1MA@ILDIFCAO@?$AAC?$AA?3?$AA?2?$AAP?$AAr?$AAo?$AAg?$AAr?$AAa?$AAm?$AA?5?$AAF?$AAi?$AAl?$AAe@ DB 'C'
	DB	00H, ':', 00H, '\', 00H, 'P', 00H, 'r', 00H, 'o', 00H, 'g', 00H
	DB	'r', 00H, 'a', 00H, 'm', 00H, ' ', 00H, 'F', 00H, 'i', 00H, 'l'
	DB	00H, 'e', 00H, 's', 00H, '\', 00H, 'M', 00H, 'i', 00H, 'c', 00H
	DB	'r', 00H, 'o', 00H, 's', 00H, 'o', 00H, 'f', 00H, 't', 00H, ' '
	DB	00H, 'V', 00H, 'i', 00H, 's', 00H, 'u', 00H, 'a', 00H, 'l', 00H
	DB	' ', 00H, 'S', 00H, 't', 00H, 'u', 00H, 'd', 00H, 'i', 00H, 'o'
	DB	00H, '\', 00H, '2', 00H, '0', 00H, '2', 00H, '2', 00H, '\', 00H
	DB	'C', 00H, 'o', 00H, 'm', 00H, 'm', 00H, 'u', 00H, 'n', 00H, 'i'
	DB	00H, 't', 00H, 'y', 00H, '\', 00H, 'V', 00H, 'C', 00H, '\', 00H
	DB	'T', 00H, 'o', 00H, 'o', 00H, 'l', 00H, 's', 00H, '\', 00H, 'M'
	DB	00H, 'S', 00H, 'V', 00H, 'C', 00H, '\', 00H, '1', 00H, '4', 00H
	DB	'.', 00H, '3', 00H, '5', 00H, '.', 00H, '3', 00H, '2', 00H, '2'
	DB	00H, '1', 00H, '5', 00H, '\', 00H, 'i', 00H, 'n', 00H, 'c', 00H
	DB	'l', 00H, 'u', 00H, 'd', 00H, 'e', 00H, '\', 00H, 'd', 00H, 'e'
	DB	00H, 'q', 00H, 'u', 00H, 'e', 00H, 00H, 00H	; `string'
CONST	ENDS
;	COMDAT ??_C@_0GA@IEHJGIEK@C?3?2Program?5Files?2Microsoft?5Visu@
CONST	SEGMENT
??_C@_0GA@IEHJGIEK@C?3?2Program?5Files?2Microsoft?5Visu@ DB 'C:\Program F'
	DB	'iles\Microsoft Visual Studio\2022\Community\VC\Tools\MSVC\14.'
	DB	'35.32215\include\deque', 00H		; `string'
CONST	ENDS
;	COMDAT ??_C@_0BH@EDKEEENI@deque?5empty?5before?5pop@
CONST	SEGMENT
??_C@_0BH@EDKEEENI@deque?5empty?5before?5pop@ DB 'deque empty before pop', 00H ; `string'
CONST	ENDS
;	COMDAT ??_C@_1CK@LKHICBBG@?$AAp?$AAo?$AAs?$AA?5?$AA?$DM?$AA?5?$AAb?$AAi?$AAt?$AAs?$AA_?$AAp?$AAe?$AAr?$AA_@
CONST	SEGMENT
??_C@_1CK@LKHICBBG@?$AAp?$AAo?$AAs?$AA?5?$AA?$DM?$AA?5?$AAb?$AAi?$AAt?$AAs?$AA_?$AAp?$AAe?$AAr?$AA_@ DB 'p'
	DB	00H, 'o', 00H, 's', 00H, ' ', 00H, '<', 00H, ' ', 00H, 'b', 00H
	DB	'i', 00H, 't', 00H, 's', 00H, '_', 00H, 'p', 00H, 'e', 00H, 'r'
	DB	00H, '_', 00H, 'b', 00H, 'l', 00H, 'o', 00H, 'c', 00H, 'k', 00H
	DB	00H, 00H					; `string'
CONST	ENDS
;	COMDAT ??_C@_1KC@IDNIIAGO@?$AAD?$AA?3?$AA?2?$AA_?$AA_?$AAR?$AAe?$AAp?$AAo?$AAs?$AA?2?$AA_?$AA_?$AAM?$AAy@
CONST	SEGMENT
??_C@_1KC@IDNIIAGO@?$AAD?$AA?3?$AA?2?$AA_?$AA_?$AAR?$AAe?$AAp?$AAo?$AAs?$AA?2?$AA_?$AA_?$AAM?$AAy@ DB 'D'
	DB	00H, ':', 00H, '\', 00H, '_', 00H, '_', 00H, 'R', 00H, 'e', 00H
	DB	'p', 00H, 'o', 00H, 's', 00H, '\', 00H, '_', 00H, '_', 00H, 'M'
	DB	00H, 'y', 00H, 'R', 00H, 'e', 00H, 'p', 00H, 'o', 00H, 's', 00H
	DB	'\', 00H, 'R', 00H, 'a', 00H, 'v', 00H, 'e', 00H, 'n', 00H, '_'
	DB	00H, 'V', 00H, 'S', 00H, '2', 00H, '0', 00H, '2', 00H, '2', 00H
	DB	'\', 00H, 'C', 00H, 'o', 00H, 'm', 00H, 'm', 00H, 'o', 00H, 'n'
	DB	00H, '\', 00H, 'b', 00H, 'o', 00H, 'o', 00H, 's', 00H, 't', 00H
	DB	'\', 00H, 'd', 00H, 'y', 00H, 'n', 00H, 'a', 00H, 'm', 00H, 'i'
	DB	00H, 'c', 00H, '_', 00H, 'b', 00H, 'i', 00H, 't', 00H, 's', 00H
	DB	'e', 00H, 't', 00H, '\', 00H, 'd', 00H, 'y', 00H, 'n', 00H, 'a'
	DB	00H, 'm', 00H, 'i', 00H, 'c', 00H, '_', 00H, 'b', 00H, 'i', 00H
	DB	't', 00H, 's', 00H, 'e', 00H, 't', 00H, '.', 00H, 'h', 00H, 'p'
	DB	00H, 'p', 00H, 00H, 00H			; `string'
CONST	ENDS
;	COMDAT ??_C@_1EA@DJDGNIII@?$AA?$CC?$AAv?$AAe?$AAc?$AAt?$AAo?$AAr?$AA?5?$AAi?$AAt?$AAe?$AAr?$AAa?$AAt?$AAo@
CONST	SEGMENT
??_C@_1EA@DJDGNIII@?$AA?$CC?$AAv?$AAe?$AAc?$AAt?$AAo?$AAr?$AA?5?$AAi?$AAt?$AAe?$AAr?$AAa?$AAt?$AAo@ DB '"'
	DB	00H, 'v', 00H, 'e', 00H, 'c', 00H, 't', 00H, 'o', 00H, 'r', 00H
	DB	' ', 00H, 'i', 00H, 't', 00H, 'e', 00H, 'r', 00H, 'a', 00H, 't'
	DB	00H, 'o', 00H, 'r', 00H, 's', 00H, ' ', 00H, 'i', 00H, 'n', 00H
	DB	'c', 00H, 'o', 00H, 'm', 00H, 'p', 00H, 'a', 00H, 't', 00H, 'i'
	DB	00H, 'b', 00H, 'l', 00H, 'e', 00H, '"', 00H, 00H, 00H ; `string'
CONST	ENDS
;	COMDAT ??_C@_0BO@CAOBBIOC@vector?5iterators?5incompatible@
CONST	SEGMENT
??_C@_0BO@CAOBBIOC@vector?5iterators?5incompatible@ DB 'vector iterators '
	DB	'incompatible', 00H				; `string'
CONST	ENDS
;	COMDAT ??_C@_1BA@EEPFKCON@?$AAp?$AAx?$AA?5?$AA?$CB?$AA?$DN?$AA?5?$AA0@
CONST	SEGMENT
??_C@_1BA@EEPFKCON@?$AAp?$AAx?$AA?5?$AA?$CB?$AA?$DN?$AA?5?$AA0@ DB 'p', 00H
	DB	'x', 00H, ' ', 00H, '!', 00H, '=', 00H, ' ', 00H, '0', 00H, 00H
	DB	00H						; `string'
CONST	ENDS
;	COMDAT ??_C@_1JA@OMHIKCMH@?$AAD?$AA?3?$AA?2?$AA_?$AA_?$AAR?$AAe?$AAp?$AAo?$AAs?$AA?2?$AA_?$AA_?$AAM?$AAy@
CONST	SEGMENT
??_C@_1JA@OMHIKCMH@?$AAD?$AA?3?$AA?2?$AA_?$AA_?$AAR?$AAe?$AAp?$AAo?$AAs?$AA?2?$AA_?$AA_?$AAM?$AAy@ DB 'D'
	DB	00H, ':', 00H, '\', 00H, '_', 00H, '_', 00H, 'R', 00H, 'e', 00H
	DB	'p', 00H, 'o', 00H, 's', 00H, '\', 00H, '_', 00H, '_', 00H, 'M'
	DB	00H, 'y', 00H, 'R', 00H, 'e', 00H, 'p', 00H, 'o', 00H, 's', 00H
	DB	'\', 00H, 'R', 00H, 'a', 00H, 'v', 00H, 'e', 00H, 'n', 00H, '_'
	DB	00H, 'V', 00H, 'S', 00H, '2', 00H, '0', 00H, '2', 00H, '2', 00H
	DB	'\', 00H, 'C', 00H, 'o', 00H, 'm', 00H, 'm', 00H, 'o', 00H, 'n'
	DB	00H, '\', 00H, 'b', 00H, 'o', 00H, 'o', 00H, 's', 00H, 't', 00H
	DB	'\', 00H, 's', 00H, 'm', 00H, 'a', 00H, 'r', 00H, 't', 00H, '_'
	DB	00H, 'p', 00H, 't', 00H, 'r', 00H, '\', 00H, 's', 00H, 'c', 00H
	DB	'o', 00H, 'p', 00H, 'e', 00H, 'd', 00H, '_', 00H, 'p', 00H, 't'
	DB	00H, 'r', 00H, '.', 00H, 'h', 00H, 'p', 00H, 'p', 00H, 00H, 00H ; `string'
CONST	ENDS
;	COMDAT ??_C@_1EC@JLIDLCDH@?$AA?$CC?$AAm?$AAa?$AAp?$AA?1?$AAs?$AAe?$AAt?$AA?5?$AAi?$AAt?$AAe?$AAr?$AAa?$AAt@
CONST	SEGMENT
??_C@_1EC@JLIDLCDH@?$AA?$CC?$AAm?$AAa?$AAp?$AA?1?$AAs?$AAe?$AAt?$AA?5?$AAi?$AAt?$AAe?$AAr?$AAa?$AAt@ DB '"'
	DB	00H, 'm', 00H, 'a', 00H, 'p', 00H, '/', 00H, 's', 00H, 'e', 00H
	DB	't', 00H, ' ', 00H, 'i', 00H, 't', 00H, 'e', 00H, 'r', 00H, 'a'
	DB	00H, 't', 00H, 'o', 00H, 'r', 00H, 's', 00H, ' ', 00H, 'i', 00H
	DB	'n', 00H, 'c', 00H, 'o', 00H, 'm', 00H, 'p', 00H, 'a', 00H, 't'
	DB	00H, 'i', 00H, 'b', 00H, 'l', 00H, 'e', 00H, '"', 00H, 00H, 00H ; `string'
CONST	ENDS
;	COMDAT ??_C@_1MA@MHBPBNNN@?$AAC?$AA?3?$AA?2?$AAP?$AAr?$AAo?$AAg?$AAr?$AAa?$AAm?$AA?5?$AAF?$AAi?$AAl?$AAe@
CONST	SEGMENT
??_C@_1MA@MHBPBNNN@?$AAC?$AA?3?$AA?2?$AAP?$AAr?$AAo?$AAg?$AAr?$AAa?$AAm?$AA?5?$AAF?$AAi?$AAl?$AAe@ DB 'C'
	DB	00H, ':', 00H, '\', 00H, 'P', 00H, 'r', 00H, 'o', 00H, 'g', 00H
	DB	'r', 00H, 'a', 00H, 'm', 00H, ' ', 00H, 'F', 00H, 'i', 00H, 'l'
	DB	00H, 'e', 00H, 's', 00H, '\', 00H, 'M', 00H, 'i', 00H, 'c', 00H
	DB	'r', 00H, 'o', 00H, 's', 00H, 'o', 00H, 'f', 00H, 't', 00H, ' '
	DB	00H, 'V', 00H, 'i', 00H, 's', 00H, 'u', 00H, 'a', 00H, 'l', 00H
	DB	' ', 00H, 'S', 00H, 't', 00H, 'u', 00H, 'd', 00H, 'i', 00H, 'o'
	DB	00H, '\', 00H, '2', 00H, '0', 00H, '2', 00H, '2', 00H, '\', 00H
	DB	'C', 00H, 'o', 00H, 'm', 00H, 'm', 00H, 'u', 00H, 'n', 00H, 'i'
	DB	00H, 't', 00H, 'y', 00H, '\', 00H, 'V', 00H, 'C', 00H, '\', 00H
	DB	'T', 00H, 'o', 00H, 'o', 00H, 'l', 00H, 's', 00H, '\', 00H, 'M'
	DB	00H, 'S', 00H, 'V', 00H, 'C', 00H, '\', 00H, '1', 00H, '4', 00H
	DB	'.', 00H, '3', 00H, '5', 00H, '.', 00H, '3', 00H, '2', 00H, '2'
	DB	00H, '1', 00H, '5', 00H, '\', 00H, 'i', 00H, 'n', 00H, 'c', 00H
	DB	'l', 00H, 'u', 00H, 'd', 00H, 'e', 00H, '\', 00H, 'x', 00H, 't'
	DB	00H, 'r', 00H, 'e', 00H, 'e', 00H, 00H, 00H	; `string'
CONST	ENDS
;	COMDAT ??_C@_0GA@KDHOBIAG@C?3?2Program?5Files?2Microsoft?5Visu@
CONST	SEGMENT
??_C@_0GA@KDHOBIAG@C?3?2Program?5Files?2Microsoft?5Visu@ DB 'C:\Program F'
	DB	'iles\Microsoft Visual Studio\2022\Community\VC\Tools\MSVC\14.'
	DB	'35.32215\include\xtree', 00H		; `string'
CONST	ENDS
;	COMDAT ??_C@_0BP@OLDKBHLM@map?1set?5iterators?5incompatible@
CONST	SEGMENT
??_C@_0BP@OLDKBHLM@map?1set?5iterators?5incompatible@ DB 'map/set iterato'
	DB	'rs incompatible', 00H			; `string'
CONST	ENDS
;	COMDAT ??_C@_1EA@LEKOKFNB@?$AA?$CC?$AAv?$AAe?$AAc?$AAt?$AAo?$AAr?$AA?5?$AAs?$AAu?$AAb?$AAs?$AAc?$AAr?$AAi@
CONST	SEGMENT
??_C@_1EA@LEKOKFNB@?$AA?$CC?$AAv?$AAe?$AAc?$AAt?$AAo?$AAr?$AA?5?$AAs?$AAu?$AAb?$AAs?$AAc?$AAr?$AAi@ DB '"'
	DB	00H, 'v', 00H, 'e', 00H, 'c', 00H, 't', 00H, 'o', 00H, 'r', 00H
	DB	' ', 00H, 's', 00H, 'u', 00H, 'b', 00H, 's', 00H, 'c', 00H, 'r'
	DB	00H, 'i', 00H, 'p', 00H, 't', 00H, ' ', 00H, 'o', 00H, 'u', 00H
	DB	't', 00H, ' ', 00H, 'o', 00H, 'f', 00H, ' ', 00H, 'r', 00H, 'a'
	DB	00H, 'n', 00H, 'g', 00H, 'e', 00H, '"', 00H, 00H, 00H ; `string'
CONST	ENDS
;	COMDAT ??_C@_0BO@PFKOHNJC@vector?5subscript?5out?5of?5range@
CONST	SEGMENT
??_C@_0BO@PFKOHNJC@vector?5subscript?5out?5of?5range@ DB 'vector subscrip'
	DB	't out of range', 00H			; `string'
CONST	ENDS
;	COMDAT ??_C@_1GC@JDCKOLAC@?$AA?$CC?$AAc?$AAa?$AAn?$AA?8?$AAt?$AA?5?$AAd?$AAe?$AAr?$AAe?$AAf?$AAe?$AAr?$AAe@
CONST	SEGMENT
??_C@_1GC@JDCKOLAC@?$AA?$CC?$AAc?$AAa?$AAn?$AA?8?$AAt?$AA?5?$AAd?$AAe?$AAr?$AAe?$AAf?$AAe?$AAr?$AAe@ DB '"'
	DB	00H, 'c', 00H, 'a', 00H, 'n', 00H, '''', 00H, 't', 00H, ' ', 00H
	DB	'd', 00H, 'e', 00H, 'r', 00H, 'e', 00H, 'f', 00H, 'e', 00H, 'r'
	DB	00H, 'e', 00H, 'n', 00H, 'c', 00H, 'e', 00H, ' ', 00H, 'o', 00H
	DB	'u', 00H, 't', 00H, ' ', 00H, 'o', 00H, 'f', 00H, ' ', 00H, 'r'
	DB	00H, 'a', 00H, 'n', 00H, 'g', 00H, 'e', 00H, ' ', 00H, 'v', 00H
	DB	'e', 00H, 'c', 00H, 't', 00H, 'o', 00H, 'r', 00H, ' ', 00H, 'i'
	DB	00H, 't', 00H, 'e', 00H, 'r', 00H, 'a', 00H, 't', 00H, 'o', 00H
	DB	'r', 00H, '"', 00H, 00H, 00H			; `string'
CONST	ENDS
;	COMDAT ??_C@_0CP@MDHADBHN@can?8t?5dereference?5out?5of?5range?5@
CONST	SEGMENT
??_C@_0CP@MDHADBHN@can?8t?5dereference?5out?5of?5range?5@ DB 'can''t dere'
	DB	'ference out of range vector iterator', 00H	; `string'
CONST	ENDS
;	COMDAT ??_C@_1GM@FNBFNBEL@?$AA?$CC?$AAc?$AAa?$AAn?$AA?8?$AAt?$AA?5?$AAd?$AAe?$AAr?$AAe?$AAf?$AAe?$AAr?$AAe@
CONST	SEGMENT
??_C@_1GM@FNBFNBEL@?$AA?$CC?$AAc?$AAa?$AAn?$AA?8?$AAt?$AA?5?$AAd?$AAe?$AAr?$AAe?$AAf?$AAe?$AAr?$AAe@ DB '"'
	DB	00H, 'c', 00H, 'a', 00H, 'n', 00H, '''', 00H, 't', 00H, ' ', 00H
	DB	'd', 00H, 'e', 00H, 'r', 00H, 'e', 00H, 'f', 00H, 'e', 00H, 'r'
	DB	00H, 'e', 00H, 'n', 00H, 'c', 00H, 'e', 00H, ' ', 00H, 'v', 00H
	DB	'a', 00H, 'l', 00H, 'u', 00H, 'e', 00H, '-', 00H, 'i', 00H, 'n'
	DB	00H, 'i', 00H, 't', 00H, 'i', 00H, 'a', 00H, 'l', 00H, 'i', 00H
	DB	'z', 00H, 'e', 00H, 'd', 00H, ' ', 00H, 'v', 00H, 'e', 00H, 'c'
	DB	00H, 't', 00H, 'o', 00H, 'r', 00H, ' ', 00H, 'i', 00H, 't', 00H
	DB	'e', 00H, 'r', 00H, 'a', 00H, 't', 00H, 'o', 00H, 'r', 00H, '"'
	DB	00H, 00H, 00H				; `string'
CONST	ENDS
;	COMDAT ??_C@_1MC@BDGGHEJF@?$AAC?$AA?3?$AA?2?$AAP?$AAr?$AAo?$AAg?$AAr?$AAa?$AAm?$AA?5?$AAF?$AAi?$AAl?$AAe@
CONST	SEGMENT
??_C@_1MC@BDGGHEJF@?$AAC?$AA?3?$AA?2?$AAP?$AAr?$AAo?$AAg?$AAr?$AAa?$AAm?$AA?5?$AAF?$AAi?$AAl?$AAe@ DB 'C'
	DB	00H, ':', 00H, '\', 00H, 'P', 00H, 'r', 00H, 'o', 00H, 'g', 00H
	DB	'r', 00H, 'a', 00H, 'm', 00H, ' ', 00H, 'F', 00H, 'i', 00H, 'l'
	DB	00H, 'e', 00H, 's', 00H, '\', 00H, 'M', 00H, 'i', 00H, 'c', 00H
	DB	'r', 00H, 'o', 00H, 's', 00H, 'o', 00H, 'f', 00H, 't', 00H, ' '
	DB	00H, 'V', 00H, 'i', 00H, 's', 00H, 'u', 00H, 'a', 00H, 'l', 00H
	DB	' ', 00H, 'S', 00H, 't', 00H, 'u', 00H, 'd', 00H, 'i', 00H, 'o'
	DB	00H, '\', 00H, '2', 00H, '0', 00H, '2', 00H, '2', 00H, '\', 00H
	DB	'C', 00H, 'o', 00H, 'm', 00H, 'm', 00H, 'u', 00H, 'n', 00H, 'i'
	DB	00H, 't', 00H, 'y', 00H, '\', 00H, 'V', 00H, 'C', 00H, '\', 00H
	DB	'T', 00H, 'o', 00H, 'o', 00H, 'l', 00H, 's', 00H, '\', 00H, 'M'
	DB	00H, 'S', 00H, 'V', 00H, 'C', 00H, '\', 00H, '1', 00H, '4', 00H
	DB	'.', 00H, '3', 00H, '5', 00H, '.', 00H, '3', 00H, '2', 00H, '2'
	DB	00H, '1', 00H, '5', 00H, '\', 00H, 'i', 00H, 'n', 00H, 'c', 00H
	DB	'l', 00H, 'u', 00H, 'd', 00H, 'e', 00H, '\', 00H, 'v', 00H, 'e'
	DB	00H, 'c', 00H, 't', 00H, 'o', 00H, 'r', 00H, 00H, 00H ; `string'
CONST	ENDS
;	COMDAT ??_C@_0GB@NEMOGBCE@C?3?2Program?5Files?2Microsoft?5Visu@
CONST	SEGMENT
??_C@_0GB@NEMOGBCE@C?3?2Program?5Files?2Microsoft?5Visu@ DB 'C:\Program F'
	DB	'iles\Microsoft Visual Studio\2022\Community\VC\Tools\MSVC\14.'
	DB	'35.32215\include\vector', 00H		; `string'
CONST	ENDS
;	COMDAT ??_C@_0DE@CHADHGFF@can?8t?5dereference?5value?9initial@
CONST	SEGMENT
??_C@_0DE@CHADHGFF@can?8t?5dereference?5value?9initial@ DB 'can''t derefe'
	DB	'rence value-initialized vector iterator', 00H ; `string'
CONST	ENDS
;	COMDAT ??_C@_0BB@GCADKGJO@map?1set?5too?5long@
CONST	SEGMENT
??_C@_0BB@GCADKGJO@map?1set?5too?5long@ DB 'map/set too long', 00H ; `string'
CONST	ENDS
;	COMDAT ??_C@_1DG@PLBPCAEM@?$AA?$CC?$AAI?$AAT?$AAE?$AAR?$AAA?$AAT?$AAO?$AAR?$AA?5?$AAL?$AAI?$AAS?$AAT?$AA?5@
CONST	SEGMENT
??_C@_1DG@PLBPCAEM@?$AA?$CC?$AAI?$AAT?$AAE?$AAR?$AAA?$AAT?$AAO?$AAR?$AA?5?$AAL?$AAI?$AAS?$AAT?$AA?5@ DB '"'
	DB	00H, 'I', 00H, 'T', 00H, 'E', 00H, 'R', 00H, 'A', 00H, 'T', 00H
	DB	'O', 00H, 'R', 00H, ' ', 00H, 'L', 00H, 'I', 00H, 'S', 00H, 'T'
	DB	00H, ' ', 00H, 'C', 00H, 'O', 00H, 'R', 00H, 'R', 00H, 'U', 00H
	DB	'P', 00H, 'T', 00H, 'E', 00H, 'D', 00H, '!', 00H, '"', 00H, 00H
	DB	00H						; `string'
CONST	ENDS
;	COMDAT ??_C@_0BJ@LFDBABJJ@ITERATOR?5LIST?5CORRUPTED?$CB@
CONST	SEGMENT
??_C@_0BJ@LFDBABJJ@ITERATOR?5LIST?5CORRUPTED?$CB@ DB 'ITERATOR LIST CORRU'
	DB	'PTED!', 00H					; `string'
CONST	ENDS
;	COMDAT ??_C@_1CG@JNLFBNGN@?$AA?$CC?$AAi?$AAn?$AAv?$AAa?$AAl?$AAi?$AAd?$AA?5?$AAa?$AAr?$AAg?$AAu?$AAm?$AAe@
CONST	SEGMENT
??_C@_1CG@JNLFBNGN@?$AA?$CC?$AAi?$AAn?$AAv?$AAa?$AAl?$AAi?$AAd?$AA?5?$AAa?$AAr?$AAg?$AAu?$AAm?$AAe@ DB '"'
	DB	00H, 'i', 00H, 'n', 00H, 'v', 00H, 'a', 00H, 'l', 00H, 'i', 00H
	DB	'd', 00H, ' ', 00H, 'a', 00H, 'r', 00H, 'g', 00H, 'u', 00H, 'm'
	DB	00H, 'e', 00H, 'n', 00H, 't', 00H, '"', 00H, 00H, 00H ; `string'
CONST	ENDS
;	COMDAT ??_C@_11LOCGONAA@@
CONST	SEGMENT
??_C@_11LOCGONAA@@ DB 00H, 00H				; `string'
CONST	ENDS
;	COMDAT ??_C@_1ME@GKDENAFF@?$AAC?$AA?3?$AA?2?$AAP?$AAr?$AAo?$AAg?$AAr?$AAa?$AAm?$AA?5?$AAF?$AAi?$AAl?$AAe@
CONST	SEGMENT
??_C@_1ME@GKDENAFF@?$AAC?$AA?3?$AA?2?$AAP?$AAr?$AAo?$AAg?$AAr?$AAa?$AAm?$AA?5?$AAF?$AAi?$AAl?$AAe@ DB 'C'
	DB	00H, ':', 00H, '\', 00H, 'P', 00H, 'r', 00H, 'o', 00H, 'g', 00H
	DB	'r', 00H, 'a', 00H, 'm', 00H, ' ', 00H, 'F', 00H, 'i', 00H, 'l'
	DB	00H, 'e', 00H, 's', 00H, '\', 00H, 'M', 00H, 'i', 00H, 'c', 00H
	DB	'r', 00H, 'o', 00H, 's', 00H, 'o', 00H, 'f', 00H, 't', 00H, ' '
	DB	00H, 'V', 00H, 'i', 00H, 's', 00H, 'u', 00H, 'a', 00H, 'l', 00H
	DB	' ', 00H, 'S', 00H, 't', 00H, 'u', 00H, 'd', 00H, 'i', 00H, 'o'
	DB	00H, '\', 00H, '2', 00H, '0', 00H, '2', 00H, '2', 00H, '\', 00H
	DB	'C', 00H, 'o', 00H, 'm', 00H, 'm', 00H, 'u', 00H, 'n', 00H, 'i'
	DB	00H, 't', 00H, 'y', 00H, '\', 00H, 'V', 00H, 'C', 00H, '\', 00H
	DB	'T', 00H, 'o', 00H, 'o', 00H, 'l', 00H, 's', 00H, '\', 00H, 'M'
	DB	00H, 'S', 00H, 'V', 00H, 'C', 00H, '\', 00H, '1', 00H, '4', 00H
	DB	'.', 00H, '3', 00H, '5', 00H, '.', 00H, '3', 00H, '2', 00H, '2'
	DB	00H, '1', 00H, '5', 00H, '\', 00H, 'i', 00H, 'n', 00H, 'c', 00H
	DB	'l', 00H, 'u', 00H, 'd', 00H, 'e', 00H, '\', 00H, 'x', 00H, 'm'
	DB	00H, 'e', 00H, 'm', 00H, 'o', 00H, 'r', 00H, 'y', 00H, 00H, 00H ; `string'
CONST	ENDS
;	COMDAT ??_C@_0GC@FPOGKCLE@C?3?2Program?5Files?2Microsoft?5Visu@
CONST	SEGMENT
??_C@_0GC@FPOGKCLE@C?3?2Program?5Files?2Microsoft?5Visu@ DB 'C:\Program F'
	DB	'iles\Microsoft Visual Studio\2022\Community\VC\Tools\MSVC\14.'
	DB	'35.32215\include\xmemory', 00H		; `string'
CONST	ENDS
;	COMDAT ??_C@_02DKCKIIND@?$CFs@
CONST	SEGMENT
??_C@_02DKCKIIND@?$CFs@ DB '%s', 00H			; `string'
CONST	ENDS
;	COMDAT ??_C@_0BB@FCMFBGOM@invalid?5argument@
CONST	SEGMENT
??_C@_0BB@FCMFBGOM@invalid?5argument@ DB 'invalid argument', 00H ; `string'
CONST	ENDS
;	COMDAT __CT??_R0?AVexception@std@@@8??0exception@std@@QAE@ABV01@@Z12
xdata$x	SEGMENT
__CT??_R0?AVexception@std@@@8??0exception@std@@QAE@ABV01@@Z12 DD 00H
	DD	FLAT:??_R0?AVexception@std@@@8
	DD	00H
	DD	0ffffffffH
	ORG $+4
	DD	0cH
	DD	FLAT:??0exception@std@@QAE@ABV01@@Z
xdata$x	ENDS
;	COMDAT ??_R0?AVexception@std@@@8
data$r	SEGMENT
??_R0?AVexception@std@@@8 DD FLAT:??_7type_info@@6B@	; std::exception `RTTI Type Descriptor'
	DD	00H
	DB	'.?AVexception@std@@', 00H
data$r	ENDS
;	COMDAT __CT??_R0?AVbad_alloc@std@@@8??0bad_alloc@std@@QAE@ABV01@@Z12
xdata$x	SEGMENT
__CT??_R0?AVbad_alloc@std@@@8??0bad_alloc@std@@QAE@ABV01@@Z12 DD 010H
	DD	FLAT:??_R0?AVbad_alloc@std@@@8
	DD	00H
	DD	0ffffffffH
	ORG $+4
	DD	0cH
	DD	FLAT:??0bad_alloc@std@@QAE@ABV01@@Z
xdata$x	ENDS
;	COMDAT ??_R0?AVbad_alloc@std@@@8
data$r	SEGMENT
??_R0?AVbad_alloc@std@@@8 DD FLAT:??_7type_info@@6B@	; std::bad_alloc `RTTI Type Descriptor'
	DD	00H
	DB	'.?AVbad_alloc@std@@', 00H
data$r	ENDS
;	COMDAT __CT??_R0?AVbad_array_new_length@std@@@8??0bad_array_new_length@std@@QAE@ABV01@@Z12
xdata$x	SEGMENT
__CT??_R0?AVbad_array_new_length@std@@@8??0bad_array_new_length@std@@QAE@ABV01@@Z12 DD 00H
	DD	FLAT:??_R0?AVbad_array_new_length@std@@@8
	DD	00H
	DD	0ffffffffH
	ORG $+4
	DD	0cH
	DD	FLAT:??0bad_array_new_length@std@@QAE@ABV01@@Z
xdata$x	ENDS
;	COMDAT ??_R0?AVbad_array_new_length@std@@@8
data$r	SEGMENT
??_R0?AVbad_array_new_length@std@@@8 DD FLAT:??_7type_info@@6B@ ; std::bad_array_new_length `RTTI Type Descriptor'
	DD	00H
	DB	'.?AVbad_array_new_length@std@@', 00H
data$r	ENDS
;	COMDAT __CTA3?AVbad_array_new_length@std@@
xdata$x	SEGMENT
__CTA3?AVbad_array_new_length@std@@ DD 03H
	DD	FLAT:__CT??_R0?AVbad_array_new_length@std@@@8??0bad_array_new_length@std@@QAE@ABV01@@Z12
	DD	FLAT:__CT??_R0?AVbad_alloc@std@@@8??0bad_alloc@std@@QAE@ABV01@@Z12
	DD	FLAT:__CT??_R0?AVexception@std@@@8??0exception@std@@QAE@ABV01@@Z12
xdata$x	ENDS
;	COMDAT __TI3?AVbad_array_new_length@std@@
xdata$x	SEGMENT
__TI3?AVbad_array_new_length@std@@ DD 00H
	DD	FLAT:??1bad_array_new_length@std@@UAE@XZ
	DD	00H
	DD	FLAT:__CTA3?AVbad_array_new_length@std@@
xdata$x	ENDS
;	COMDAT ??_C@_0BF@KINCDENJ@bad?5array?5new?5length@
CONST	SEGMENT
??_C@_0BF@KINCDENJ@bad?5array?5new?5length@ DB 'bad array new length', 00H ; `string'
CONST	ENDS
;	COMDAT ??_7bad_array_new_length@std@@6B@
CONST	SEGMENT
??_7bad_array_new_length@std@@6B@ DD FLAT:??_R4bad_array_new_length@std@@6B@ ; std::bad_array_new_length::`vftable'
	DD	FLAT:??_Ebad_array_new_length@std@@UAEPAXI@Z
	DD	FLAT:?what@exception@std@@UBEPBDXZ
CONST	ENDS
;	COMDAT ??_7bad_alloc@std@@6B@
CONST	SEGMENT
??_7bad_alloc@std@@6B@ DD FLAT:??_R4bad_alloc@std@@6B@	; std::bad_alloc::`vftable'
	DD	FLAT:??_Ebad_alloc@std@@UAEPAXI@Z
	DD	FLAT:?what@exception@std@@UBEPBDXZ
CONST	ENDS
;	COMDAT ??_C@_0BC@EOODALEL@Unknown?5exception@
CONST	SEGMENT
??_C@_0BC@EOODALEL@Unknown?5exception@ DB 'Unknown exception', 00H ; `string'
CONST	ENDS
;	COMDAT ??_7exception@std@@6B@
CONST	SEGMENT
??_7exception@std@@6B@ DD FLAT:??_R4exception@std@@6B@	; std::exception::`vftable'
	DD	FLAT:??_Eexception@std@@UAEPAXI@Z
	DD	FLAT:?what@exception@std@@UBEPBDXZ
CONST	ENDS
;	COMDAT voltbl
voltbl	SEGMENT
_volmd	DB	016H
voltbl	ENDS
;	COMDAT xdata$x
xdata$x	SEGMENT
__unwindtable$??$_Uninitialized_move@PAKV?$allocator@K@std@@@std@@YAPAKQAK0PAKAAV?$allocator@K@0@@Z DD 0ffffffffH
	DD	FLAT:__unwindfunclet$??$_Uninitialized_move@PAKV?$allocator@K@std@@@std@@YAPAKQAK0PAKAAV?$allocator@K@0@@Z$0
__ehfuncinfo$??$_Uninitialized_move@PAKV?$allocator@K@std@@@std@@YAPAKQAK0PAKAAV?$allocator@K@0@@Z DD 019930522H
	DD	01H
	DD	FLAT:__unwindtable$??$_Uninitialized_move@PAKV?$allocator@K@std@@@std@@YAPAKQAK0PAKAAV?$allocator@K@0@@Z
	DD	2 DUP(00H)
	DD	2 DUP(00H)
	DD	00H
	DD	01H
xdata$x	ENDS
;	COMDAT voltbl
voltbl	SEGMENT
_volmd	DB	016H
voltbl	ENDS
;	COMDAT xdata$x
xdata$x	SEGMENT
__unwindtable$??$?0U?$pair@Vtype_id@luabind@@I@std@@@?$_Tree_temp_node@V?$allocator@U?$_Tree_node@U?$pair@$$CBVtype_id@luabind@@I@std@@PAX@std@@@std@@@std@@QAE@AAV?$allocator@U?$_Tree_node@U?$pair@$$CBVtype_id@luabind@@I@std@@PAX@std@@@1@PAU?$_Tree_node@U?$pair@$$CBVtype_id@luabind@@I@std@@PAX@1@$$QAU?$pair@Vtype_id@luabind@@I@1@@Z DD 0ffffffffH
	DD	FLAT:__unwindfunclet$??$?0U?$pair@Vtype_id@luabind@@I@std@@@?$_Tree_temp_node@V?$allocator@U?$_Tree_node@U?$pair@$$CBVtype_id@luabind@@I@std@@PAX@std@@@std@@@std@@QAE@AAV?$allocator@U?$_Tree_node@U?$pair@$$CBVtype_id@luabind@@I@std@@PAX@std@@@1@PAU?$_Tree_node@U?$pair@$$CBVtype_id@luabind@@I@std@@PAX@1@$$QAU?$pair@Vtype_id@luabind@@I@1@@Z$0
__ehfuncinfo$??$?0U?$pair@Vtype_id@luabind@@I@std@@@?$_Tree_temp_node@V?$allocator@U?$_Tree_node@U?$pair@$$CBVtype_id@luabind@@I@std@@PAX@std@@@std@@@std@@QAE@AAV?$allocator@U?$_Tree_node@U?$pair@$$CBVtype_id@luabind@@I@std@@PAX@std@@@1@PAU?$_Tree_node@U?$pair@$$CBVtype_id@luabind@@I@std@@PAX@1@$$QAU?$pair@Vtype_id@luabind@@I@1@@Z DD 019930522H
	DD	01H
	DD	FLAT:__unwindtable$??$?0U?$pair@Vtype_id@luabind@@I@std@@@?$_Tree_temp_node@V?$allocator@U?$_Tree_node@U?$pair@$$CBVtype_id@luabind@@I@std@@PAX@std@@@std@@@std@@QAE@AAV?$allocator@U?$_Tree_node@U?$pair@$$CBVtype_id@luabind@@I@std@@PAX@std@@@1@PAU?$_Tree_node@U?$pair@$$CBVtype_id@luabind@@I@std@@PAX@1@$$QAU?$pair@Vtype_id@luabind@@I@1@@Z
	DD	2 DUP(00H)
	DD	2 DUP(00H)
	DD	00H
	DD	01H
xdata$x	ENDS
;	COMDAT voltbl
voltbl	SEGMENT
_volmd	DB	016H
voltbl	ENDS
;	COMDAT xdata$x
xdata$x	SEGMENT
__unwindtable$??$?0U?$pair@V?$tuple@IIIHUnull_type@tuples@boost@@U123@U123@U123@U123@U123@@tuples@boost@@U?$pair@HH@std@@@std@@@?$_Tree_temp_node@V?$allocator@U?$_Tree_node@U?$pair@$$CBV?$tuple@IIIHUnull_type@tuples@boost@@U123@U123@U123@U123@U123@@tuples@boost@@U?$pair@HH@std@@@std@@PAX@std@@@std@@@std@@QAE@AAV?$allocator@U?$_Tree_node@U?$pair@$$CBV?$tuple@IIIHUnull_type@tuples@boost@@U123@U123@U123@U123@U123@@tuples@boost@@U?$pair@HH@std@@@std@@PAX@std@@@1@PAU?$_Tree_node@U?$pair@$$CBV?$tuple@IIIHUnull_type@tuples@boost@@U123@U123@U123@U123@U123@@tuples@boost@@U?$pair@HH@std@@@std@@PAX@1@$$QAU?$pair@V?$tuple@IIIHUnull_type@tuples@boost@@U123@U123@U123@U123@U123@@tuples@boost@@U?$pair@HH@std@@@1@@Z DD 0ffffffffH
	DD	FLAT:__unwindfunclet$??$?0U?$pair@V?$tuple@IIIHUnull_type@tuples@boost@@U123@U123@U123@U123@U123@@tuples@boost@@U?$pair@HH@std@@@std@@@?$_Tree_temp_node@V?$allocator@U?$_Tree_node@U?$pair@$$CBV?$tuple@IIIHUnull_type@tuples@boost@@U123@U123@U123@U123@U123@@tuples@boost@@U?$pair@HH@std@@@std@@PAX@std@@@std@@@std@@QAE@AAV?$allocator@U?$_Tree_node@U?$pair@$$CBV?$tuple@IIIHUnull_type@tuples@boost@@U123@U123@U123@U123@U123@@tuples@boost@@U?$pair@HH@std@@@std@@PAX@std@@@1@PAU?$_Tree_node@U?$pair@$$CBV?$tuple@IIIHUnull_type@tuples@boost@@U123@U123@U123@U123@U123@@tuples@boost@@U?$pair@HH@std@@@std@@PAX@1@$$QAU?$pair@V?$tuple@IIIHUnull_type@tuples@boost@@U123@U123@U123@U123@U123@@tuples@boost@@U?$pair@HH@std@@@1@@Z$0
__ehfuncinfo$??$?0U?$pair@V?$tuple@IIIHUnull_type@tuples@boost@@U123@U123@U123@U123@U123@@tuples@boost@@U?$pair@HH@std@@@std@@@?$_Tree_temp_node@V?$allocator@U?$_Tree_node@U?$pair@$$CBV?$tuple@IIIHUnull_type@tuples@boost@@U123@U123@U123@U123@U123@@tuples@boost@@U?$pair@HH@std@@@std@@PAX@std@@@std@@@std@@QAE@AAV?$allocator@U?$_Tree_node@U?$pair@$$CBV?$tuple@IIIHUnull_type@tuples@boost@@U123@U123@U123@U123@U123@@tuples@boost@@U?$pair@HH@std@@@std@@PAX@std@@@1@PAU?$_Tree_node@U?$pair@$$CBV?$tuple@IIIHUnull_type@tuples@boost@@U123@U123@U123@U123@U123@@tuples@boost@@U?$pair@HH@std@@@std@@PAX@1@$$QAU?$pair@V?$tuple@IIIHUnull_type@tuples@boost@@U123@U123@U123@U123@U123@@tuples@boost@@U?$pair@HH@std@@@1@@Z DD 019930522H
	DD	01H
	DD	FLAT:__unwindtable$??$?0U?$pair@V?$tuple@IIIHUnull_type@tuples@boost@@U123@U123@U123@U123@U123@@tuples@boost@@U?$pair@HH@std@@@std@@@?$_Tree_temp_node@V?$allocator@U?$_Tree_node@U?$pair@$$CBV?$tuple@IIIHUnull_type@tuples@boost@@U123@U123@U123@U123@U123@@tuples@boost@@U?$pair@HH@std@@@std@@PAX@std@@@std@@@std@@QAE@AAV?$allocator@U?$_Tree_node@U?$pair@$$CBV?$tuple@IIIHUnull_type@tuples@boost@@U123@U123@U123@U123@U123@@tuples@boost@@U?$pair@HH@std@@@std@@PAX@std@@@1@PAU?$_Tree_node@U?$pair@$$CBV?$tuple@IIIHUnull_type@tuples@boost@@U123@U123@U123@U123@U123@@tuples@boost@@U?$pair@HH@std@@@std@@PAX@1@$$QAU?$pair@V?$tuple@IIIHUnull_type@tuples@boost@@U123@U123@U123@U123@U123@@tuples@boost@@U?$pair@HH@std@@@1@@Z
	DD	2 DUP(00H)
	DD	2 DUP(00H)
	DD	00H
	DD	01H
xdata$x	ENDS
;	COMDAT voltbl
voltbl	SEGMENT
_volmd	DB	09H
voltbl	ENDS
;	COMDAT xdata$x
xdata$x	SEGMENT
__ehfuncinfo$??1?$_Tree_temp_node@V?$allocator@U?$_Tree_node@U?$pair@$$CBV?$tuple@IIIHUnull_type@tuples@boost@@U123@U123@U123@U123@U123@@tuples@boost@@U?$pair@HH@std@@@std@@PAX@std@@@std@@@std@@QAE@XZ DD 019930522H
	DD	00H
	DD	00H
	DD	2 DUP(00H)
	DD	2 DUP(00H)
	DD	00H
	DD	05H
xdata$x	ENDS
;	COMDAT voltbl
voltbl	SEGMENT
_volmd	DB	016H
voltbl	ENDS
;	COMDAT xdata$x
xdata$x	SEGMENT
__unwindtable$??0?$_Tree_temp_node_alloc@V?$allocator@U?$_Tree_node@U?$pair@$$CBV?$tuple@IIIHUnull_type@tuples@boost@@U123@U123@U123@U123@U123@@tuples@boost@@U?$pair@HH@std@@@std@@PAX@std@@@std@@@std@@QAE@AAV?$allocator@U?$_Tree_node@U?$pair@$$CBV?$tuple@IIIHUnull_type@tuples@boost@@U123@U123@U123@U123@U123@@tuples@boost@@U?$pair@HH@std@@@std@@PAX@std@@@1@@Z DD 0ffffffffH
	DD	FLAT:__unwindfunclet$??0?$_Tree_temp_node_alloc@V?$allocator@U?$_Tree_node@U?$pair@$$CBV?$tuple@IIIHUnull_type@tuples@boost@@U123@U123@U123@U123@U123@@tuples@boost@@U?$pair@HH@std@@@std@@PAX@std@@@std@@@std@@QAE@AAV?$allocator@U?$_Tree_node@U?$pair@$$CBV?$tuple@IIIHUnull_type@tuples@boost@@U123@U123@U123@U123@U123@@tuples@boost@@U?$pair@HH@std@@@std@@PAX@std@@@1@@Z$0
__ehfuncinfo$??0?$_Tree_temp_node_alloc@V?$allocator@U?$_Tree_node@U?$pair@$$CBV?$tuple@IIIHUnull_type@tuples@boost@@U123@U123@U123@U123@U123@@tuples@boost@@U?$pair@HH@std@@@std@@PAX@std@@@std@@@std@@QAE@AAV?$allocator@U?$_Tree_node@U?$pair@$$CBV?$tuple@IIIHUnull_type@tuples@boost@@U123@U123@U123@U123@U123@@tuples@boost@@U?$pair@HH@std@@@std@@PAX@std@@@1@@Z DD 019930522H
	DD	01H
	DD	FLAT:__unwindtable$??0?$_Tree_temp_node_alloc@V?$allocator@U?$_Tree_node@U?$pair@$$CBV?$tuple@IIIHUnull_type@tuples@boost@@U123@U123@U123@U123@U123@@tuples@boost@@U?$pair@HH@std@@@std@@PAX@std@@@std@@@std@@QAE@AAV?$allocator@U?$_Tree_node@U?$pair@$$CBV?$tuple@IIIHUnull_type@tuples@boost@@U123@U123@U123@U123@U123@@tuples@boost@@U?$pair@HH@std@@@std@@PAX@std@@@1@@Z
	DD	2 DUP(00H)
	DD	2 DUP(00H)
	DD	00H
	DD	01H
xdata$x	ENDS
;	COMDAT voltbl
voltbl	SEGMENT
_volmd	DB	09H
voltbl	ENDS
;	COMDAT xdata$x
xdata$x	SEGMENT
__ehfuncinfo$??1?$_Alloc_construct_ptr@V?$allocator@U?$_Tree_node@U?$pair@$$CBV?$tuple@IIIHUnull_type@tuples@boost@@U123@U123@U123@U123@U123@@tuples@boost@@U?$pair@HH@std@@@std@@PAX@std@@@std@@@std@@QAE@XZ DD 019930522H
	DD	00H
	DD	00H
	DD	2 DUP(00H)
	DD	2 DUP(00H)
	DD	00H
	DD	05H
xdata$x	ENDS
;	COMDAT voltbl
voltbl	SEGMENT
_volmd	DB	09H
voltbl	ENDS
;	COMDAT xdata$x
xdata$x	SEGMENT
__ehfuncinfo$??1?$_Tree_temp_node@V?$allocator@U?$_Tree_node@U?$pair@$$CBVtype_id@luabind@@I@std@@PAX@std@@@std@@@std@@QAE@XZ DD 019930522H
	DD	00H
	DD	00H
	DD	2 DUP(00H)
	DD	2 DUP(00H)
	DD	00H
	DD	05H
xdata$x	ENDS
;	COMDAT voltbl
voltbl	SEGMENT
_volmd	DB	016H
voltbl	ENDS
;	COMDAT xdata$x
xdata$x	SEGMENT
__unwindtable$??0?$_Tree_temp_node_alloc@V?$allocator@U?$_Tree_node@U?$pair@$$CBVtype_id@luabind@@I@std@@PAX@std@@@std@@@std@@QAE@AAV?$allocator@U?$_Tree_node@U?$pair@$$CBVtype_id@luabind@@I@std@@PAX@std@@@1@@Z DD 0ffffffffH
	DD	FLAT:__unwindfunclet$??0?$_Tree_temp_node_alloc@V?$allocator@U?$_Tree_node@U?$pair@$$CBVtype_id@luabind@@I@std@@PAX@std@@@std@@@std@@QAE@AAV?$allocator@U?$_Tree_node@U?$pair@$$CBVtype_id@luabind@@I@std@@PAX@std@@@1@@Z$0
__ehfuncinfo$??0?$_Tree_temp_node_alloc@V?$allocator@U?$_Tree_node@U?$pair@$$CBVtype_id@luabind@@I@std@@PAX@std@@@std@@@std@@QAE@AAV?$allocator@U?$_Tree_node@U?$pair@$$CBVtype_id@luabind@@I@std@@PAX@std@@@1@@Z DD 019930522H
	DD	01H
	DD	FLAT:__unwindtable$??0?$_Tree_temp_node_alloc@V?$allocator@U?$_Tree_node@U?$pair@$$CBVtype_id@luabind@@I@std@@PAX@std@@@std@@@std@@QAE@AAV?$allocator@U?$_Tree_node@U?$pair@$$CBVtype_id@luabind@@I@std@@PAX@std@@@1@@Z
	DD	2 DUP(00H)
	DD	2 DUP(00H)
	DD	00H
	DD	01H
xdata$x	ENDS
;	COMDAT voltbl
voltbl	SEGMENT
_volmd	DB	09H
voltbl	ENDS
;	COMDAT xdata$x
xdata$x	SEGMENT
__ehfuncinfo$??1?$_Alloc_construct_ptr@V?$allocator@U?$_Tree_node@U?$pair@$$CBVtype_id@luabind@@I@std@@PAX@std@@@std@@@std@@QAE@XZ DD 019930522H
	DD	00H
	DD	00H
	DD	2 DUP(00H)
	DD	2 DUP(00H)
	DD	00H
	DD	05H
xdata$x	ENDS
;	COMDAT voltbl
voltbl	SEGMENT
_volmd	DB	016H
voltbl	ENDS
;	COMDAT xdata$x
xdata$x	SEGMENT
__unwindtable$??$_Uninitialized_value_construct_n@V?$allocator@K@std@@@std@@YAPAKPAKIAAV?$allocator@K@0@@Z DD 0ffffffffH
	DD	FLAT:__unwindfunclet$??$_Uninitialized_value_construct_n@V?$allocator@K@std@@@std@@YAPAKPAKIAAV?$allocator@K@0@@Z$0
__ehfuncinfo$??$_Uninitialized_value_construct_n@V?$allocator@K@std@@@std@@YAPAKPAKIAAV?$allocator@K@0@@Z DD 019930522H
	DD	01H
	DD	FLAT:__unwindtable$??$_Uninitialized_value_construct_n@V?$allocator@K@std@@@std@@YAPAKPAKIAAV?$allocator@K@0@@Z
	DD	2 DUP(00H)
	DD	2 DUP(00H)
	DD	00H
	DD	01H
xdata$x	ENDS
;	COMDAT voltbl
voltbl	SEGMENT
_volmd	DB	09H
voltbl	ENDS
;	COMDAT xdata$x
xdata$x	SEGMENT
__catchsym$??$_Resize_reallocate@U_Value_init_tag@std@@@?$vector@KV?$allocator@K@std@@@std@@AAEXIABU_Value_init_tag@1@@Z$2 DD 040H
	DD	00H
	DD	00H
	DD	FLAT:__catch$??$_Resize_reallocate@U_Value_init_tag@std@@@?$vector@KV?$allocator@K@std@@@std@@AAEXIABU_Value_init_tag@1@@Z$0
__unwindtable$??$_Resize_reallocate@U_Value_init_tag@std@@@?$vector@KV?$allocator@K@std@@@std@@AAEXIABU_Value_init_tag@1@@Z DD 0ffffffffH
	DD	00H
	DD	0ffffffffH
	DD	00H
__tryblocktable$??$_Resize_reallocate@U_Value_init_tag@std@@@?$vector@KV?$allocator@K@std@@@std@@AAEXIABU_Value_init_tag@1@@Z DD 00H
	DD	00H
	DD	01H
	DD	01H
	DD	FLAT:__catchsym$??$_Resize_reallocate@U_Value_init_tag@std@@@?$vector@KV?$allocator@K@std@@@std@@AAEXIABU_Value_init_tag@1@@Z$2
__ehfuncinfo$??$_Resize_reallocate@U_Value_init_tag@std@@@?$vector@KV?$allocator@K@std@@@std@@AAEXIABU_Value_init_tag@1@@Z DD 019930522H
	DD	02H
	DD	FLAT:__unwindtable$??$_Resize_reallocate@U_Value_init_tag@std@@@?$vector@KV?$allocator@K@std@@@std@@AAEXIABU_Value_init_tag@1@@Z
	DD	01H
	DD	FLAT:__tryblocktable$??$_Resize_reallocate@U_Value_init_tag@std@@@?$vector@KV?$allocator@K@std@@@std@@AAEXIABU_Value_init_tag@1@@Z
	DD	2 DUP(00H)
	DD	00H
	DD	01H
xdata$x	ENDS
;	COMDAT voltbl
voltbl	SEGMENT
_volmd	DB	016H
voltbl	ENDS
;	COMDAT xdata$x
xdata$x	SEGMENT
__unwindtable$??$_Uninitialized_copy_unchecked@PAPAUqueue_entry@?A0xac297765@detail@luabind@@PAPAU1234@@std@@YAPAPAUqueue_entry@?A0xac297765@detail@luabind@@PAPAU1234@QAPAU1234@0@Z DD 0ffffffffH
	DD	FLAT:__unwindfunclet$??$_Uninitialized_copy_unchecked@PAPAUqueue_entry@?A0xac297765@detail@luabind@@PAPAU1234@@std@@YAPAPAUqueue_entry@?A0xac297765@detail@luabind@@PAPAU1234@QAPAU1234@0@Z$0
__ehfuncinfo$??$_Uninitialized_copy_unchecked@PAPAUqueue_entry@?A0xac297765@detail@luabind@@PAPAU1234@@std@@YAPAPAUqueue_entry@?A0xac297765@detail@luabind@@PAPAU1234@QAPAU1234@0@Z DD 019930522H
	DD	01H
	DD	FLAT:__unwindtable$??$_Uninitialized_copy_unchecked@PAPAUqueue_entry@?A0xac297765@detail@luabind@@PAPAU1234@@std@@YAPAPAUqueue_entry@?A0xac297765@detail@luabind@@PAPAU1234@QAPAU1234@0@Z
	DD	2 DUP(00H)
	DD	2 DUP(00H)
	DD	00H
	DD	01H
xdata$x	ENDS
;	COMDAT voltbl
voltbl	SEGMENT
_volmd	DB	09H
voltbl	ENDS
;	COMDAT xdata$x
xdata$x	SEGMENT
__ehfuncinfo$??$_Freenode@V?$allocator@U?$_Tree_node@U?$pair@$$CBVtype_id@luabind@@I@std@@PAX@std@@@std@@@?$_Tree_node@U?$pair@$$CBVtype_id@luabind@@I@std@@PAX@std@@SAXAAV?$allocator@U?$_Tree_node@U?$pair@$$CBVtype_id@luabind@@I@std@@PAX@std@@@1@PAU01@@Z DD 019930522H
	DD	00H
	DD	00H
	DD	2 DUP(00H)
	DD	2 DUP(00H)
	DD	00H
	DD	05H
xdata$x	ENDS
;	COMDAT voltbl
voltbl	SEGMENT
_volmd	DB	016H
voltbl	ENDS
;	COMDAT xdata$x
xdata$x	SEGMENT
__unwindtable$??$_Uninitialized_move@PAUedge@?A0xac297765@detail@luabind@@V?$allocator@Uedge@?A0xac297765@detail@luabind@@@std@@@std@@YAPAUedge@?A0xac297765@detail@luabind@@QAU1234@0PAU1234@AAV?$allocator@Uedge@?A0xac297765@detail@luabind@@@0@@Z DD 0ffffffffH
	DD	FLAT:__unwindfunclet$??$_Uninitialized_move@PAUedge@?A0xac297765@detail@luabind@@V?$allocator@Uedge@?A0xac297765@detail@luabind@@@std@@@std@@YAPAUedge@?A0xac297765@detail@luabind@@QAU1234@0PAU1234@AAV?$allocator@Uedge@?A0xac297765@detail@luabind@@@0@@Z$0
__ehfuncinfo$??$_Uninitialized_move@PAUedge@?A0xac297765@detail@luabind@@V?$allocator@Uedge@?A0xac297765@detail@luabind@@@std@@@std@@YAPAUedge@?A0xac297765@detail@luabind@@QAU1234@0PAU1234@AAV?$allocator@Uedge@?A0xac297765@detail@luabind@@@0@@Z DD 019930522H
	DD	01H
	DD	FLAT:__unwindtable$??$_Uninitialized_move@PAUedge@?A0xac297765@detail@luabind@@V?$allocator@Uedge@?A0xac297765@detail@luabind@@@std@@@std@@YAPAUedge@?A0xac297765@detail@luabind@@QAU1234@0PAU1234@AAV?$allocator@Uedge@?A0xac297765@detail@luabind@@@0@@Z
	DD	2 DUP(00H)
	DD	2 DUP(00H)
	DD	00H
	DD	01H
xdata$x	ENDS
;	COMDAT voltbl
voltbl	SEGMENT
_volmd	DB	09H
voltbl	ENDS
;	COMDAT xdata$x
xdata$x	SEGMENT
__ehfuncinfo$??$_Freenode0@V?$allocator@U?$_Tree_node@U?$pair@$$CBVtype_id@luabind@@I@std@@PAX@std@@@std@@@?$_Tree_node@U?$pair@$$CBVtype_id@luabind@@I@std@@PAX@std@@SAXAAV?$allocator@U?$_Tree_node@U?$pair@$$CBVtype_id@luabind@@I@std@@PAX@std@@@1@PAU01@@Z DD 019930522H
	DD	00H
	DD	00H
	DD	2 DUP(00H)
	DD	2 DUP(00H)
	DD	00H
	DD	05H
xdata$x	ENDS
;	COMDAT voltbl
voltbl	SEGMENT
_volmd	DB	09H
voltbl	ENDS
;	COMDAT xdata$x
xdata$x	SEGMENT
__catchsym$??$_Emplace_reallocate@Uedge@?A0xac297765@detail@luabind@@@?$vector@Uedge@?A0xac297765@detail@luabind@@V?$allocator@Uedge@?A0xac297765@detail@luabind@@@std@@@std@@AAEPAUedge@?A0xac297765@detail@luabind@@QAU2345@$$QAU2345@@Z$2 DD 040H
	DD	00H
	DD	00H
	DD	FLAT:__catch$??$_Emplace_reallocate@Uedge@?A0xac297765@detail@luabind@@@?$vector@Uedge@?A0xac297765@detail@luabind@@V?$allocator@Uedge@?A0xac297765@detail@luabind@@@std@@@std@@AAEPAUedge@?A0xac297765@detail@luabind@@QAU2345@$$QAU2345@@Z$0
__unwindtable$??$_Emplace_reallocate@Uedge@?A0xac297765@detail@luabind@@@?$vector@Uedge@?A0xac297765@detail@luabind@@V?$allocator@Uedge@?A0xac297765@detail@luabind@@@std@@@std@@AAEPAUedge@?A0xac297765@detail@luabind@@QAU2345@$$QAU2345@@Z DD 0ffffffffH
	DD	00H
	DD	0ffffffffH
	DD	00H
__tryblocktable$??$_Emplace_reallocate@Uedge@?A0xac297765@detail@luabind@@@?$vector@Uedge@?A0xac297765@detail@luabind@@V?$allocator@Uedge@?A0xac297765@detail@luabind@@@std@@@std@@AAEPAUedge@?A0xac297765@detail@luabind@@QAU2345@$$QAU2345@@Z DD 00H
	DD	00H
	DD	01H
	DD	01H
	DD	FLAT:__catchsym$??$_Emplace_reallocate@Uedge@?A0xac297765@detail@luabind@@@?$vector@Uedge@?A0xac297765@detail@luabind@@V?$allocator@Uedge@?A0xac297765@detail@luabind@@@std@@@std@@AAEPAUedge@?A0xac297765@detail@luabind@@QAU2345@$$QAU2345@@Z$2
__ehfuncinfo$??$_Emplace_reallocate@Uedge@?A0xac297765@detail@luabind@@@?$vector@Uedge@?A0xac297765@detail@luabind@@V?$allocator@Uedge@?A0xac297765@detail@luabind@@@std@@@std@@AAEPAUedge@?A0xac297765@detail@luabind@@QAU2345@$$QAU2345@@Z DD 019930522H
	DD	02H
	DD	FLAT:__unwindtable$??$_Emplace_reallocate@Uedge@?A0xac297765@detail@luabind@@@?$vector@Uedge@?A0xac297765@detail@luabind@@V?$allocator@Uedge@?A0xac297765@detail@luabind@@@std@@@std@@AAEPAUedge@?A0xac297765@detail@luabind@@QAU2345@$$QAU2345@@Z
	DD	01H
	DD	FLAT:__tryblocktable$??$_Emplace_reallocate@Uedge@?A0xac297765@detail@luabind@@@?$vector@Uedge@?A0xac297765@detail@luabind@@V?$allocator@Uedge@?A0xac297765@detail@luabind@@@std@@@std@@AAEPAUedge@?A0xac297765@detail@luabind@@QAU2345@$$QAU2345@@Z
	DD	2 DUP(00H)
	DD	00H
	DD	01H
xdata$x	ENDS
;	COMDAT voltbl
voltbl	SEGMENT
_volmd	DB	09H
voltbl	ENDS
;	COMDAT xdata$x
xdata$x	SEGMENT
__ehfuncinfo$??$_Freenode0@V?$allocator@U?$_Tree_node@U?$pair@$$CBV?$tuple@IIIHUnull_type@tuples@boost@@U123@U123@U123@U123@U123@@tuples@boost@@U?$pair@HH@std@@@std@@PAX@std@@@std@@@?$_Tree_node@U?$pair@$$CBV?$tuple@IIIHUnull_type@tuples@boost@@U123@U123@U123@U123@U123@@tuples@boost@@U?$pair@HH@std@@@std@@PAX@std@@SAXAAV?$allocator@U?$_Tree_node@U?$pair@$$CBV?$tuple@IIIHUnull_type@tuples@boost@@U123@U123@U123@U123@U123@@tuples@boost@@U?$pair@HH@std@@@std@@PAX@std@@@1@PAU01@@Z DD 019930522H
	DD	00H
	DD	00H
	DD	2 DUP(00H)
	DD	2 DUP(00H)
	DD	00H
	DD	05H
xdata$x	ENDS
;	COMDAT voltbl
voltbl	SEGMENT
_volmd	DB	09H
voltbl	ENDS
;	COMDAT xdata$x
xdata$x	SEGMENT
__ehfuncinfo$??$_Freenode@V?$allocator@U?$_Tree_node@U?$pair@$$CBV?$tuple@IIIHUnull_type@tuples@boost@@U123@U123@U123@U123@U123@@tuples@boost@@U?$pair@HH@std@@@std@@PAX@std@@@std@@@?$_Tree_node@U?$pair@$$CBV?$tuple@IIIHUnull_type@tuples@boost@@U123@U123@U123@U123@U123@@tuples@boost@@U?$pair@HH@std@@@std@@PAX@std@@SAXAAV?$allocator@U?$_Tree_node@U?$pair@$$CBV?$tuple@IIIHUnull_type@tuples@boost@@U123@U123@U123@U123@U123@@tuples@boost@@U?$pair@HH@std@@@std@@PAX@std@@@1@PAU01@@Z DD 019930522H
	DD	00H
	DD	00H
	DD	2 DUP(00H)
	DD	2 DUP(00H)
	DD	00H
	DD	05H
xdata$x	ENDS
;	COMDAT voltbl
voltbl	SEGMENT
_volmd	DB	09H
voltbl	ENDS
;	COMDAT xdata$x
xdata$x	SEGMENT
__catchsym$??$_Emplace_reallocate@Uvertex@?A0xac297765@detail@luabind@@@?$vector@Uvertex@?A0xac297765@detail@luabind@@V?$allocator@Uvertex@?A0xac297765@detail@luabind@@@std@@@std@@AAEPAUvertex@?A0xac297765@detail@luabind@@QAU2345@$$QAU2345@@Z$2 DD 040H
	DD	00H
	DD	00H
	DD	FLAT:__catch$??$_Emplace_reallocate@Uvertex@?A0xac297765@detail@luabind@@@?$vector@Uvertex@?A0xac297765@detail@luabind@@V?$allocator@Uvertex@?A0xac297765@detail@luabind@@@std@@@std@@AAEPAUvertex@?A0xac297765@detail@luabind@@QAU2345@$$QAU2345@@Z$0
__unwindtable$??$_Emplace_reallocate@Uvertex@?A0xac297765@detail@luabind@@@?$vector@Uvertex@?A0xac297765@detail@luabind@@V?$allocator@Uvertex@?A0xac297765@detail@luabind@@@std@@@std@@AAEPAUvertex@?A0xac297765@detail@luabind@@QAU2345@$$QAU2345@@Z DD 0ffffffffH
	DD	00H
	DD	0ffffffffH
	DD	00H
__tryblocktable$??$_Emplace_reallocate@Uvertex@?A0xac297765@detail@luabind@@@?$vector@Uvertex@?A0xac297765@detail@luabind@@V?$allocator@Uvertex@?A0xac297765@detail@luabind@@@std@@@std@@AAEPAUvertex@?A0xac297765@detail@luabind@@QAU2345@$$QAU2345@@Z DD 00H
	DD	00H
	DD	01H
	DD	01H
	DD	FLAT:__catchsym$??$_Emplace_reallocate@Uvertex@?A0xac297765@detail@luabind@@@?$vector@Uvertex@?A0xac297765@detail@luabind@@V?$allocator@Uvertex@?A0xac297765@detail@luabind@@@std@@@std@@AAEPAUvertex@?A0xac297765@detail@luabind@@QAU2345@$$QAU2345@@Z$2
__ehfuncinfo$??$_Emplace_reallocate@Uvertex@?A0xac297765@detail@luabind@@@?$vector@Uvertex@?A0xac297765@detail@luabind@@V?$allocator@Uvertex@?A0xac297765@detail@luabind@@@std@@@std@@AAEPAUvertex@?A0xac297765@detail@luabind@@QAU2345@$$QAU2345@@Z DD 019930522H
	DD	02H
	DD	FLAT:__unwindtable$??$_Emplace_reallocate@Uvertex@?A0xac297765@detail@luabind@@@?$vector@Uvertex@?A0xac297765@detail@luabind@@V?$allocator@Uvertex@?A0xac297765@detail@luabind@@@std@@@std@@AAEPAUvertex@?A0xac297765@detail@luabind@@QAU2345@$$QAU2345@@Z
	DD	01H
	DD	FLAT:__tryblocktable$??$_Emplace_reallocate@Uvertex@?A0xac297765@detail@luabind@@@?$vector@Uvertex@?A0xac297765@detail@luabind@@V?$allocator@Uvertex@?A0xac297765@detail@luabind@@@std@@@std@@AAEPAUvertex@?A0xac297765@detail@luabind@@QAU2345@$$QAU2345@@Z
	DD	2 DUP(00H)
	DD	00H
	DD	01H
xdata$x	ENDS
;	COMDAT voltbl
voltbl	SEGMENT
_volmd	DB	09H
voltbl	ENDS
;	COMDAT xdata$x
xdata$x	SEGMENT
__ehfuncinfo$??$_Deallocate_plain@V?$allocator@U_Container_proxy@std@@@std@@@std@@YAXAAV?$allocator@U_Container_proxy@std@@@0@QAU_Container_proxy@0@@Z DD 019930522H
	DD	00H
	DD	00H
	DD	2 DUP(00H)
	DD	2 DUP(00H)
	DD	00H
	DD	05H
xdata$x	ENDS
;	COMDAT voltbl
voltbl	SEGMENT
_volmd	DB	01eH
voltbl	ENDS
;	COMDAT xdata$x
xdata$x	SEGMENT
__unwindtable$??$lower_bound@V?$_Vector_iterator@V?$_Vector_val@U?$_Simple_types@Uedge@?A0xac297765@detail@luabind@@@std@@@std@@@std@@Uedge@?A0xac297765@detail@luabind@@U?$less@X@2@@std@@YA?AV?$_Vector_iterator@V?$_Vector_val@U?$_Simple_types@Uedge@?A0xac297765@detail@luabind@@@std@@@std@@@0@V10@V10@ABUedge@?A0xac297765@detail@luabind@@U?$less@X@0@@Z DD 0ffffffffH
	DD	FLAT:__unwindfunclet$??$lower_bound@V?$_Vector_iterator@V?$_Vector_val@U?$_Simple_types@Uedge@?A0xac297765@detail@luabind@@@std@@@std@@@std@@Uedge@?A0xac297765@detail@luabind@@U?$less@X@2@@std@@YA?AV?$_Vector_iterator@V?$_Vector_val@U?$_Simple_types@Uedge@?A0xac297765@detail@luabind@@@std@@@std@@@0@V10@V10@ABUedge@?A0xac297765@detail@luabind@@U?$less@X@0@@Z$0
	DD	00H
	DD	FLAT:__unwindfunclet$??$lower_bound@V?$_Vector_iterator@V?$_Vector_val@U?$_Simple_types@Uedge@?A0xac297765@detail@luabind@@@std@@@std@@@std@@Uedge@?A0xac297765@detail@luabind@@U?$less@X@2@@std@@YA?AV?$_Vector_iterator@V?$_Vector_val@U?$_Simple_types@Uedge@?A0xac297765@detail@luabind@@@std@@@std@@@0@V10@V10@ABUedge@?A0xac297765@detail@luabind@@U?$less@X@0@@Z$1
__ehfuncinfo$??$lower_bound@V?$_Vector_iterator@V?$_Vector_val@U?$_Simple_types@Uedge@?A0xac297765@detail@luabind@@@std@@@std@@@std@@Uedge@?A0xac297765@detail@luabind@@U?$less@X@2@@std@@YA?AV?$_Vector_iterator@V?$_Vector_val@U?$_Simple_types@Uedge@?A0xac297765@detail@luabind@@@std@@@std@@@0@V10@V10@ABUedge@?A0xac297765@detail@luabind@@U?$less@X@0@@Z DD 019930522H
	DD	02H
	DD	FLAT:__unwindtable$??$lower_bound@V?$_Vector_iterator@V?$_Vector_val@U?$_Simple_types@Uedge@?A0xac297765@detail@luabind@@@std@@@std@@@std@@Uedge@?A0xac297765@detail@luabind@@U?$less@X@2@@std@@YA?AV?$_Vector_iterator@V?$_Vector_val@U?$_Simple_types@Uedge@?A0xac297765@detail@luabind@@@std@@@std@@@0@V10@V10@ABUedge@?A0xac297765@detail@luabind@@U?$less@X@0@@Z
	DD	2 DUP(00H)
	DD	2 DUP(00H)
	DD	00H
	DD	01H
xdata$x	ENDS
;	COMDAT voltbl
voltbl	SEGMENT
_volmd	DB	09H
voltbl	ENDS
;	COMDAT xdata$x
xdata$x	SEGMENT
__ehfuncinfo$??$_Deallocate@$07$0A@@std@@YAXPAXI@Z DD 019930522H
	DD	00H
	DD	00H
	DD	2 DUP(00H)
	DD	2 DUP(00H)
	DD	00H
	DD	05H
xdata$x	ENDS
;	COMDAT voltbl
voltbl	SEGMENT
_volmd	DB	016H
voltbl	ENDS
;	COMDAT xdata$x
xdata$x	SEGMENT
__unwindtable$??$_Uninitialized_move@PAUvertex@?A0xac297765@detail@luabind@@V?$allocator@Uvertex@?A0xac297765@detail@luabind@@@std@@@std@@YAPAUvertex@?A0xac297765@detail@luabind@@QAU1234@0PAU1234@AAV?$allocator@Uvertex@?A0xac297765@detail@luabind@@@0@@Z DD 0ffffffffH
	DD	FLAT:__unwindfunclet$??$_Uninitialized_move@PAUvertex@?A0xac297765@detail@luabind@@V?$allocator@Uvertex@?A0xac297765@detail@luabind@@@std@@@std@@YAPAUvertex@?A0xac297765@detail@luabind@@QAU1234@0PAU1234@AAV?$allocator@Uvertex@?A0xac297765@detail@luabind@@@0@@Z$0
__ehfuncinfo$??$_Uninitialized_move@PAUvertex@?A0xac297765@detail@luabind@@V?$allocator@Uvertex@?A0xac297765@detail@luabind@@@std@@@std@@YAPAUvertex@?A0xac297765@detail@luabind@@QAU1234@0PAU1234@AAV?$allocator@Uvertex@?A0xac297765@detail@luabind@@@0@@Z DD 019930522H
	DD	01H
	DD	FLAT:__unwindtable$??$_Uninitialized_move@PAUvertex@?A0xac297765@detail@luabind@@V?$allocator@Uvertex@?A0xac297765@detail@luabind@@@std@@@std@@YAPAUvertex@?A0xac297765@detail@luabind@@QAU1234@0PAU1234@AAV?$allocator@Uvertex@?A0xac297765@detail@luabind@@@0@@Z
	DD	2 DUP(00H)
	DD	2 DUP(00H)
	DD	00H
	DD	01H
xdata$x	ENDS
;	COMDAT voltbl
voltbl	SEGMENT
_volmd	DB	09H
voltbl	ENDS
;	COMDAT xdata$x
xdata$x	SEGMENT
__ehfuncinfo$??$_Destroy_range@V?$allocator@Uvertex@?A0xac297765@detail@luabind@@@std@@@std@@YAXPAUvertex@?A0xac297765@detail@luabind@@QAU1234@AAV?$allocator@Uvertex@?A0xac297765@detail@luabind@@@0@@Z DD 019930522H
	DD	00H
	DD	00H
	DD	2 DUP(00H)
	DD	2 DUP(00H)
	DD	00H
	DD	05H
xdata$x	ENDS
;	COMDAT voltbl
voltbl	SEGMENT
_volmd	DB	01eH
voltbl	ENDS
;	COMDAT xdata$x
xdata$x	SEGMENT
__unwindtable$??$emplace@Uedge@?A0xac297765@detail@luabind@@@?$vector@Uedge@?A0xac297765@detail@luabind@@V?$allocator@Uedge@?A0xac297765@detail@luabind@@@std@@@std@@QAE?AV?$_Vector_iterator@V?$_Vector_val@U?$_Simple_types@Uedge@?A0xac297765@detail@luabind@@@std@@@std@@@1@V?$_Vector_const_iterator@V?$_Vector_val@U?$_Simple_types@Uedge@?A0xac297765@detail@luabind@@@std@@@std@@@1@$$QAUedge@?A0xac297765@detail@luabind@@@Z DD 0ffffffffH
	DD	FLAT:__unwindfunclet$??$emplace@Uedge@?A0xac297765@detail@luabind@@@?$vector@Uedge@?A0xac297765@detail@luabind@@V?$allocator@Uedge@?A0xac297765@detail@luabind@@@std@@@std@@QAE?AV?$_Vector_iterator@V?$_Vector_val@U?$_Simple_types@Uedge@?A0xac297765@detail@luabind@@@std@@@std@@@1@V?$_Vector_const_iterator@V?$_Vector_val@U?$_Simple_types@Uedge@?A0xac297765@detail@luabind@@@std@@@std@@@1@$$QAUedge@?A0xac297765@detail@luabind@@@Z$0
	DD	00H
	DD	FLAT:__unwindfunclet$??$emplace@Uedge@?A0xac297765@detail@luabind@@@?$vector@Uedge@?A0xac297765@detail@luabind@@V?$allocator@Uedge@?A0xac297765@detail@luabind@@@std@@@std@@QAE?AV?$_Vector_iterator@V?$_Vector_val@U?$_Simple_types@Uedge@?A0xac297765@detail@luabind@@@std@@@std@@@1@V?$_Vector_const_iterator@V?$_Vector_val@U?$_Simple_types@Uedge@?A0xac297765@detail@luabind@@@std@@@std@@@1@$$QAUedge@?A0xac297765@detail@luabind@@@Z$1
__ehfuncinfo$??$emplace@Uedge@?A0xac297765@detail@luabind@@@?$vector@Uedge@?A0xac297765@detail@luabind@@V?$allocator@Uedge@?A0xac297765@detail@luabind@@@std@@@std@@QAE?AV?$_Vector_iterator@V?$_Vector_val@U?$_Simple_types@Uedge@?A0xac297765@detail@luabind@@@std@@@std@@@1@V?$_Vector_const_iterator@V?$_Vector_val@U?$_Simple_types@Uedge@?A0xac297765@detail@luabind@@@std@@@std@@@1@$$QAUedge@?A0xac297765@detail@luabind@@@Z DD 019930522H
	DD	02H
	DD	FLAT:__unwindtable$??$emplace@Uedge@?A0xac297765@detail@luabind@@@?$vector@Uedge@?A0xac297765@detail@luabind@@V?$allocator@Uedge@?A0xac297765@detail@luabind@@@std@@@std@@QAE?AV?$_Vector_iterator@V?$_Vector_val@U?$_Simple_types@Uedge@?A0xac297765@detail@luabind@@@std@@@std@@@1@V?$_Vector_const_iterator@V?$_Vector_val@U?$_Simple_types@Uedge@?A0xac297765@detail@luabind@@@std@@@std@@@1@$$QAUedge@?A0xac297765@detail@luabind@@@Z
	DD	2 DUP(00H)
	DD	2 DUP(00H)
	DD	00H
	DD	01H
xdata$x	ENDS
;	COMDAT voltbl
voltbl	SEGMENT
_volmd	DB	01eH
voltbl	ENDS
;	COMDAT xdata$x
xdata$x	SEGMENT
__unwindtable$??$lower_bound@V?$_Vector_iterator@V?$_Vector_val@U?$_Simple_types@Uedge@?A0xac297765@detail@luabind@@@std@@@std@@@std@@Uedge@?A0xac297765@detail@luabind@@@std@@YA?AV?$_Vector_iterator@V?$_Vector_val@U?$_Simple_types@Uedge@?A0xac297765@detail@luabind@@@std@@@std@@@0@V10@0ABUedge@?A0xac297765@detail@luabind@@@Z DD 0ffffffffH
	DD	FLAT:__unwindfunclet$??$lower_bound@V?$_Vector_iterator@V?$_Vector_val@U?$_Simple_types@Uedge@?A0xac297765@detail@luabind@@@std@@@std@@@std@@Uedge@?A0xac297765@detail@luabind@@@std@@YA?AV?$_Vector_iterator@V?$_Vector_val@U?$_Simple_types@Uedge@?A0xac297765@detail@luabind@@@std@@@std@@@0@V10@0ABUedge@?A0xac297765@detail@luabind@@@Z$0
	DD	00H
	DD	FLAT:__unwindfunclet$??$lower_bound@V?$_Vector_iterator@V?$_Vector_val@U?$_Simple_types@Uedge@?A0xac297765@detail@luabind@@@std@@@std@@@std@@Uedge@?A0xac297765@detail@luabind@@@std@@YA?AV?$_Vector_iterator@V?$_Vector_val@U?$_Simple_types@Uedge@?A0xac297765@detail@luabind@@@std@@@std@@@0@V10@0ABUedge@?A0xac297765@detail@luabind@@@Z$1
__ehfuncinfo$??$lower_bound@V?$_Vector_iterator@V?$_Vector_val@U?$_Simple_types@Uedge@?A0xac297765@detail@luabind@@@std@@@std@@@std@@Uedge@?A0xac297765@detail@luabind@@@std@@YA?AV?$_Vector_iterator@V?$_Vector_val@U?$_Simple_types@Uedge@?A0xac297765@detail@luabind@@@std@@@std@@@0@V10@0ABUedge@?A0xac297765@detail@luabind@@@Z DD 019930522H
	DD	02H
	DD	FLAT:__unwindtable$??$lower_bound@V?$_Vector_iterator@V?$_Vector_val@U?$_Simple_types@Uedge@?A0xac297765@detail@luabind@@@std@@@std@@@std@@Uedge@?A0xac297765@detail@luabind@@@std@@YA?AV?$_Vector_iterator@V?$_Vector_val@U?$_Simple_types@Uedge@?A0xac297765@detail@luabind@@@std@@@std@@@0@V10@0ABUedge@?A0xac297765@detail@luabind@@@Z
	DD	2 DUP(00H)
	DD	2 DUP(00H)
	DD	00H
	DD	01H
xdata$x	ENDS
;	COMDAT voltbl
voltbl	SEGMENT
_volmd	DB	016H
voltbl	ENDS
;	COMDAT xdata$x
xdata$x	SEGMENT
__unwindtable$??$end@V?$vector@Uedge@?A0xac297765@detail@luabind@@V?$allocator@Uedge@?A0xac297765@detail@luabind@@@std@@@std@@U?$bool_@$00@mpl@boost@@@foreach_detail_@boost@@YA?AU?$auto_any@V?$_Vector_const_iterator@V?$_Vector_val@U?$_Simple_types@Uedge@?A0xac297765@detail@luabind@@@std@@@std@@@std@@@01@ABUauto_any_base@01@PAU?$type2type@V?$vector@Uedge@?A0xac297765@detail@luabind@@V?$allocator@Uedge@?A0xac297765@detail@luabind@@@std@@@std@@U?$bool_@$00@mpl@boost@@@01@PAU?$bool_@$0A@@mpl@1@@Z DD 0ffffffffH
	DD	FLAT:__unwindfunclet$??$end@V?$vector@Uedge@?A0xac297765@detail@luabind@@V?$allocator@Uedge@?A0xac297765@detail@luabind@@@std@@@std@@U?$bool_@$00@mpl@boost@@@foreach_detail_@boost@@YA?AU?$auto_any@V?$_Vector_const_iterator@V?$_Vector_val@U?$_Simple_types@Uedge@?A0xac297765@detail@luabind@@@std@@@std@@@std@@@01@ABUauto_any_base@01@PAU?$type2type@V?$vector@Uedge@?A0xac297765@detail@luabind@@V?$allocator@Uedge@?A0xac297765@detail@luabind@@@std@@@std@@U?$bool_@$00@mpl@boost@@@01@PAU?$bool_@$0A@@mpl@1@@Z$0
__ehfuncinfo$??$end@V?$vector@Uedge@?A0xac297765@detail@luabind@@V?$allocator@Uedge@?A0xac297765@detail@luabind@@@std@@@std@@U?$bool_@$00@mpl@boost@@@foreach_detail_@boost@@YA?AU?$auto_any@V?$_Vector_const_iterator@V?$_Vector_val@U?$_Simple_types@Uedge@?A0xac297765@detail@luabind@@@std@@@std@@@std@@@01@ABUauto_any_base@01@PAU?$type2type@V?$vector@Uedge@?A0xac297765@detail@luabind@@V?$allocator@Uedge@?A0xac297765@detail@luabind@@@std@@@std@@U?$bool_@$00@mpl@boost@@@01@PAU?$bool_@$0A@@mpl@1@@Z DD 019930522H
	DD	01H
	DD	FLAT:__unwindtable$??$end@V?$vector@Uedge@?A0xac297765@detail@luabind@@V?$allocator@Uedge@?A0xac297765@detail@luabind@@@std@@@std@@U?$bool_@$00@mpl@boost@@@foreach_detail_@boost@@YA?AU?$auto_any@V?$_Vector_const_iterator@V?$_Vector_val@U?$_Simple_types@Uedge@?A0xac297765@detail@luabind@@@std@@@std@@@std@@@01@ABUauto_any_base@01@PAU?$type2type@V?$vector@Uedge@?A0xac297765@detail@luabind@@V?$allocator@Uedge@?A0xac297765@detail@luabind@@@std@@@std@@U?$bool_@$00@mpl@boost@@@01@PAU?$bool_@$0A@@mpl@1@@Z
	DD	2 DUP(00H)
	DD	2 DUP(00H)
	DD	00H
	DD	01H
xdata$x	ENDS
;	COMDAT voltbl
voltbl	SEGMENT
_volmd	DB	016H
voltbl	ENDS
;	COMDAT xdata$x
xdata$x	SEGMENT
__unwindtable$??$begin@V?$vector@Uedge@?A0xac297765@detail@luabind@@V?$allocator@Uedge@?A0xac297765@detail@luabind@@@std@@@std@@U?$bool_@$00@mpl@boost@@@foreach_detail_@boost@@YA?AU?$auto_any@V?$_Vector_const_iterator@V?$_Vector_val@U?$_Simple_types@Uedge@?A0xac297765@detail@luabind@@@std@@@std@@@std@@@01@ABUauto_any_base@01@PAU?$type2type@V?$vector@Uedge@?A0xac297765@detail@luabind@@V?$allocator@Uedge@?A0xac297765@detail@luabind@@@std@@@std@@U?$bool_@$00@mpl@boost@@@01@PAU?$bool_@$0A@@mpl@1@@Z DD 0ffffffffH
	DD	FLAT:__unwindfunclet$??$begin@V?$vector@Uedge@?A0xac297765@detail@luabind@@V?$allocator@Uedge@?A0xac297765@detail@luabind@@@std@@@std@@U?$bool_@$00@mpl@boost@@@foreach_detail_@boost@@YA?AU?$auto_any@V?$_Vector_const_iterator@V?$_Vector_val@U?$_Simple_types@Uedge@?A0xac297765@detail@luabind@@@std@@@std@@@std@@@01@ABUauto_any_base@01@PAU?$type2type@V?$vector@Uedge@?A0xac297765@detail@luabind@@V?$allocator@Uedge@?A0xac297765@detail@luabind@@@std@@@std@@U?$bool_@$00@mpl@boost@@@01@PAU?$bool_@$0A@@mpl@1@@Z$0
__ehfuncinfo$??$begin@V?$vector@Uedge@?A0xac297765@detail@luabind@@V?$allocator@Uedge@?A0xac297765@detail@luabind@@@std@@@std@@U?$bool_@$00@mpl@boost@@@foreach_detail_@boost@@YA?AU?$auto_any@V?$_Vector_const_iterator@V?$_Vector_val@U?$_Simple_types@Uedge@?A0xac297765@detail@luabind@@@std@@@std@@@std@@@01@ABUauto_any_base@01@PAU?$type2type@V?$vector@Uedge@?A0xac297765@detail@luabind@@V?$allocator@Uedge@?A0xac297765@detail@luabind@@@std@@@std@@U?$bool_@$00@mpl@boost@@@01@PAU?$bool_@$0A@@mpl@1@@Z DD 019930522H
	DD	01H
	DD	FLAT:__unwindtable$??$begin@V?$vector@Uedge@?A0xac297765@detail@luabind@@V?$allocator@Uedge@?A0xac297765@detail@luabind@@@std@@@std@@U?$bool_@$00@mpl@boost@@@foreach_detail_@boost@@YA?AU?$auto_any@V?$_Vector_const_iterator@V?$_Vector_val@U?$_Simple_types@Uedge@?A0xac297765@detail@luabind@@@std@@@std@@@std@@@01@ABUauto_any_base@01@PAU?$type2type@V?$vector@Uedge@?A0xac297765@detail@luabind@@V?$allocator@Uedge@?A0xac297765@detail@luabind@@@std@@@std@@U?$bool_@$00@mpl@boost@@@01@PAU?$bool_@$0A@@mpl@1@@Z
	DD	2 DUP(00H)
	DD	2 DUP(00H)
	DD	00H
	DD	01H
xdata$x	ENDS
;	COMDAT voltbl
voltbl	SEGMENT
_volmd	DB	016H
voltbl	ENDS
;	COMDAT xdata$x
xdata$x	SEGMENT
__unwindtable$?init_from_unsigned_long@?$dynamic_bitset@KV?$allocator@K@std@@@boost@@AAEXIK@Z DD 0ffffffffH
	DD	FLAT:__unwindfunclet$?init_from_unsigned_long@?$dynamic_bitset@KV?$allocator@K@std@@@boost@@AAEXIK@Z$0
__ehfuncinfo$?init_from_unsigned_long@?$dynamic_bitset@KV?$allocator@K@std@@@boost@@AAEXIK@Z DD 019930522H
	DD	01H
	DD	FLAT:__unwindtable$?init_from_unsigned_long@?$dynamic_bitset@KV?$allocator@K@std@@@boost@@AAEXIK@Z
	DD	2 DUP(00H)
	DD	2 DUP(00H)
	DD	00H
	DD	01H
xdata$x	ENDS
;	COMDAT voltbl
voltbl	SEGMENT
_volmd	DB	09H
voltbl	ENDS
;	COMDAT xdata$x
xdata$x	SEGMENT
__ehfuncinfo$??1?$dynamic_bitset@KV?$allocator@K@std@@@boost@@QAE@XZ DD 019930522H
	DD	00H
	DD	00H
	DD	2 DUP(00H)
	DD	2 DUP(00H)
	DD	00H
	DD	05H
xdata$x	ENDS
;	COMDAT voltbl
voltbl	SEGMENT
_volmd	DB	016H
voltbl	ENDS
;	COMDAT xdata$x
xdata$x	SEGMENT
__unwindtable$??0?$dynamic_bitset@KV?$allocator@K@std@@@boost@@QAE@IKABV?$allocator@K@std@@@Z DD 0ffffffffH
	DD	FLAT:__unwindfunclet$??0?$dynamic_bitset@KV?$allocator@K@std@@@boost@@QAE@IKABV?$allocator@K@std@@@Z$0
__ehfuncinfo$??0?$dynamic_bitset@KV?$allocator@K@std@@@boost@@QAE@IKABV?$allocator@K@std@@@Z DD 019930522H
	DD	01H
	DD	FLAT:__unwindtable$??0?$dynamic_bitset@KV?$allocator@K@std@@@boost@@QAE@IKABV?$allocator@K@std@@@Z
	DD	2 DUP(00H)
	DD	2 DUP(00H)
	DD	00H
	DD	01H
xdata$x	ENDS
;	COMDAT voltbl
voltbl	SEGMENT
_volmd	DB	016H
voltbl	ENDS
;	COMDAT xdata$x
xdata$x	SEGMENT
__unwindtable$?_Orphan_range_locked@?$vector@KV?$allocator@K@std@@@std@@ABEXPAK0@Z DD 0ffffffffH
