; Listing generated by Microsoft (R) Optimizing Compiler Version 19.33.31629.0 

	TITLE	D:\__Repos\__MyRepos\Raven_VS2022\Raven\Debug\main.obj
	.686P
	.XMM
	include listing.inc
	.model	flat

INCLUDELIB LIBCMTD
INCLUDELIB OLDNAMES

PUBLIC	?g_szApplicationName@@3PADA			; g_szApplicationName
PUBLIC	?g_szWindowClassName@@3PADA			; g_szWindowClassName
PUBLIC	?g_pRaven@@3PAVRaven_Game@@A			; g_pRaven
_BSS	SEGMENT
?g_pRaven@@3PAVRaven_Game@@A DD 01H DUP (?)		; g_pRaven
_BSS	ENDS
_DATA	SEGMENT
?g_szApplicationName@@3PADA DD FLAT:$SG173569		; g_szApplicationName
?g_szWindowClassName@@3PADA DD FLAT:$SG173571		; g_szWindowClassName
_DATA	ENDS
CONST	SEGMENT
?colors@@3QBKB DD 0ffH					; colors
	DD	0ff0000H
	DD	0ff00H
	DD	00H
	DD	0c8c8ffH
	DD	0c8c8c8H
	DD	0ffffH
	DD	0aaffH
	DD	0aa00ffH
	DD	05a85H
	DD	0ffffffH
	DD	06400H
	DD	0ffff00H
	DD	0c8c8c8H
	DD	0e6e6ffH
$SG173569 DB	0ccH, 0b9H, 0bfH, 0cbH, 0b4H, 0f3H, 0d5H, 0bdH, 00H
$SG173648 DB	00H
	ORG $+2
$SG173571 DB	'MyWindowClass', 00H
	ORG $+2
$SG173645 DB	'map', 00H
$SG173646 DB	'Raven map file (*.map)', 00H
	ORG $+1
$SG173647 DB	'Filename: ', 00H
	ORG $+1
$SG173701 DB	'Error', 00H
	ORG $+2
$SG173702 DB	'Registration Failed!', 00H
	ORG $+3
$SG173705 DB	'Error!', 00H
	ORG $+1
$SG173706 DB	'CreateWindowEx Failed!', 00H
	ORG $+1
$SG182711 DB	'invalid argument', 00H
	ORG $+3
$SG182712 DB	'%s', 00H
	ORG $+1
$SG182713 DB	'C:\Program Files\Microsoft Visual Studio\2022\Community\'
	DB	'VC\Tools\MSVC\14.33.31629\include\xmemory', 00H
	ORG $+2
$SG182715 DB	00H, 00H
	ORG $+2
$SG182714 DB	'C', 00H, ':', 00H, '\', 00H, 'P', 00H, 'r', 00H, 'o', 00H
	DB	'g', 00H, 'r', 00H, 'a', 00H, 'm', 00H, ' ', 00H, 'F', 00H, 'i'
	DB	00H, 'l', 00H, 'e', 00H, 's', 00H, '\', 00H, 'M', 00H, 'i', 00H
	DB	'c', 00H, 'r', 00H, 'o', 00H, 's', 00H, 'o', 00H, 'f', 00H, 't'
	DB	00H, ' ', 00H, 'V', 00H, 'i', 00H, 's', 00H, 'u', 00H, 'a', 00H
	DB	'l', 00H, ' ', 00H, 'S', 00H, 't', 00H, 'u', 00H, 'd', 00H, 'i'
	DB	00H, 'o', 00H, '\', 00H, '2', 00H, '0', 00H, '2', 00H, '2', 00H
	DB	'\', 00H, 'C', 00H, 'o', 00H, 'm', 00H, 'm', 00H, 'u', 00H, 'n'
	DB	00H, 'i', 00H, 't', 00H, 'y', 00H, '\', 00H, 'V', 00H, 'C', 00H
	DB	'\', 00H, 'T', 00H, 'o', 00H, 'o', 00H, 'l', 00H, 's', 00H, '\'
	DB	00H, 'M', 00H, 'S', 00H, 'V', 00H, 'C', 00H, '\', 00H, '1', 00H
	DB	'4', 00H, '.', 00H, '3', 00H, '3', 00H, '.', 00H, '3', 00H, '1'
	DB	00H, '6', 00H, '2', 00H, '9', 00H, '\', 00H, 'i', 00H, 'n', 00H
	DB	'c', 00H, 'l', 00H, 'u', 00H, 'd', 00H, 'e', 00H, '\', 00H, 'x'
	DB	00H, 'm', 00H, 'e', 00H, 'm', 00H, 'o', 00H, 'r', 00H, 'y', 00H
	DB	00H, 00H
$SG182716 DB	'"', 00H, 'i', 00H, 'n', 00H, 'v', 00H, 'a', 00H, 'l', 00H
	DB	'i', 00H, 'd', 00H, ' ', 00H, 'a', 00H, 'r', 00H, 'g', 00H, 'u'
	DB	00H, 'm', 00H, 'e', 00H, 'n', 00H, 't', 00H, '"', 00H, 00H, 00H
	ORG $+6
$SG182820 DB	'C:\Program Files\Microsoft Visual Studio\2022\Community\'
	DB	'VC\Tools\MSVC\14.33.31629\include\xlocale', 00H
CONST	ENDS
PUBLIC	?__empty_global_delete@@YAXPAX@Z		; __empty_global_delete
PUBLIC	?__empty_global_delete@@YAXPAXI@Z		; __empty_global_delete
PUBLIC	_WinMain@16
PUBLIC	??2@YAPAXIPAX@Z					; operator new
PUBLIC	??0exception@std@@QAE@QBDH@Z			; std::exception::exception
PUBLIC	??0exception@std@@QAE@ABV01@@Z			; std::exception::exception
PUBLIC	??1exception@std@@UAE@XZ			; std::exception::~exception
PUBLIC	?what@exception@std@@UBEPBDXZ			; std::exception::what
PUBLIC	??_Gexception@std@@UAEPAXI@Z			; std::exception::`scalar deleting destructor'
PUBLIC	??0bad_alloc@std@@AAE@QBD@Z			; std::bad_alloc::bad_alloc
PUBLIC	??1bad_alloc@std@@UAE@XZ			; std::bad_alloc::~bad_alloc
PUBLIC	??0bad_alloc@std@@QAE@ABV01@@Z			; std::bad_alloc::bad_alloc
PUBLIC	??_Gbad_alloc@std@@UAEPAXI@Z			; std::bad_alloc::`scalar deleting destructor'
PUBLIC	??0bad_array_new_length@std@@QAE@XZ		; std::bad_array_new_length::bad_array_new_length
PUBLIC	??1bad_array_new_length@std@@UAE@XZ		; std::bad_array_new_length::~bad_array_new_length
PUBLIC	??0bad_array_new_length@std@@QAE@ABV01@@Z	; std::bad_array_new_length::bad_array_new_length
PUBLIC	??_Gbad_array_new_length@std@@UAEPAXI@Z		; std::bad_array_new_length::`scalar deleting destructor'
PUBLIC	?_Throw_bad_array_new_length@std@@YAXXZ		; std::_Throw_bad_array_new_length
PUBLIC	?max@?$numeric_limits@H@std@@SAHXZ		; std::numeric_limits<int>::max
PUBLIC	?_Allocate@_Default_allocate_traits@std@@SAPAXI@Z ; std::_Default_allocate_traits::_Allocate
PUBLIC	?_Adjust_manually_vector_aligned@std@@YAXAAPAXAAI@Z ; std::_Adjust_manually_vector_aligned
PUBLIC	??0_Container_proxy@std@@QAE@PAU_Container_base12@1@@Z ; std::_Container_proxy::_Container_proxy
PUBLIC	??0_Container_base12@std@@QAE@XZ		; std::_Container_base12::_Container_base12
PUBLIC	?_Orphan_all@_Container_base12@std@@QAEXXZ	; std::_Container_base12::_Orphan_all
PUBLIC	?_Orphan_all_unlocked_v3@_Container_base12@std@@AAEXXZ ; std::_Container_base12::_Orphan_all_unlocked_v3
PUBLIC	?_Orphan_all_locked_v3@_Container_base12@std@@AAEXXZ ; std::_Container_base12::_Orphan_all_locked_v3
PUBLIC	?_Release@_Basic_container_proxy_ptr12@std@@QAEXXZ ; std::_Basic_container_proxy_ptr12::_Release
PUBLIC	??0_Basic_container_proxy_ptr12@std@@IAE@XZ	; std::_Basic_container_proxy_ptr12::_Basic_container_proxy_ptr12
PUBLIC	?copy@?$_Char_traits@DH@std@@SAPADQADQBDI@Z	; std::_Char_traits<char,int>::copy
PUBLIC	?move@?$_Char_traits@DH@std@@SAPADQADQBDI@Z	; std::_Char_traits<char,int>::move
PUBLIC	?length@?$_Narrow_char_traits@DH@std@@SAIQBD@Z	; std::_Narrow_char_traits<char,int>::length
PUBLIC	?assign@?$_Narrow_char_traits@DH@std@@SAXAADABD@Z ; std::_Narrow_char_traits<char,int>::assign
PUBLIC	?_Xlen_string@std@@YAXXZ			; std::_Xlen_string
PUBLIC	??0?$allocator@D@std@@QAE@XZ			; std::allocator<char>::allocator<char>
PUBLIC	?deallocate@?$allocator@D@std@@QAEXQADI@Z	; std::allocator<char>::deallocate
PUBLIC	?allocate@?$allocator@D@std@@QAEPADI@Z		; std::allocator<char>::allocate
PUBLIC	?max_size@?$_Default_allocator_traits@V?$allocator@D@std@@@std@@SAIABV?$allocator@D@2@@Z ; std::_Default_allocator_traits<std::allocator<char> >::max_size
PUBLIC	??0?$_String_val@U?$_Simple_types@D@std@@@std@@QAE@XZ ; std::_String_val<std::_Simple_types<char> >::_String_val<std::_Simple_types<char> >
PUBLIC	?_Large_string_engaged@?$_String_val@U?$_Simple_types@D@std@@@std@@QBE_NXZ ; std::_String_val<std::_Simple_types<char> >::_Large_string_engaged
PUBLIC	??0_Bxty@?$_String_val@U?$_Simple_types@D@std@@@std@@QAE@XZ ; std::_String_val<std::_Simple_types<char> >::_Bxty::_Bxty
PUBLIC	??1_Bxty@?$_String_val@U?$_Simple_types@D@std@@@std@@QAE@XZ ; std::_String_val<std::_Simple_types<char> >::_Bxty::~_Bxty
PUBLIC	??1?$_String_val@U?$_Simple_types@D@std@@@std@@QAE@XZ ; std::_String_val<std::_Simple_types<char> >::~_String_val<std::_Simple_types<char> >
PUBLIC	??0?$basic_string@DU?$char_traits@D@std@@V?$allocator@D@2@@std@@QAE@QBD@Z ; std::basic_string<char,std::char_traits<char>,std::allocator<char> >::basic_string<char,std::char_traits<char>,std::allocator<char> >
PUBLIC	??1?$basic_string@DU?$char_traits@D@std@@V?$allocator@D@2@@std@@QAE@XZ ; std::basic_string<char,std::char_traits<char>,std::allocator<char> >::~basic_string<char,std::char_traits<char>,std::allocator<char> >
PUBLIC	?max_size@?$basic_string@DU?$char_traits@D@std@@V?$allocator@D@2@@std@@QBEIXZ ; std::basic_string<char,std::char_traits<char>,std::allocator<char> >::max_size
PUBLIC	?_Calculate_growth@?$basic_string@DU?$char_traits@D@std@@V?$allocator@D@2@@std@@CAIIII@Z ; std::basic_string<char,std::char_traits<char>,std::allocator<char> >::_Calculate_growth
PUBLIC	?_Calculate_growth@?$basic_string@DU?$char_traits@D@std@@V?$allocator@D@2@@std@@ABEII@Z ; std::basic_string<char,std::char_traits<char>,std::allocator<char> >::_Calculate_growth
PUBLIC	?_Tidy_deallocate@?$basic_string@DU?$char_traits@D@std@@V?$allocator@D@2@@std@@AAEXXZ ; std::basic_string<char,std::char_traits<char>,std::allocator<char> >::_Tidy_deallocate
PUBLIC	?_Getal@?$basic_string@DU?$char_traits@D@std@@V?$allocator@D@2@@std@@AAEAAV?$allocator@D@2@XZ ; std::basic_string<char,std::char_traits<char>,std::allocator<char> >::_Getal
PUBLIC	?_Getal@?$basic_string@DU?$char_traits@D@std@@V?$allocator@D@2@@std@@ABEABV?$allocator@D@2@XZ ; std::basic_string<char,std::char_traits<char>,std::allocator<char> >::_Getal
PUBLIC	?_Get_first@?$_Compressed_pair@V?$allocator@D@std@@V?$_String_val@U?$_Simple_types@D@std@@@2@$00@std@@QAEAAV?$allocator@D@2@XZ ; std::_Compressed_pair<std::allocator<char>,std::_String_val<std::_Simple_types<char> >,1>::_Get_first
PUBLIC	?_Get_first@?$_Compressed_pair@V?$allocator@D@std@@V?$_String_val@U?$_Simple_types@D@std@@@2@$00@std@@QBEABV?$allocator@D@2@XZ ; std::_Compressed_pair<std::allocator<char>,std::_String_val<std::_Simple_types<char> >,1>::_Get_first
PUBLIC	??1?$_Compressed_pair@V?$allocator@D@std@@V?$_String_val@U?$_Simple_types@D@std@@@2@$00@std@@QAE@XZ ; std::_Compressed_pair<std::allocator<char>,std::_String_val<std::_Simple_types<char> >,1>::~_Compressed_pair<std::allocator<char>,std::_String_val<std::_Simple_types<char> >,1>
PUBLIC	??0id@locale@std@@QAE@I@Z			; std::locale::id::id
PUBLIC	?ReadyForNextFrame@PrecisionTimer@@QAE_NXZ	; PrecisionTimer::ReadyForNextFrame
PUBLIC	?RedrawWindow@@YAXPAUHWND__@@_N@Z		; RedrawWindow
PUBLIC	?StartDrawing@Cgdi@@QAEXPAUHDC__@@@Z		; Cgdi::StartDrawing
PUBLIC	?StopDrawing@Cgdi@@QAEXPAUHDC__@@@Z		; Cgdi::StopDrawing
PUBLIC	??0CSink@@AAE@XZ				; CSink::CSink
PUBLIC	?Instance@CSink@@SAPAV1@XZ			; CSink::Instance
PUBLIC	?TogglePause@Raven_Game@@QAEXXZ			; Raven_Game::TogglePause
PUBLIC	??_GRaven_Game@@QAEPAXI@Z			; Raven_Game::`scalar deleting destructor'
PUBLIC	?WindowProc@@YGJPAUHWND__@@IIJ@Z		; WindowProc
PUBLIC	??$?6$$BY0L@D@CSink@@QAEAAV0@AAY0L@$$CBD@Z	; CSink::operator<<<char [11]>
PUBLIC	??$?6$$BY0BAE@D@CSink@@QAEAAV0@AAY0BAE@$$CBD@Z	; CSink::operator<<<char [260]>
PUBLIC	??$?6$$BY00D@CSink@@QAEAAV0@AAY00$$CBD@Z	; CSink::operator<<<char [1]>
PUBLIC	??$min@I@std@@YAABIABI0@Z			; std::min<unsigned int>
PUBLIC	?allocate@?$allocator@U_Container_proxy@std@@@std@@QAEPAU_Container_proxy@2@I@Z ; std::allocator<std::_Container_proxy>::allocate
PUBLIC	??$_Delete_plain_internal@V?$allocator@U_Container_proxy@std@@@std@@@std@@YAXAAV?$allocator@U_Container_proxy@std@@@0@QAU_Container_proxy@0@@Z ; std::_Delete_plain_internal<std::allocator<std::_Container_proxy> >
PUBLIC	??$_Convert_size@I@std@@YAII@Z			; std::_Convert_size<unsigned int>
PUBLIC	??$?0D@?$allocator@U_Container_proxy@std@@@std@@QAE@ABV?$allocator@D@1@@Z ; std::allocator<std::_Container_proxy>::allocator<std::_Container_proxy><char>
PUBLIC	??$?0$$V@?$_Compressed_pair@V?$allocator@D@std@@V?$_String_val@U?$_Simple_types@D@std@@@2@$00@std@@QAE@U_Zero_then_variadic_args_t@1@@Z ; std::_Compressed_pair<std::allocator<char>,std::_String_val<std::_Simple_types<char> >,1>::_Compressed_pair<std::allocator<char>,std::_String_val<std::_Simple_types<char> >,1><>
PUBLIC	??$_Construct@$00PBD@?$basic_string@DU?$char_traits@D@std@@V?$allocator@D@2@@std@@AAEXQBDI@Z ; std::basic_string<char,std::char_traits<char>,std::allocator<char> >::_Construct<1,char const *>
PUBLIC	??$_Destroy_in_place@PAD@std@@YAXAAPAD@Z	; std::_Destroy_in_place<char *>
PUBLIC	??$_Unfancy@D@std@@YAPADPAD@Z			; std::_Unfancy<char>
PUBLIC	??$max@I@std@@YAABIABI0@Z			; std::max<unsigned int>
PUBLIC	??$_Deallocate@$07$0A@@std@@YAXPAXI@Z		; std::_Deallocate<8,0>
PUBLIC	??$_Deallocate_plain@V?$allocator@U_Container_proxy@std@@@std@@@std@@YAXAAV?$allocator@U_Container_proxy@std@@@0@QAU_Container_proxy@0@@Z ; std::_Deallocate_plain<std::allocator<std::_Container_proxy> >
PUBLIC	??$_Unfancy@U_Container_proxy@std@@@std@@YAPAU_Container_proxy@0@PAU10@@Z ; std::_Unfancy<std::_Container_proxy>
PUBLIC	??$_Construct_in_place@U_Container_proxy@std@@PAU_Container_base12@2@@std@@YAXAAU_Container_proxy@0@$$QAPAU_Container_base12@0@@Z ; std::_Construct_in_place<std::_Container_proxy,std::_Container_base12 *>
PUBLIC	??0?$_Container_proxy_ptr12@V?$allocator@U_Container_proxy@std@@@std@@@std@@QAE@AAV?$allocator@U_Container_proxy@std@@@1@AAU_Container_base12@1@@Z ; std::_Container_proxy_ptr12<std::allocator<std::_Container_proxy> >::_Container_proxy_ptr12<std::allocator<std::_Container_proxy> >
PUBLIC	??1?$_Container_proxy_ptr12@V?$allocator@U_Container_proxy@std@@@std@@@std@@QAE@XZ ; std::_Container_proxy_ptr12<std::allocator<std::_Container_proxy> >::~_Container_proxy_ptr12<std::allocator<std::_Container_proxy> >
PUBLIC	??$_Construct_in_place@PADABQAD@std@@YAXAAPADABQAD@Z ; std::_Construct_in_place<char *,char * const &>
PUBLIC	??$addressof@PAD@std@@YAPAPADAAPAD@Z		; std::addressof<char *>
PUBLIC	??$_Voidify_iter@PAPAD@std@@YAPAXPAPAD@Z	; std::_Voidify_iter<char * *>
PUBLIC	??$addressof@U_Container_base12@std@@@std@@YAPAU_Container_base12@0@AAU10@@Z ; std::addressof<std::_Container_base12>
PUBLIC	??$_Get_size_of_n@$07@std@@YAII@Z		; std::_Get_size_of_n<8>
PUBLIC	??$_Allocate@$07U_Default_allocate_traits@std@@$0A@@std@@YAPAXI@Z ; std::_Allocate<8,std::_Default_allocate_traits,0>
PUBLIC	??$_Get_size_of_n@$00@std@@YAII@Z		; std::_Get_size_of_n<1>
PUBLIC	?deallocate@?$_Default_allocator_traits@V?$allocator@U_Container_proxy@std@@@std@@@std@@SAXAAV?$allocator@U_Container_proxy@std@@@2@QAU_Container_proxy@2@I@Z ; std::_Default_allocator_traits<std::allocator<std::_Container_proxy> >::deallocate
PUBLIC	??$addressof@U_Container_proxy@std@@@std@@YAPAU_Container_proxy@0@AAU10@@Z ; std::addressof<std::_Container_proxy>
PUBLIC	??$_Voidify_iter@PAU_Container_proxy@std@@@std@@YAPAXPAU_Container_proxy@0@@Z ; std::_Voidify_iter<std::_Container_proxy *>
PUBLIC	??$forward@PAU_Container_base12@std@@@std@@YA$$QAPAU_Container_base12@0@AAPAU10@@Z ; std::forward<std::_Container_base12 *>
PUBLIC	??$forward@ABQAD@std@@YAABQADABQAD@Z		; std::forward<char * const &>
PUBLIC	??$_Allocate_manually_vector_aligned@U_Default_allocate_traits@std@@@std@@YAPAXI@Z ; std::_Allocate_manually_vector_aligned<std::_Default_allocate_traits>
PUBLIC	??_7exception@std@@6B@				; std::exception::`vftable'
PUBLIC	??_C@_0BC@EOODALEL@Unknown?5exception@		; `string'
PUBLIC	??_7bad_alloc@std@@6B@				; std::bad_alloc::`vftable'
PUBLIC	??_7bad_array_new_length@std@@6B@		; std::bad_array_new_length::`vftable'
PUBLIC	??_C@_0BF@KINCDENJ@bad?5array?5new?5length@	; `string'
PUBLIC	__TI3?AVbad_array_new_length@std@@
PUBLIC	__CTA3?AVbad_array_new_length@std@@
PUBLIC	??_R0?AVbad_array_new_length@std@@@8		; std::bad_array_new_length `RTTI Type Descriptor'
PUBLIC	__CT??_R0?AVbad_array_new_length@std@@@8??0bad_array_new_length@std@@QAE@ABV01@@Z12
PUBLIC	??_R0?AVbad_alloc@std@@@8			; std::bad_alloc `RTTI Type Descriptor'
PUBLIC	__CT??_R0?AVbad_alloc@std@@@8??0bad_alloc@std@@QAE@ABV01@@Z12
PUBLIC	??_R0?AVexception@std@@@8			; std::exception `RTTI Type Descriptor'
PUBLIC	__CT??_R0?AVexception@std@@@8??0exception@std@@QAE@ABV01@@Z12
PUBLIC	??_C@_0BB@FCMFBGOM@invalid?5argument@		; `string'
PUBLIC	??_C@_02DKCKIIND@?$CFs@				; `string'
PUBLIC	??_C@_0GC@GFIHGGPN@C?3?2Program?5Files?2Microsoft?5Visu@ ; `string'
PUBLIC	??_C@_1ME@KDCJLOP@?$AAC?$AA?3?$AA?2?$AAP?$AAr?$AAo?$AAg?$AAr?$AAa?$AAm?$AA?5?$AAF?$AAi?$AAl?$AAe@ ; `string'
PUBLIC	??_C@_11LOCGONAA@@				; `string'
PUBLIC	??_C@_1CG@JNLFBNGN@?$AA?$CC?$AAi?$AAn?$AAv?$AAa?$AAl?$AAi?$AAd?$AA?5?$AAa?$AAr?$AAg?$AAu?$AAm?$AAe@ ; `string'
PUBLIC	??_C@_0BA@JFNIOLAK@string?5too?5long@		; `string'
PUBLIC	??_R0?AVruntime_error@std@@@8			; std::runtime_error `RTTI Type Descriptor'
PUBLIC	??_C@_0DH@OCBBBONP@PrecisionTimer?3?3ReadyForNextFra@ ; `string'
PUBLIC	??_C@_1HO@MGBDJLEO@?$AAD?$AA?3?$AA?2?$AA_?$AA_?$AAR?$AAe?$AAp?$AAo?$AAs?$AA?2?$AA_?$AA_?$AAM?$AAy@ ; `string'
PUBLIC	??_C@_1JA@JKGMJBNB@?$AAm?$AA_?$AAN?$AAo?$AAr?$AAm?$AAa?$AAl?$AAF?$AAP?$AAS?$AA?5?$AA?$CG?$AA?$CG?$AA?5@ ; `string'
PUBLIC	??_C@_1GK@OJJIPFJO@?$AAD?$AA?3?$AA?2?$AA_?$AA_?$AAR?$AAe?$AAp?$AAo?$AAs?$AA?2?$AA_?$AA_?$AAM?$AAy@ ; `string'
PUBLIC	??_C@_1BM@MMNOPHKK@?$AAm?$AA_?$AAh?$AAd?$AAc?$AA?5?$AA?$DN?$AA?$DN?$AA?5?$AAN?$AAU?$AAL?$AAL@ ; `string'
PUBLIC	??_C@_1BI@BMAFMIJF@?$AAh?$AAd?$AAc?$AA?5?$AA?$CB?$AA?$DN?$AA?5?$AAN?$AAU?$AAL?$AAL@ ; `string'
PUBLIC	?instance@?1??Instance@CSink@@SAPAV2@XZ@4V2@A	; `CSink::Instance'::`2'::instance
PUBLIC	?$TSS0@?1??Instance@CSink@@SAPAV2@XZ@4HA	; `CSink::Instance'::`2'::$TSS0
PUBLIC	?id@?$codecvt@DDU_Mbstatet@@@std@@2V0locale@2@A	; std::codecvt<char,char,_Mbstatet>::id
PUBLIC	??_C@_0DG@KGHKKGBC@null?5pointer?5cannot?5point?5to?5a?5@ ; `string'
PUBLIC	??_C@_1HA@FACCKGGH@?$AA?$CC?$AAn?$AAu?$AAl?$AAl?$AA?5?$AAp?$AAo?$AAi?$AAn?$AAt?$AAe?$AAr?$AA?5?$AAc@ ; `string'
PUBLIC	?id@?$num_get@DV?$istreambuf_iterator@DU?$char_traits@D@std@@@std@@@std@@2V0locale@2@A ; std::num_get<char,std::istreambuf_iterator<char,std::char_traits<char> > >::id
PUBLIC	?id@?$numpunct@D@std@@2V0locale@2@A		; std::numpunct<char>::id
PUBLIC	?id@?$num_put@DV?$ostreambuf_iterator@DU?$char_traits@D@std@@@std@@@std@@2V0locale@2@A ; std::num_put<char,std::ostreambuf_iterator<char,std::char_traits<char> > >::id
PUBLIC	??_R4exception@std@@6B@				; std::exception::`RTTI Complete Object Locator'
PUBLIC	??_R3exception@std@@8				; std::exception::`RTTI Class Hierarchy Descriptor'
PUBLIC	??_R2exception@std@@8				; std::exception::`RTTI Base Class Array'
PUBLIC	??_R1A@?0A@EA@exception@std@@8			; std::exception::`RTTI Base Class Descriptor at (0,-1,0,64)'
PUBLIC	??_R4bad_alloc@std@@6B@				; std::bad_alloc::`RTTI Complete Object Locator'
PUBLIC	??_R3bad_alloc@std@@8				; std::bad_alloc::`RTTI Class Hierarchy Descriptor'
PUBLIC	??_R2bad_alloc@std@@8				; std::bad_alloc::`RTTI Base Class Array'
PUBLIC	??_R1A@?0A@EA@bad_alloc@std@@8			; std::bad_alloc::`RTTI Base Class Descriptor at (0,-1,0,64)'
PUBLIC	??_R4bad_array_new_length@std@@6B@		; std::bad_array_new_length::`RTTI Complete Object Locator'
PUBLIC	??_R3bad_array_new_length@std@@8		; std::bad_array_new_length::`RTTI Class Hierarchy Descriptor'
PUBLIC	??_R2bad_array_new_length@std@@8		; std::bad_array_new_length::`RTTI Base Class Array'
PUBLIC	??_R1A@?0A@EA@bad_array_new_length@std@@8	; std::bad_array_new_length::`RTTI Base Class Descriptor at (0,-1,0,64)'
PUBLIC	__real@0000000000000000
PUBLIC	__real@404e000000000000
EXTRN	??2@YAPAXI@Z:PROC				; operator new
EXTRN	??3@YAXPAXI@Z:PROC				; operator delete
EXTRN	__Init_thread_header:PROC
EXTRN	__Init_thread_abort:PROC
EXTRN	__Init_thread_footer:PROC
EXTRN	__invalid_parameter:PROC
EXTRN	_memcpy:PROC
EXTRN	_memmove:PROC
EXTRN	_strlen:PROC
EXTRN	__imp__QueryPerformanceCounter@4:PROC
EXTRN	__imp__Sleep@4:PROC
EXTRN	__imp__BitBlt@36:PROC
EXTRN	__imp__CreateCompatibleBitmap@12:PROC
EXTRN	__imp__CreateCompatibleDC@4:PROC
EXTRN	__imp__DeleteDC@4:PROC
EXTRN	__imp__DeleteObject@4:PROC
EXTRN	__imp__GetStockObject@4:PROC
EXTRN	__imp__SelectObject@8:PROC
EXTRN	__imp__TranslateMessage@4:PROC
EXTRN	__imp__DispatchMessageA@4:PROC
EXTRN	__imp__PeekMessageA@20:PROC
EXTRN	__imp__SendMessageA@16:PROC
EXTRN	__imp__DefWindowProcA@16:PROC
EXTRN	__imp__PostQuitMessage@4:PROC
EXTRN	__imp__UnregisterClassA@8:PROC
EXTRN	__imp__RegisterClassExA@4:PROC
EXTRN	__imp__CreateWindowExA@48:PROC
EXTRN	__imp__ShowWindow@8:PROC
EXTRN	__imp__GetSystemMetrics@4:PROC
EXTRN	__imp__UpdateWindow@4:PROC
EXTRN	__imp__GetDC@4:PROC
EXTRN	__imp__ReleaseDC@8:PROC
EXTRN	__imp__BeginPaint@8:PROC
EXTRN	__imp__EndPaint@8:PROC
EXTRN	__imp__InvalidateRect@12:PROC
EXTRN	__imp__GetClientRect@8:PROC
EXTRN	__imp__MessageBoxA@16:PROC
EXTRN	__imp__LoadCursorA@8:PROC
EXTRN	__imp__LoadIconA@8:PROC
EXTRN	_srand:PROC
EXTRN	__time64:PROC
EXTRN	__CrtDbgReport:PROC
EXTRN	??0_Lockit@std@@QAE@H@Z:PROC			; std::_Lockit::_Lockit
EXTRN	??1_Lockit@std@@QAE@XZ:PROC			; std::_Lockit::~_Lockit
EXTRN	?_Xlength_error@std@@YAXPBD@Z:PROC		; std::_Xlength_error
EXTRN	___std_exception_copy:PROC
EXTRN	___std_exception_destroy:PROC
EXTRN	??_Eexception@std@@UAEPAXI@Z:PROC		; std::exception::`vector deleting destructor'
EXTRN	??_Ebad_alloc@std@@UAEPAXI@Z:PROC		; std::bad_alloc::`vector deleting destructor'
EXTRN	??_Ebad_array_new_length@std@@UAEPAXI@Z:PROC	; std::bad_array_new_length::`vector deleting destructor'
EXTRN	__wassert:PROC
EXTRN	??0PrecisionTimer@@QAE@N@Z:PROC			; PrecisionTimer::PrecisionTimer
EXTRN	?Start@PrecisionTimer@@QAEXXZ:PROC		; PrecisionTimer::Start
EXTRN	?CheckMenuItemAppropriately@@YAXPAUHWND__@@I_N@Z:PROC ; CheckMenuItemAppropriately
EXTRN	?ErrorBox@@YAXAAV?$basic_string@DU?$char_traits@D@std@@V?$allocator@D@2@@std@@@Z:PROC ; ErrorBox
EXTRN	?FileOpenDlg@@YAHPAUHWND__@@PAD1ABV?$basic_string@DU?$char_traits@D@std@@V?$allocator@D@2@@std@@2@Z:PROC ; FileOpenDlg
EXTRN	?Instance@Cgdi@@SAPAV1@XZ:PROC			; Cgdi::Instance
EXTRN	?Instance@Raven_UserOptions@@SAPAV1@XZ:PROC	; Raven_UserOptions::Instance
EXTRN	??0Raven_Game@@QAE@XZ:PROC			; Raven_Game::Raven_Game
EXTRN	??1Raven_Game@@QAE@XZ:PROC			; Raven_Game::~Raven_Game
EXTRN	?Render@Raven_Game@@QAEXXZ:PROC			; Raven_Game::Render
EXTRN	?Update@Raven_Game@@QAEXXZ:PROC			; Raven_Game::Update
EXTRN	?LoadMap@Raven_Game@@QAE_NABV?$basic_string@DU?$char_traits@D@std@@V?$allocator@D@2@@std@@@Z:PROC ; Raven_Game::LoadMap
EXTRN	?AddBots@Raven_Game@@QAEXI@Z:PROC		; Raven_Game::AddBots
EXTRN	?RemoveBot@Raven_Game@@QAEXXZ:PROC		; Raven_Game::RemoveBot
EXTRN	?ClickRightMouseButton@Raven_Game@@QAEXUtagPOINTS@@@Z:PROC ; Raven_Game::ClickRightMouseButton
EXTRN	?ClickLeftMouseButton@Raven_Game@@QAEXUtagPOINTS@@@Z:PROC ; Raven_Game::ClickLeftMouseButton
EXTRN	?ExorciseAnyPossessedBot@Raven_Game@@QAEXXZ:PROC ; Raven_Game::ExorciseAnyPossessedBot
EXTRN	?ChangeWeaponOfPossessedBot@Raven_Game@@QBEXI@Z:PROC ; Raven_Game::ChangeWeaponOfPossessedBot
EXTRN	@_RTC_CheckStackVars@8:PROC
EXTRN	@__security_check_cookie@4:PROC
EXTRN	__CxxThrowException@8:PROC
EXTRN	__RTC_CheckEsp:PROC
EXTRN	__RTC_InitBase:PROC
EXTRN	__RTC_Shutdown:PROC
EXTRN	__RTC_UninitUse:PROC
EXTRN	___CxxFrameHandler3:PROC
EXTRN	__ltod3:PROC
EXTRN	__Init_thread_epoch:DWORD
EXTRN	??_7type_info@@6B@:QWORD			; type_info::`vftable'
EXTRN	___security_cookie:DWORD
EXTRN	__fltused:DWORD
EXTRN	__tls_array:DWORD
EXTRN	__tls_index:DWORD
;	COMDAT ?instance@?1??Instance@CSink@@SAPAV2@XZ@4V2@A
_BSS	SEGMENT
?instance@?1??Instance@CSink@@SAPAV2@XZ@4V2@A DB 01H DUP (?) ; `CSink::Instance'::`2'::instance
_BSS	ENDS
;	COMDAT ?$TSS0@?1??Instance@CSink@@SAPAV2@XZ@4HA
_BSS	SEGMENT
?$TSS0@?1??Instance@CSink@@SAPAV2@XZ@4HA DD 01H DUP (?)	; `CSink::Instance'::`2'::$TSS0
_BSS	ENDS
;	COMDAT ?cxClient@?1??WindowProc@@YGJPAUHWND__@@IIJ@Z@4HA
_BSS	SEGMENT
?cxClient@?1??WindowProc@@YGJPAUHWND__@@IIJ@Z@4HA DD 01H DUP (?) ; `WindowProc'::`2'::cxClient
_BSS	ENDS
;	COMDAT ?cyClient@?1??WindowProc@@YGJPAUHWND__@@IIJ@Z@4HA
_BSS	SEGMENT
?cyClient@?1??WindowProc@@YGJPAUHWND__@@IIJ@Z@4HA DD 01H DUP (?) ; `WindowProc'::`2'::cyClient
_BSS	ENDS
;	COMDAT ?hdcBackBuffer@?1??WindowProc@@YGJPAUHWND__@@IIJ@Z@4PAUHDC__@@A
_BSS	SEGMENT
?hdcBackBuffer@?1??WindowProc@@YGJPAUHWND__@@IIJ@Z@4PAUHDC__@@A DD 01H DUP (?) ; `WindowProc'::`2'::hdcBackBuffer
_BSS	ENDS
;	COMDAT ?hBitmap@?1??WindowProc@@YGJPAUHWND__@@IIJ@Z@4PAUHBITMAP__@@A
_BSS	SEGMENT
?hBitmap@?1??WindowProc@@YGJPAUHWND__@@IIJ@Z@4PAUHBITMAP__@@A DD 01H DUP (?) ; `WindowProc'::`2'::hBitmap
_BSS	ENDS
;	COMDAT ?hOldBitmap@?1??WindowProc@@YGJPAUHWND__@@IIJ@Z@4PAUHBITMAP__@@A
_BSS	SEGMENT
?hOldBitmap@?1??WindowProc@@YGJPAUHWND__@@IIJ@Z@4PAUHBITMAP__@@A DD 01H DUP (?) ; `WindowProc'::`2'::hOldBitmap
_BSS	ENDS
;	COMDAT ?szFileName@?1??WindowProc@@YGJPAUHWND__@@IIJ@Z@4PADA
_BSS	SEGMENT
?szFileName@?1??WindowProc@@YGJPAUHWND__@@IIJ@Z@4PADA DB 0104H DUP (?) ; `WindowProc'::`2'::szFileName
_BSS	ENDS
;	COMDAT ?szTitleName@?1??WindowProc@@YGJPAUHWND__@@IIJ@Z@4PADA
_BSS	SEGMENT
?szTitleName@?1??WindowProc@@YGJPAUHWND__@@IIJ@Z@4PADA DB 0104H DUP (?) ; `WindowProc'::`2'::szTitleName
_BSS	ENDS
;	COMDAT ?id@?$codecvt@DDU_Mbstatet@@@std@@2V0locale@2@A
_BSS	SEGMENT
?id@?$codecvt@DDU_Mbstatet@@@std@@2V0locale@2@A DD 01H DUP (?) ; std::codecvt<char,char,_Mbstatet>::id
_BSS	ENDS
;	COMDAT ?id@?$num_get@DV?$istreambuf_iterator@DU?$char_traits@D@std@@@std@@@std@@2V0locale@2@A
_BSS	SEGMENT
?id@?$num_get@DV?$istreambuf_iterator@DU?$char_traits@D@std@@@std@@@std@@2V0locale@2@A DD 01H DUP (?) ; std::num_get<char,std::istreambuf_iterator<char,std::char_traits<char> > >::id
_BSS	ENDS
;	COMDAT ?id@?$numpunct@D@std@@2V0locale@2@A
_BSS	SEGMENT
?id@?$numpunct@D@std@@2V0locale@2@A DD 01H DUP (?)	; std::numpunct<char>::id
_BSS	ENDS
;	COMDAT ?id@?$num_put@DV?$ostreambuf_iterator@DU?$char_traits@D@std@@@std@@@std@@2V0locale@2@A
_BSS	SEGMENT
?id@?$num_put@DV?$ostreambuf_iterator@DU?$char_traits@D@std@@@std@@@std@@2V0locale@2@A DD 01H DUP (?) ; std::num_put<char,std::ostreambuf_iterator<char,std::char_traits<char> > >::id
_BSS	ENDS
;	COMDAT CRT$XCU
CRT$XCU	SEGMENT
??id$initializer$@?$codecvt@DDU_Mbstatet@@@std@@2P6AXXZA@@3P6AXXZA DD FLAT:??__E?id@?$codecvt@DDU_Mbstatet@@@std@@2V0locale@2@A@@YAXXZ ; ??id$initializer$@?$codecvt@DDU_Mbstatet@@@std@@2P6AXXZA@@3P6AXXZA
CRT$XCU	ENDS
;	COMDAT __real@404e000000000000
CONST	SEGMENT
__real@404e000000000000 DQ 0404e000000000000r	; 60
CONST	ENDS
;	COMDAT __real@0000000000000000
CONST	SEGMENT
__real@0000000000000000 DQ 00000000000000000r	; 0
CONST	ENDS
;	COMDAT rtc$TMZ
rtc$TMZ	SEGMENT
__RTC_Shutdown.rtc$TMZ DD FLAT:__RTC_Shutdown
rtc$TMZ	ENDS
;	COMDAT rtc$IMZ
rtc$IMZ	SEGMENT
__RTC_InitBase.rtc$IMZ DD FLAT:__RTC_InitBase
rtc$IMZ	ENDS
;	COMDAT ??_R1A@?0A@EA@bad_array_new_length@std@@8
rdata$r	SEGMENT
??_R1A@?0A@EA@bad_array_new_length@std@@8 DD FLAT:??_R0?AVbad_array_new_length@std@@@8 ; std::bad_array_new_length::`RTTI Base Class Descriptor at (0,-1,0,64)'
	DD	02H
	DD	00H
	DD	0ffffffffH
	DD	00H
	DD	040H
	DD	FLAT:??_R3bad_array_new_length@std@@8
rdata$r	ENDS
;	COMDAT ??_R2bad_array_new_length@std@@8
rdata$r	SEGMENT
??_R2bad_array_new_length@std@@8 DD FLAT:??_R1A@?0A@EA@bad_array_new_length@std@@8 ; std::bad_array_new_length::`RTTI Base Class Array'
	DD	FLAT:??_R1A@?0A@EA@bad_alloc@std@@8
	DD	FLAT:??_R1A@?0A@EA@exception@std@@8
rdata$r	ENDS
;	COMDAT ??_R3bad_array_new_length@std@@8
rdata$r	SEGMENT
??_R3bad_array_new_length@std@@8 DD 00H			; std::bad_array_new_length::`RTTI Class Hierarchy Descriptor'
	DD	00H
	DD	03H
	DD	FLAT:??_R2bad_array_new_length@std@@8
rdata$r	ENDS
;	COMDAT ??_R4bad_array_new_length@std@@6B@
rdata$r	SEGMENT
??_R4bad_array_new_length@std@@6B@ DD 00H		; std::bad_array_new_length::`RTTI Complete Object Locator'
	DD	00H
	DD	00H
	DD	FLAT:??_R0?AVbad_array_new_length@std@@@8
	DD	FLAT:??_R3bad_array_new_length@std@@8
rdata$r	ENDS
;	COMDAT ??_R1A@?0A@EA@bad_alloc@std@@8
rdata$r	SEGMENT
??_R1A@?0A@EA@bad_alloc@std@@8 DD FLAT:??_R0?AVbad_alloc@std@@@8 ; std::bad_alloc::`RTTI Base Class Descriptor at (0,-1,0,64)'
	DD	01H
	DD	00H
	DD	0ffffffffH
	DD	00H
	DD	040H
	DD	FLAT:??_R3bad_alloc@std@@8
rdata$r	ENDS
;	COMDAT ??_R2bad_alloc@std@@8
rdata$r	SEGMENT
??_R2bad_alloc@std@@8 DD FLAT:??_R1A@?0A@EA@bad_alloc@std@@8 ; std::bad_alloc::`RTTI Base Class Array'
	DD	FLAT:??_R1A@?0A@EA@exception@std@@8
rdata$r	ENDS
;	COMDAT ??_R3bad_alloc@std@@8
rdata$r	SEGMENT
??_R3bad_alloc@std@@8 DD 00H				; std::bad_alloc::`RTTI Class Hierarchy Descriptor'
	DD	00H
	DD	02H
	DD	FLAT:??_R2bad_alloc@std@@8
rdata$r	ENDS
;	COMDAT ??_R4bad_alloc@std@@6B@
rdata$r	SEGMENT
??_R4bad_alloc@std@@6B@ DD 00H				; std::bad_alloc::`RTTI Complete Object Locator'
	DD	00H
	DD	00H
	DD	FLAT:??_R0?AVbad_alloc@std@@@8
	DD	FLAT:??_R3bad_alloc@std@@8
rdata$r	ENDS
;	COMDAT ??_R1A@?0A@EA@exception@std@@8
rdata$r	SEGMENT
??_R1A@?0A@EA@exception@std@@8 DD FLAT:??_R0?AVexception@std@@@8 ; std::exception::`RTTI Base Class Descriptor at (0,-1,0,64)'
	DD	00H
	DD	00H
	DD	0ffffffffH
	DD	00H
	DD	040H
	DD	FLAT:??_R3exception@std@@8
rdata$r	ENDS
;	COMDAT ??_R2exception@std@@8
rdata$r	SEGMENT
??_R2exception@std@@8 DD FLAT:??_R1A@?0A@EA@exception@std@@8 ; std::exception::`RTTI Base Class Array'
rdata$r	ENDS
;	COMDAT ??_R3exception@std@@8
rdata$r	SEGMENT
??_R3exception@std@@8 DD 00H				; std::exception::`RTTI Class Hierarchy Descriptor'
	DD	00H
	DD	01H
	DD	FLAT:??_R2exception@std@@8
rdata$r	ENDS
;	COMDAT ??_R4exception@std@@6B@
rdata$r	SEGMENT
??_R4exception@std@@6B@ DD 00H				; std::exception::`RTTI Complete Object Locator'
	DD	00H
	DD	00H
	DD	FLAT:??_R0?AVexception@std@@@8
	DD	FLAT:??_R3exception@std@@8
rdata$r	ENDS
;	COMDAT ??_C@_1HA@FACCKGGH@?$AA?$CC?$AAn?$AAu?$AAl?$AAl?$AA?5?$AAp?$AAo?$AAi?$AAn?$AAt?$AAe?$AAr?$AA?5?$AAc@
CONST	SEGMENT
??_C@_1HA@FACCKGGH@?$AA?$CC?$AAn?$AAu?$AAl?$AAl?$AA?5?$AAp?$AAo?$AAi?$AAn?$AAt?$AAe?$AAr?$AA?5?$AAc@ DB '"'
	DB	00H, 'n', 00H, 'u', 00H, 'l', 00H, 'l', 00H, ' ', 00H, 'p', 00H
	DB	'o', 00H, 'i', 00H, 'n', 00H, 't', 00H, 'e', 00H, 'r', 00H, ' '
	DB	00H, 'c', 00H, 'a', 00H, 'n', 00H, 'n', 00H, 'o', 00H, 't', 00H
	DB	' ', 00H, 'p', 00H, 'o', 00H, 'i', 00H, 'n', 00H, 't', 00H, ' '
	DB	00H, 't', 00H, 'o', 00H, ' ', 00H, 'a', 00H, ' ', 00H, 'b', 00H
	DB	'l', 00H, 'o', 00H, 'c', 00H, 'k', 00H, ' ', 00H, 'o', 00H, 'f'
	DB	00H, ' ', 00H, 'n', 00H, 'o', 00H, 'n', 00H, '-', 00H, 'z', 00H
	DB	'e', 00H, 'r', 00H, 'o', 00H, ' ', 00H, 's', 00H, 'i', 00H, 'z'
	DB	00H, 'e', 00H, '"', 00H, 00H, 00H		; `string'
CONST	ENDS
;	COMDAT ??_C@_0DG@KGHKKGBC@null?5pointer?5cannot?5point?5to?5a?5@
CONST	SEGMENT
??_C@_0DG@KGHKKGBC@null?5pointer?5cannot?5point?5to?5a?5@ DB 'null pointe'
	DB	'r cannot point to a block of non-zero size', 00H ; `string'
CONST	ENDS
;	COMDAT ??_C@_1BI@BMAFMIJF@?$AAh?$AAd?$AAc?$AA?5?$AA?$CB?$AA?$DN?$AA?5?$AAN?$AAU?$AAL?$AAL@
CONST	SEGMENT
??_C@_1BI@BMAFMIJF@?$AAh?$AAd?$AAc?$AA?5?$AA?$CB?$AA?$DN?$AA?5?$AAN?$AAU?$AAL?$AAL@ DB 'h'
	DB	00H, 'd', 00H, 'c', 00H, ' ', 00H, '!', 00H, '=', 00H, ' ', 00H
	DB	'N', 00H, 'U', 00H, 'L', 00H, 'L', 00H, 00H, 00H ; `string'
CONST	ENDS
;	COMDAT ??_C@_1BM@MMNOPHKK@?$AAm?$AA_?$AAh?$AAd?$AAc?$AA?5?$AA?$DN?$AA?$DN?$AA?5?$AAN?$AAU?$AAL?$AAL@
CONST	SEGMENT
??_C@_1BM@MMNOPHKK@?$AAm?$AA_?$AAh?$AAd?$AAc?$AA?5?$AA?$DN?$AA?$DN?$AA?5?$AAN?$AAU?$AAL?$AAL@ DB 'm'
	DB	00H, '_', 00H, 'h', 00H, 'd', 00H, 'c', 00H, ' ', 00H, '=', 00H
	DB	'=', 00H, ' ', 00H, 'N', 00H, 'U', 00H, 'L', 00H, 'L', 00H, 00H
	DB	00H						; `string'
CONST	ENDS
;	COMDAT ??_C@_1GK@OJJIPFJO@?$AAD?$AA?3?$AA?2?$AA_?$AA_?$AAR?$AAe?$AAp?$AAo?$AAs?$AA?2?$AA_?$AA_?$AAM?$AAy@
CONST	SEGMENT
??_C@_1GK@OJJIPFJO@?$AAD?$AA?3?$AA?2?$AA_?$AA_?$AAR?$AAe?$AAp?$AAo?$AAs?$AA?2?$AA_?$AA_?$AAM?$AAy@ DB 'D'
	DB	00H, ':', 00H, '\', 00H, '_', 00H, '_', 00H, 'R', 00H, 'e', 00H
	DB	'p', 00H, 'o', 00H, 's', 00H, '\', 00H, '_', 00H, '_', 00H, 'M'
	DB	00H, 'y', 00H, 'R', 00H, 'e', 00H, 'p', 00H, 'o', 00H, 's', 00H
	DB	'\', 00H, 'R', 00H, 'a', 00H, 'v', 00H, 'e', 00H, 'n', 00H, '_'
	DB	00H, 'V', 00H, 'S', 00H, '2', 00H, '0', 00H, '2', 00H, '2', 00H
	DB	'\', 00H, 'C', 00H, 'o', 00H, 'm', 00H, 'm', 00H, 'o', 00H, 'n'
	DB	00H, '\', 00H, 'm', 00H, 'i', 00H, 's', 00H, 'c', 00H, '\', 00H
	DB	'C', 00H, 'g', 00H, 'd', 00H, 'i', 00H, '.', 00H, 'h', 00H, 00H
	DB	00H						; `string'
CONST	ENDS
;	COMDAT ??_C@_1JA@JKGMJBNB@?$AAm?$AA_?$AAN?$AAo?$AAr?$AAm?$AAa?$AAl?$AAF?$AAP?$AAS?$AA?5?$AA?$CG?$AA?$CG?$AA?5@
CONST	SEGMENT
??_C@_1JA@JKGMJBNB@?$AAm?$AA_?$AAN?$AAo?$AAr?$AAm?$AAa?$AAl?$AAF?$AAP?$AAS?$AA?5?$AA?$CG?$AA?$CG?$AA?5@ DB 'm'
	DB	00H, '_', 00H, 'N', 00H, 'o', 00H, 'r', 00H, 'm', 00H, 'a', 00H
	DB	'l', 00H, 'F', 00H, 'P', 00H, 'S', 00H, ' ', 00H, '&', 00H, '&'
	DB	00H, ' ', 00H, '"', 00H, 'P', 00H, 'r', 00H, 'e', 00H, 'c', 00H
	DB	'i', 00H, 's', 00H, 'i', 00H, 'o', 00H, 'n', 00H, 'T', 00H, 'i'
	DB	00H, 'm', 00H, 'e', 00H, 'r', 00H, ':', 00H, ':', 00H, 'R', 00H
	DB	'e', 00H, 'a', 00H, 'd', 00H, 'y', 00H, 'F', 00H, 'o', 00H, 'r'
	DB	00H, 'N', 00H, 'e', 00H, 'x', 00H, 't', 00H, 'F', 00H, 'r', 00H
	DB	'a', 00H, 'm', 00H, 'e', 00H, '<', 00H, 'N', 00H, 'o', 00H, ' '
	DB	00H, 'F', 00H, 'P', 00H, 'S', 00H, ' ', 00H, 's', 00H, 'e', 00H
	DB	't', 00H, ' ', 00H, 'i', 00H, 'n', 00H, ' ', 00H, 't', 00H, 'i'
	DB	00H, 'm', 00H, 'e', 00H, 'r', 00H, '>', 00H, '"', 00H, 00H, 00H ; `string'
CONST	ENDS
;	COMDAT ??_C@_1HO@MGBDJLEO@?$AAD?$AA?3?$AA?2?$AA_?$AA_?$AAR?$AAe?$AAp?$AAo?$AAs?$AA?2?$AA_?$AA_?$AAM?$AAy@
CONST	SEGMENT
??_C@_1HO@MGBDJLEO@?$AAD?$AA?3?$AA?2?$AA_?$AA_?$AAR?$AAe?$AAp?$AAo?$AAs?$AA?2?$AA_?$AA_?$AAM?$AAy@ DB 'D'
	DB	00H, ':', 00H, '\', 00H, '_', 00H, '_', 00H, 'R', 00H, 'e', 00H
	DB	'p', 00H, 'o', 00H, 's', 00H, '\', 00H, '_', 00H, '_', 00H, 'M'
	DB	00H, 'y', 00H, 'R', 00H, 'e', 00H, 'p', 00H, 'o', 00H, 's', 00H
	DB	'\', 00H, 'R', 00H, 'a', 00H, 'v', 00H, 'e', 00H, 'n', 00H, '_'
	DB	00H, 'V', 00H, 'S', 00H, '2', 00H, '0', 00H, '2', 00H, '2', 00H
	DB	'\', 00H, 'C', 00H, 'o', 00H, 'm', 00H, 'm', 00H, 'o', 00H, 'n'
	DB	00H, '\', 00H, 'T', 00H, 'i', 00H, 'm', 00H, 'e', 00H, '\', 00H
	DB	'P', 00H, 'r', 00H, 'e', 00H, 'c', 00H, 'i', 00H, 's', 00H, 'i'
	DB	00H, 'o', 00H, 'n', 00H, 'T', 00H, 'i', 00H, 'm', 00H, 'e', 00H
	DB	'r', 00H, '.', 00H, 'h', 00H, 00H, 00H	; `string'
CONST	ENDS
;	COMDAT ??_C@_0DH@OCBBBONP@PrecisionTimer?3?3ReadyForNextFra@
CONST	SEGMENT
??_C@_0DH@OCBBBONP@PrecisionTimer?3?3ReadyForNextFra@ DB 'PrecisionTimer:'
	DB	':ReadyForNextFrame<No FPS set in timer>', 00H ; `string'
CONST	ENDS
;	COMDAT ??_R0?AVruntime_error@std@@@8
data$r	SEGMENT
??_R0?AVruntime_error@std@@@8 DD FLAT:??_7type_info@@6B@ ; std::runtime_error `RTTI Type Descriptor'
	DD	00H
	DB	'.?AVruntime_error@std@@', 00H
data$r	ENDS
;	COMDAT ??_C@_0BA@JFNIOLAK@string?5too?5long@
CONST	SEGMENT
??_C@_0BA@JFNIOLAK@string?5too?5long@ DB 'string too long', 00H ; `string'
CONST	ENDS
;	COMDAT ??_C@_1CG@JNLFBNGN@?$AA?$CC?$AAi?$AAn?$AAv?$AAa?$AAl?$AAi?$AAd?$AA?5?$AAa?$AAr?$AAg?$AAu?$AAm?$AAe@
CONST	SEGMENT
??_C@_1CG@JNLFBNGN@?$AA?$CC?$AAi?$AAn?$AAv?$AAa?$AAl?$AAi?$AAd?$AA?5?$AAa?$AAr?$AAg?$AAu?$AAm?$AAe@ DB '"'
	DB	00H, 'i', 00H, 'n', 00H, 'v', 00H, 'a', 00H, 'l', 00H, 'i', 00H
	DB	'd', 00H, ' ', 00H, 'a', 00H, 'r', 00H, 'g', 00H, 'u', 00H, 'm'
	DB	00H, 'e', 00H, 'n', 00H, 't', 00H, '"', 00H, 00H, 00H ; `string'
CONST	ENDS
;	COMDAT ??_C@_11LOCGONAA@@
CONST	SEGMENT
??_C@_11LOCGONAA@@ DB 00H, 00H				; `string'
CONST	ENDS
;	COMDAT ??_C@_1ME@KDCJLOP@?$AAC?$AA?3?$AA?2?$AAP?$AAr?$AAo?$AAg?$AAr?$AAa?$AAm?$AA?5?$AAF?$AAi?$AAl?$AAe@
CONST	SEGMENT
??_C@_1ME@KDCJLOP@?$AAC?$AA?3?$AA?2?$AAP?$AAr?$AAo?$AAg?$AAr?$AAa?$AAm?$AA?5?$AAF?$AAi?$AAl?$AAe@ DB 'C'
	DB	00H, ':', 00H, '\', 00H, 'P', 00H, 'r', 00H, 'o', 00H, 'g', 00H
	DB	'r', 00H, 'a', 00H, 'm', 00H, ' ', 00H, 'F', 00H, 'i', 00H, 'l'
	DB	00H, 'e', 00H, 's', 00H, '\', 00H, 'M', 00H, 'i', 00H, 'c', 00H
	DB	'r', 00H, 'o', 00H, 's', 00H, 'o', 00H, 'f', 00H, 't', 00H, ' '
	DB	00H, 'V', 00H, 'i', 00H, 's', 00H, 'u', 00H, 'a', 00H, 'l', 00H
	DB	' ', 00H, 'S', 00H, 't', 00H, 'u', 00H, 'd', 00H, 'i', 00H, 'o'
	DB	00H, '\', 00H, '2', 00H, '0', 00H, '2', 00H, '2', 00H, '\', 00H
	DB	'C', 00H, 'o', 00H, 'm', 00H, 'm', 00H, 'u', 00H, 'n', 00H, 'i'
	DB	00H, 't', 00H, 'y', 00H, '\', 00H, 'V', 00H, 'C', 00H, '\', 00H
	DB	'T', 00H, 'o', 00H, 'o', 00H, 'l', 00H, 's', 00H, '\', 00H, 'M'
	DB	00H, 'S', 00H, 'V', 00H, 'C', 00H, '\', 00H, '1', 00H, '4', 00H
	DB	'.', 00H, '3', 00H, '3', 00H, '.', 00H, '3', 00H, '1', 00H, '6'
	DB	00H, '2', 00H, '9', 00H, '\', 00H, 'i', 00H, 'n', 00H, 'c', 00H
	DB	'l', 00H, 'u', 00H, 'd', 00H, 'e', 00H, '\', 00H, 'x', 00H, 'm'
	DB	00H, 'e', 00H, 'm', 00H, 'o', 00H, 'r', 00H, 'y', 00H, 00H, 00H ; `string'
CONST	ENDS
;	COMDAT ??_C@_0GC@GFIHGGPN@C?3?2Program?5Files?2Microsoft?5Visu@
CONST	SEGMENT
??_C@_0GC@GFIHGGPN@C?3?2Program?5Files?2Microsoft?5Visu@ DB 'C:\Program F'
	DB	'iles\Microsoft Visual Studio\2022\Community\VC\Tools\MSVC\14.'
	DB	'33.31629\include\xmemory', 00H		; `string'
CONST	ENDS
;	COMDAT ??_C@_02DKCKIIND@?$CFs@
CONST	SEGMENT
??_C@_02DKCKIIND@?$CFs@ DB '%s', 00H			; `string'
CONST	ENDS
;	COMDAT ??_C@_0BB@FCMFBGOM@invalid?5argument@
CONST	SEGMENT
??_C@_0BB@FCMFBGOM@invalid?5argument@ DB 'invalid argument', 00H ; `string'
CONST	ENDS
;	COMDAT __CT??_R0?AVexception@std@@@8??0exception@std@@QAE@ABV01@@Z12
xdata$x	SEGMENT
__CT??_R0?AVexception@std@@@8??0exception@std@@QAE@ABV01@@Z12 DD 00H
	DD	FLAT:??_R0?AVexception@std@@@8
	DD	00H
	DD	0ffffffffH
	ORG $+4
	DD	0cH
	DD	FLAT:??0exception@std@@QAE@ABV01@@Z
xdata$x	ENDS
;	COMDAT ??_R0?AVexception@std@@@8
data$r	SEGMENT
??_R0?AVexception@std@@@8 DD FLAT:??_7type_info@@6B@	; std::exception `RTTI Type Descriptor'
	DD	00H
	DB	'.?AVexception@std@@', 00H
data$r	ENDS
;	COMDAT __CT??_R0?AVbad_alloc@std@@@8??0bad_alloc@std@@QAE@ABV01@@Z12
xdata$x	SEGMENT
__CT??_R0?AVbad_alloc@std@@@8??0bad_alloc@std@@QAE@ABV01@@Z12 DD 010H
	DD	FLAT:??_R0?AVbad_alloc@std@@@8
	DD	00H
	DD	0ffffffffH
	ORG $+4
	DD	0cH
	DD	FLAT:??0bad_alloc@std@@QAE@ABV01@@Z
xdata$x	ENDS
;	COMDAT ??_R0?AVbad_alloc@std@@@8
data$r	SEGMENT
??_R0?AVbad_alloc@std@@@8 DD FLAT:??_7type_info@@6B@	; std::bad_alloc `RTTI Type Descriptor'
	DD	00H
	DB	'.?AVbad_alloc@std@@', 00H
data$r	ENDS
;	COMDAT __CT??_R0?AVbad_array_new_length@std@@@8??0bad_array_new_length@std@@QAE@ABV01@@Z12
xdata$x	SEGMENT
__CT??_R0?AVbad_array_new_length@std@@@8??0bad_array_new_length@std@@QAE@ABV01@@Z12 DD 00H
	DD	FLAT:??_R0?AVbad_array_new_length@std@@@8
	DD	00H
	DD	0ffffffffH
	ORG $+4
	DD	0cH
	DD	FLAT:??0bad_array_new_length@std@@QAE@ABV01@@Z
xdata$x	ENDS
;	COMDAT ??_R0?AVbad_array_new_length@std@@@8
data$r	SEGMENT
??_R0?AVbad_array_new_length@std@@@8 DD FLAT:??_7type_info@@6B@ ; std::bad_array_new_length `RTTI Type Descriptor'
	DD	00H
	DB	'.?AVbad_array_new_length@std@@', 00H
data$r	ENDS
;	COMDAT __CTA3?AVbad_array_new_length@std@@
xdata$x	SEGMENT
__CTA3?AVbad_array_new_length@std@@ DD 03H
	DD	FLAT:__CT??_R0?AVbad_array_new_length@std@@@8??0bad_array_new_length@std@@QAE@ABV01@@Z12
	DD	FLAT:__CT??_R0?AVbad_alloc@std@@@8??0bad_alloc@std@@QAE@ABV01@@Z12
	DD	FLAT:__CT??_R0?AVexception@std@@@8??0exception@std@@QAE@ABV01@@Z12
xdata$x	ENDS
;	COMDAT __TI3?AVbad_array_new_length@std@@
xdata$x	SEGMENT
__TI3?AVbad_array_new_length@std@@ DD 00H
	DD	FLAT:??1bad_array_new_length@std@@UAE@XZ
	DD	00H
	DD	FLAT:__CTA3?AVbad_array_new_length@std@@
xdata$x	ENDS
;	COMDAT ??_C@_0BF@KINCDENJ@bad?5array?5new?5length@
CONST	SEGMENT
??_C@_0BF@KINCDENJ@bad?5array?5new?5length@ DB 'bad array new length', 00H ; `string'
CONST	ENDS
;	COMDAT ??_7bad_array_new_length@std@@6B@
CONST	SEGMENT
??_7bad_array_new_length@std@@6B@ DD FLAT:??_R4bad_array_new_length@std@@6B@ ; std::bad_array_new_length::`vftable'
	DD	FLAT:??_Ebad_array_new_length@std@@UAEPAXI@Z
	DD	FLAT:?what@exception@std@@UBEPBDXZ
CONST	ENDS
;	COMDAT ??_7bad_alloc@std@@6B@
CONST	SEGMENT
??_7bad_alloc@std@@6B@ DD FLAT:??_R4bad_alloc@std@@6B@	; std::bad_alloc::`vftable'
	DD	FLAT:??_Ebad_alloc@std@@UAEPAXI@Z
	DD	FLAT:?what@exception@std@@UBEPBDXZ
CONST	ENDS
;	COMDAT ??_C@_0BC@EOODALEL@Unknown?5exception@
CONST	SEGMENT
??_C@_0BC@EOODALEL@Unknown?5exception@ DB 'Unknown exception', 00H ; `string'
CONST	ENDS
;	COMDAT ??_7exception@std@@6B@
CONST	SEGMENT
??_7exception@std@@6B@ DD FLAT:??_R4exception@std@@6B@	; std::exception::`vftable'
	DD	FLAT:??_Eexception@std@@UAEPAXI@Z
	DD	FLAT:?what@exception@std@@UBEPBDXZ
CONST	ENDS
;	COMDAT voltbl
voltbl	SEGMENT
_volmd	DB	09H
voltbl	ENDS
;	COMDAT xdata$x
xdata$x	SEGMENT
__ehfuncinfo$??$_Deallocate_plain@V?$allocator@U_Container_proxy@std@@@std@@@std@@YAXAAV?$allocator@U_Container_proxy@std@@@0@QAU_Container_proxy@0@@Z DD 019930522H
	DD	00H
	DD	00H
	DD	2 DUP(00H)
	DD	2 DUP(00H)
	DD	00H
	DD	05H
xdata$x	ENDS
;	COMDAT voltbl
voltbl	SEGMENT
_volmd	DB	09H
voltbl	ENDS
;	COMDAT xdata$x
xdata$x	SEGMENT
__ehfuncinfo$??$_Deallocate@$07$0A@@std@@YAXPAXI@Z DD 019930522H
	DD	00H
	DD	00H
	DD	2 DUP(00H)
	DD	2 DUP(00H)
	DD	00H
	DD	05H
xdata$x	ENDS
;	COMDAT voltbl
voltbl	SEGMENT
_volmd	DB	016H
voltbl	ENDS
;	COMDAT xdata$x
xdata$x	SEGMENT
__unwindtable$??$_Construct@$00PBD@?$basic_string@DU?$char_traits@D@std@@V?$allocator@D@2@@std@@AAEXQBDI@Z DD 0ffffffffH
	DD	FLAT:__unwindfunclet$??$_Construct@$00PBD@?$basic_string@DU?$char_traits@D@std@@V?$allocator@D@2@@std@@AAEXQBDI@Z$0
__ehfuncinfo$??$_Construct@$00PBD@?$basic_string@DU?$char_traits@D@std@@V?$allocator@D@2@@std@@AAEXQBDI@Z DD 019930522H
	DD	01H
	DD	FLAT:__unwindtable$??$_Construct@$00PBD@?$basic_string@DU?$char_traits@D@std@@V?$allocator@D@2@@std@@AAEXQBDI@Z
	DD	2 DUP(00H)
	DD	2 DUP(00H)
	DD	00H
	DD	01H
xdata$x	ENDS
;	COMDAT voltbl
voltbl	SEGMENT
_volmd	DB	01aH
voltbl	ENDS
;	COMDAT xdata$x
xdata$x	SEGMENT
__unwindtable$?Instance@CSink@@SAPAV1@XZ DD 0ffffffffH
	DD	FLAT:__unwindfunclet$?Instance@CSink@@SAPAV1@XZ$0
__ehfuncinfo$?Instance@CSink@@SAPAV1@XZ DD 019930522H
	DD	01H
	DD	FLAT:__unwindtable$?Instance@CSink@@SAPAV1@XZ
	DD	2 DUP(00H)
	DD	2 DUP(00H)
	DD	00H
	DD	01H
xdata$x	ENDS
;	COMDAT voltbl
voltbl	SEGMENT
_volmd	DB	09H
voltbl	ENDS
;	COMDAT xdata$x
xdata$x	SEGMENT
__ehfuncinfo$?_Tidy_deallocate@?$basic_string@DU?$char_traits@D@std@@V?$allocator@D@2@@std@@AAEXXZ DD 019930522H
	DD	00H
	DD	00H
	DD	2 DUP(00H)
	DD	2 DUP(00H)
	DD	00H
	DD	05H
xdata$x	ENDS
;	COMDAT voltbl
voltbl	SEGMENT
_volmd	DB	016H
voltbl	ENDS
;	COMDAT xdata$x
xdata$x	SEGMENT
__unwindtable$??0?$basic_string@DU?$char_traits@D@std@@V?$allocator@D@2@@std@@QAE@QBD@Z DD 0ffffffffH
	DD	FLAT:__unwindfunclet$??0?$basic_string@DU?$char_traits@D@std@@V?$allocator@D@2@@std@@QAE@QBD@Z$0
__ehfuncinfo$??0?$basic_string@DU?$char_traits@D@std@@V?$allocator@D@2@@std@@QAE@QBD@Z DD 019930522H
	DD	01H
	DD	FLAT:__unwindtable$??0?$basic_string@DU?$char_traits@D@std@@V?$allocator@D@2@@std@@QAE@QBD@Z
	DD	2 DUP(00H)
	DD	2 DUP(00H)
	DD	00H
	DD	01H
xdata$x	ENDS
voltbl	SEGMENT
_volmd	DD	0ffffffffH
	DDSymXIndex: 	FLAT:__unwindfunclet$?WindowProc@@YGJPAUHWND__@@IIJ@Z$0
	DD	038H
	DD	045H
_volmd	DD	0ffffffffH
	DDSymXIndex: 	FLAT:?WindowProc@@YGJPAUHWND__@@IIJ@Z
	DD	032H
	DD	0bceH
_volmd	DD	0ffffffffH
	DDSymXIndex: 	FLAT:__unwindfunclet$_WinMain@16$2
	DD	019H
	DD	026H
_volmd	DD	0ffffffffH
	DDSymXIndex: 	FLAT:_WinMain@16
	DD	034H
	DD	0434H
voltbl	ENDS
xdata$x	SEGMENT
__catchsym$_WinMain@16$3 DD 09H
	DD	FLAT:??_R0?AVruntime_error@std@@@8
	DD	0ffffff10H
	DD	FLAT:__catch$_WinMain@16$0
__tryblocktable$_WinMain@16 DD 00H
	DD	00H
	DD	02H
	DD	01H
	DD	FLAT:__catchsym$_WinMain@16$3
__unwindtable$_WinMain@16 DD 0ffffffffH
	DD	00H
	DD	0ffffffffH
	DD	00H
	DD	01H
	DD	FLAT:__unwindfunclet$_WinMain@16$2
__unwindtable$?WindowProc@@YGJPAUHWND__@@IIJ@Z DD 0ffffffffH
	DD	FLAT:__unwindfunclet$?WindowProc@@YGJPAUHWND__@@IIJ@Z$0
	DD	0ffffffffH
	DD	FLAT:__unwindfunclet$?WindowProc@@YGJPAUHWND__@@IIJ@Z$1
	DD	01H
	DD	FLAT:__unwindfunclet$?WindowProc@@YGJPAUHWND__@@IIJ@Z$2
	DD	0ffffffffH
	DD	FLAT:__unwindfunclet$?WindowProc@@YGJPAUHWND__@@IIJ@Z$3
__ehfuncinfo$?WindowProc@@YGJPAUHWND__@@IIJ@Z DD 019930522H
	DD	04H
	DD	FLAT:__unwindtable$?WindowProc@@YGJPAUHWND__@@IIJ@Z
	DD	2 DUP(00H)
	DD	2 DUP(00H)
	DD	00H
	DD	01H
__ehfuncinfo$_WinMain@16 DD 019930522H
	DD	03H
	DD	FLAT:__unwindtable$_WinMain@16
	DD	01H
	DD	FLAT:__tryblocktable$_WinMain@16
	DD	2 DUP(00H)
	DD	00H
	DD	01H
xdata$x	ENDS
;	COMDAT CRT$XCU
CRT$XCU	SEGMENT
??id$initializer$@?$num_put@DV?$ostreambuf_iterator@DU?$char_traits@D@std@@@std@@@std@@2P6AXXZA@@3P6AXXZA DD FLAT:??__E?id@?$num_put@DV?$ostreambuf_iterator@DU?$char_traits@D@std@@@std@@@std@@2V0locale@2@A@@YAXXZ ; ??id$initializer$@?$num_put@DV?$ostreambuf_iterator@DU?$char_traits@D@std@@@std@@@std@@2P6AXXZA@@3P6AXXZA
CRT$XCU	ENDS
;	COMDAT CRT$XCU
CRT$XCU	SEGMENT
??id$initializer$@?$num_get@DV?$istreambuf_iterator@DU?$char_traits@D@std@@@std@@@std@@2P6AXXZA@@3P6AXXZA DD FLAT:??__E?id@?$num_get@DV?$istreambuf_iterator@DU?$char_traits@D@std@@@std@@@std@@2V0locale@2@A@@YAXXZ ; ??id$initializer$@?$num_get@DV?$istreambuf_iterator@DU?$char_traits@D@std@@@std@@@std@@2P6AXXZA@@3P6AXXZA
CRT$XCU	ENDS
;	COMDAT CRT$XCU
CRT$XCU	SEGMENT
??id$initializer$@?$numpunct@D@std@@2P6AXXZA@@3P6AXXZA DD FLAT:??__E?id@?$numpunct@D@std@@2V0locale@2@A@@YAXXZ ; ??id$initializer$@?$numpunct@D@std@@2P6AXXZA@@3P6AXXZA
CRT$XCU	ENDS
; Function compile flags: /Odtp /RTCsu
; File C:\Program Files\Microsoft Visual Studio\2022\Community\VC\Tools\MSVC\14.33.31629\include\xlocnum
;	COMDAT ??__E?id@?$numpunct@D@std@@2V0locale@2@A@@YAXXZ
text$di	SEGMENT
??__E?id@?$numpunct@D@std@@2V0locale@2@A@@YAXXZ PROC	; `dynamic initializer for 'std::numpunct<char>::id'', COMDAT

; 252  : __PURE_APPDOMAIN_GLOBAL locale::id numpunct<_Elem>::id;

	push	ebp
	mov	ebp, esp
	push	0
	mov	ecx, OFFSET ?id@?$numpunct@D@std@@2V0locale@2@A ; std::numpunct<char>::id
	call	??0id@locale@std@@QAE@I@Z		; std::locale::id::id
	cmp	ebp, esp
	call	__RTC_CheckEsp
	pop	ebp
	ret	0
??__E?id@?$numpunct@D@std@@2V0locale@2@A@@YAXXZ ENDP	; `dynamic initializer for 'std::numpunct<char>::id''
text$di	ENDS
; Function compile flags: /Odtp /RTCsu
; File C:\Program Files\Microsoft Visual Studio\2022\Community\VC\Tools\MSVC\14.33.31629\include\xlocnum
;	COMDAT ??__E?id@?$num_get@DV?$istreambuf_iterator@DU?$char_traits@D@std@@@std@@@std@@2V0locale@2@A@@YAXXZ
text$di	SEGMENT
??__E?id@?$num_get@DV?$istreambuf_iterator@DU?$char_traits@D@std@@@std@@@std@@2V0locale@2@A@@YAXXZ PROC ; `dynamic initializer for 'std::num_get<char,std::istreambuf_iterator<char,std::char_traits<char> > >::id'', COMDAT

; 1130 : __PURE_APPDOMAIN_GLOBAL locale::id num_get<_Elem, _InIt>::id;

	push	ebp
	mov	ebp, esp
	push	0
	mov	ecx, OFFSET ?id@?$num_get@DV?$istreambuf_iterator@DU?$char_traits@D@std@@@std@@@std@@2V0locale@2@A ; std::num_get<char,std::istreambuf_iterator<char,std::char_traits<char> > >::id
	call	??0id@locale@std@@QAE@I@Z		; std::locale::id::id
	cmp	ebp, esp
	call	__RTC_CheckEsp
	pop	ebp
	ret	0
??__E?id@?$num_get@DV?$istreambuf_iterator@DU?$char_traits@D@std@@@std@@@std@@2V0locale@2@A@@YAXXZ ENDP ; `dynamic initializer for 'std::num_get<char,std::istreambuf_iterator<char,std::char_traits<char> > >::id''
text$di	ENDS
; Function compile flags: /Odtp /RTCsu
; File C:\Program Files\Microsoft Visual Studio\2022\Community\VC\Tools\MSVC\14.33.31629\include\xlocnum
;	COMDAT ??__E?id@?$num_put@DV?$ostreambuf_iterator@DU?$char_traits@D@std@@@std@@@std@@2V0locale@2@A@@YAXXZ
text$di	SEGMENT
??__E?id@?$num_put@DV?$ostreambuf_iterator@DU?$char_traits@D@std@@@std@@@std@@2V0locale@2@A@@YAXXZ PROC ; `dynamic initializer for 'std::num_put<char,std::ostreambuf_iterator<char,std::char_traits<char> > >::id'', COMDAT

; 1592 : __PURE_APPDOMAIN_GLOBAL locale::id num_put<_Elem, _OutIt>::id;

	push	ebp
	mov	ebp, esp
	push	0
	mov	ecx, OFFSET ?id@?$num_put@DV?$ostreambuf_iterator@DU?$char_traits@D@std@@@std@@@std@@2V0locale@2@A ; std::num_put<char,std::ostreambuf_iterator<char,std::char_traits<char> > >::id
	call	??0id@locale@std@@QAE@I@Z		; std::locale::id::id
	cmp	ebp, esp
	call	__RTC_CheckEsp
	pop	ebp
	ret	0
??__E?id@?$num_put@DV?$ostreambuf_iterator@DU?$char_traits@D@std@@@std@@@std@@2V0locale@2@A@@YAXXZ ENDP ; `dynamic initializer for 'std::num_put<char,std::ostreambuf_iterator<char,std::char_traits<char> > >::id''
text$di	ENDS
; Function compile flags: /Odtp /RTCsu
; File C:\Program Files\Microsoft Visual Studio\2022\Community\VC\Tools\MSVC\14.33.31629\include\xmemory
;	COMDAT ??$_Allocate_manually_vector_aligned@U_Default_allocate_traits@std@@@std@@YAPAXI@Z
_TEXT	SEGMENT
__Ptr$ = -12						; size = 4
__Ptr_container$ = -8					; size = 4
__Block_size$ = -4					; size = 4
__Bytes$ = 8						; size = 4
??$_Allocate_manually_vector_aligned@U_Default_allocate_traits@std@@@std@@YAPAXI@Z PROC ; std::_Allocate_manually_vector_aligned<std::_Default_allocate_traits>, COMDAT

; 129  : __declspec(allocator) void* _Allocate_manually_vector_aligned(const size_t _Bytes) {

	push	ebp
	mov	ebp, esp
	sub	esp, 12					; 0000000cH
	mov	DWORD PTR [ebp-12], -858993460		; ccccccccH
	mov	DWORD PTR [ebp-8], -858993460		; ccccccccH
	mov	DWORD PTR [ebp-4], -858993460		; ccccccccH

; 130  :     // allocate _Bytes manually aligned to at least _Big_allocation_alignment
; 131  :     const size_t _Block_size = _Non_user_size + _Bytes;

	mov	eax, DWORD PTR __Bytes$[ebp]
	add	eax, 39					; 00000027H
	mov	DWORD PTR __Block_size$[ebp], eax

; 132  :     if (_Block_size <= _Bytes) {

	mov	ecx, DWORD PTR __Block_size$[ebp]
	cmp	ecx, DWORD PTR __Bytes$[ebp]
	ja	SHORT $LN8@Allocate_m

; 133  :         _Throw_bad_array_new_length(); // add overflow

	call	?_Throw_bad_array_new_length@std@@YAXXZ	; std::_Throw_bad_array_new_length
$LN8@Allocate_m:

; 134  :     }
; 135  : 
; 136  :     const uintptr_t _Ptr_container = reinterpret_cast<uintptr_t>(_Traits::_Allocate(_Block_size));

	mov	edx, DWORD PTR __Block_size$[ebp]
	push	edx
	call	?_Allocate@_Default_allocate_traits@std@@SAPAXI@Z ; std::_Default_allocate_traits::_Allocate
	add	esp, 4
	mov	DWORD PTR __Ptr_container$[ebp], eax
$LN4@Allocate_m:

; 137  :     _STL_VERIFY(_Ptr_container != 0, "invalid argument"); // validate even in release since we're doing p[-1]

	cmp	DWORD PTR __Ptr_container$[ebp], 0
	je	SHORT $LN7@Allocate_m
	jmp	SHORT $LN2@Allocate_m
$LN7@Allocate_m:
	push	OFFSET $SG182711
	push	OFFSET $SG182712
	push	0
	push	137					; 00000089H
	push	OFFSET $SG182713
	push	2
	call	__CrtDbgReport
	add	esp, 24					; 00000018H
	cmp	eax, 1
	jne	SHORT $LN12@Allocate_m
	int	3
$LN12@Allocate_m:
	push	0
	push	137					; 00000089H
	push	OFFSET $SG182714
	push	OFFSET $SG182715
	push	OFFSET $SG182716
	call	__invalid_parameter
	add	esp, 20					; 00000014H
	xor	ecx, ecx
	jne	SHORT $LN7@Allocate_m
$LN2@Allocate_m:
	xor	edx, edx
	jne	SHORT $LN4@Allocate_m

; 138  :     void* const _Ptr = reinterpret_cast<void*>((_Ptr_container + _Non_user_size) & ~(_Big_allocation_alignment - 1));

	mov	eax, DWORD PTR __Ptr_container$[ebp]
	add	eax, 39					; 00000027H
	and	eax, -32				; ffffffe0H
	mov	DWORD PTR __Ptr$[ebp], eax

; 139  :     static_cast<uintptr_t*>(_Ptr)[-1] = _Ptr_container;

	mov	ecx, 4
	imul	edx, ecx, -1
	mov	eax, DWORD PTR __Ptr$[ebp]
	mov	ecx, DWORD PTR __Ptr_container$[ebp]
	mov	DWORD PTR [eax+edx], ecx

; 140  : 
; 141  : #ifdef _DEBUG
; 142  :     static_cast<uintptr_t*>(_Ptr)[-2] = _Big_allocation_sentinel;

	mov	edx, 4
	imul	eax, edx, -2
	mov	ecx, DWORD PTR __Ptr$[ebp]
	mov	DWORD PTR [ecx+eax], -84215046		; fafafafaH

; 143  : #endif // _DEBUG
; 144  :     return _Ptr;

	mov	eax, DWORD PTR __Ptr$[ebp]
$LN11@Allocate_m:

; 145  : }

	add	esp, 12					; 0000000cH
	cmp	ebp, esp
	call	__RTC_CheckEsp
	mov	esp, ebp
	pop	ebp
	ret	0
??$_Allocate_manually_vector_aligned@U_Default_allocate_traits@std@@@std@@YAPAXI@Z ENDP ; std::_Allocate_manually_vector_aligned<std::_Default_allocate_traits>
_TEXT	ENDS
; Function compile flags: /Odtp /RTCsu
; File C:\Program Files\Microsoft Visual Studio\2022\Community\VC\Tools\MSVC\14.33.31629\include\type_traits
;	COMDAT ??$forward@ABQAD@std@@YAABQADABQAD@Z
_TEXT	SEGMENT
__Arg$ = 8						; size = 4
??$forward@ABQAD@std@@YAABQADABQAD@Z PROC		; std::forward<char * const &>, COMDAT

; 1411 :     remove_reference_t<_Ty>& _Arg) noexcept { // forward an lvalue as either an lvalue or an rvalue

	push	ebp
	mov	ebp, esp

; 1412 :     return static_cast<_Ty&&>(_Arg);

	mov	eax, DWORD PTR __Arg$[ebp]

; 1413 : }

	pop	ebp
	ret	0
??$forward@ABQAD@std@@YAABQADABQAD@Z ENDP		; std::forward<char * const &>
_TEXT	ENDS
; Function compile flags: /Odtp /RTCsu
; File C:\Program Files\Microsoft Visual Studio\2022\Community\VC\Tools\MSVC\14.33.31629\include\type_traits
;	COMDAT ??$forward@PAU_Container_base12@std@@@std@@YA$$QAPAU_Container_base12@0@AAPAU10@@Z
_TEXT	SEGMENT
__Arg$ = 8						; size = 4
??$forward@PAU_Container_base12@std@@@std@@YA$$QAPAU_Container_base12@0@AAPAU10@@Z PROC ; std::forward<std::_Container_base12 *>, COMDAT

; 1411 :     remove_reference_t<_Ty>& _Arg) noexcept { // forward an lvalue as either an lvalue or an rvalue

	push	ebp
	mov	ebp, esp

; 1412 :     return static_cast<_Ty&&>(_Arg);

	mov	eax, DWORD PTR __Arg$[ebp]

; 1413 : }

	pop	ebp
	ret	0
??$forward@PAU_Container_base12@std@@@std@@YA$$QAPAU_Container_base12@0@AAPAU10@@Z ENDP ; std::forward<std::_Container_base12 *>
_TEXT	ENDS
; Function compile flags: /Odtp /RTCsu
; File C:\Program Files\Microsoft Visual Studio\2022\Community\VC\Tools\MSVC\14.33.31629\include\xutility
;	COMDAT ??$_Voidify_iter@PAU_Container_proxy@std@@@std@@YAPAXPAU_Container_proxy@0@@Z
_TEXT	SEGMENT
__It$ = 8						; size = 4
??$_Voidify_iter@PAU_Container_proxy@std@@@std@@YAPAXPAU_Container_proxy@0@@Z PROC ; std::_Voidify_iter<std::_Container_proxy *>, COMDAT

; 212  : _NODISCARD constexpr void* _Voidify_iter(_Iter _It) noexcept {

	push	ebp
	mov	ebp, esp

; 213  :     if constexpr (is_pointer_v<_Iter>) {
; 214  :         return const_cast<void*>(static_cast<const volatile void*>(_It));

	mov	eax, DWORD PTR __It$[ebp]

; 215  :     } else {
; 216  :         return const_cast<void*>(static_cast<const volatile void*>(_STD addressof(*_It)));
; 217  :     }
; 218  : }

	pop	ebp
	ret	0
??$_Voidify_iter@PAU_Container_proxy@std@@@std@@YAPAXPAU_Container_proxy@0@@Z ENDP ; std::_Voidify_iter<std::_Container_proxy *>
_TEXT	ENDS
; Function compile flags: /Odtp /RTCsu
; File C:\Program Files\Microsoft Visual Studio\2022\Community\VC\Tools\MSVC\14.33.31629\include\xstddef
;	COMDAT ??$addressof@U_Container_proxy@std@@@std@@YAPAU_Container_proxy@0@AAU10@@Z
_TEXT	SEGMENT
__Val$ = 8						; size = 4
??$addressof@U_Container_proxy@std@@@std@@YAPAU_Container_proxy@0@AAU10@@Z PROC ; std::addressof<std::_Container_proxy>, COMDAT

; 252  : _NODISCARD constexpr _Ty* addressof(_Ty& _Val) noexcept {

	push	ebp
	mov	ebp, esp

; 253  :     return __builtin_addressof(_Val);

	mov	eax, DWORD PTR __Val$[ebp]

; 254  : }

	pop	ebp
	ret	0
??$addressof@U_Container_proxy@std@@@std@@YAPAU_Container_proxy@0@AAU10@@Z ENDP ; std::addressof<std::_Container_proxy>
_TEXT	ENDS
; Function compile flags: /Odtp /RTCsu
; File C:\Program Files\Microsoft Visual Studio\2022\Community\VC\Tools\MSVC\14.33.31629\include\xmemory
;	COMDAT ?deallocate@?$_Default_allocator_traits@V?$allocator@U_Container_proxy@std@@@std@@@std@@SAXAAV?$allocator@U_Container_proxy@std@@@2@QAU_Container_proxy@2@I@Z
_TEXT	SEGMENT
__Al$ = 8						; size = 4
__Ptr$ = 12						; size = 4
__Count$ = 16						; size = 4
?deallocate@?$_Default_allocator_traits@V?$allocator@U_Container_proxy@std@@@std@@@std@@SAXAAV?$allocator@U_Container_proxy@std@@@2@QAU_Container_proxy@2@I@Z PROC ; std::_Default_allocator_traits<std::allocator<std::_Container_proxy> >::deallocate, COMDAT

; 661  :     static _CONSTEXPR20 void deallocate(_Alloc& _Al, const pointer _Ptr, const size_type _Count) {

	push	ebp
	mov	ebp, esp

; 662  :         // no overflow check on the following multiply; we assume _Allocate did that check
; 663  : #if _HAS_CXX20 // TRANSITION, GH-1532
; 664  :         if (_STD is_constant_evaluated()) {
; 665  :             _Al.deallocate(_Ptr, _Count);
; 666  :         } else
; 667  : #endif // _HAS_CXX20
; 668  :         {
; 669  :             (void) _Al;
; 670  :             _Deallocate<_New_alignof<value_type>>(_Ptr, sizeof(value_type) * _Count);

	mov	eax, DWORD PTR __Count$[ebp]
	shl	eax, 3
	push	eax
	mov	ecx, DWORD PTR __Ptr$[ebp]
	push	ecx
	call	??$_Deallocate@$07$0A@@std@@YAXPAXI@Z	; std::_Deallocate<8,0>
	add	esp, 8

; 671  :         }
; 672  :     }

	cmp	ebp, esp
	call	__RTC_CheckEsp
	pop	ebp
	ret	0
?deallocate@?$_Default_allocator_traits@V?$allocator@U_Container_proxy@std@@@std@@@std@@SAXAAV?$allocator@U_Container_proxy@std@@@2@QAU_Container_proxy@2@I@Z ENDP ; std::_Default_allocator_traits<std::allocator<std::_Container_proxy> >::deallocate
_TEXT	ENDS
; Function compile flags: /Odtp /RTCsu
; File C:\Program Files\Microsoft Visual Studio\2022\Community\VC\Tools\MSVC\14.33.31629\include\xlocale
;	COMDAT ??__E?id@?$codecvt@DDU_Mbstatet@@@std@@2V0locale@2@A@@YAXXZ
text$di	SEGMENT
??__E?id@?$codecvt@DDU_Mbstatet@@@std@@2V0locale@2@A@@YAXXZ PROC ; `dynamic initializer for 'std::codecvt<char,char,_Mbstatet>::id'', COMDAT

; 782  : __PURE_APPDOMAIN_GLOBAL locale::id codecvt<_Elem, _Byte, _Statype>::id;

	push	ebp
	mov	ebp, esp
	push	0
	mov	ecx, OFFSET ?id@?$codecvt@DDU_Mbstatet@@@std@@2V0locale@2@A ; std::codecvt<char,char,_Mbstatet>::id
	call	??0id@locale@std@@QAE@I@Z		; std::locale::id::id
	cmp	ebp, esp
	call	__RTC_CheckEsp
	pop	ebp
	ret	0
??__E?id@?$codecvt@DDU_Mbstatet@@@std@@2V0locale@2@A@@YAXXZ ENDP ; `dynamic initializer for 'std::codecvt<char,char,_Mbstatet>::id''
text$di	ENDS
; Function compile flags: /Odtp /RTCsu
; File C:\Program Files\Microsoft Visual Studio\2022\Community\VC\Tools\MSVC\14.33.31629\include\xmemory
;	COMDAT ??$_Get_size_of_n@$00@std@@YAII@Z
_TEXT	SEGMENT
__Overflow_is_possible$ = -1				; size = 1
__Count$ = 8						; size = 4
??$_Get_size_of_n@$00@std@@YAII@Z PROC			; std::_Get_size_of_n<1>, COMDAT

; 55   : _NODISCARD constexpr size_t _Get_size_of_n(const size_t _Count) {

	push	ebp
	mov	ebp, esp
	push	ecx

; 56   :     constexpr bool _Overflow_is_possible = _Ty_size > 1;

	mov	BYTE PTR __Overflow_is_possible$[ebp], 0

; 57   : 
; 58   :     if constexpr (_Overflow_is_possible) {
; 59   :         constexpr size_t _Max_possible = static_cast<size_t>(-1) / _Ty_size;
; 60   :         if (_Count > _Max_possible) {
; 61   :             _Throw_bad_array_new_length(); // multiply overflow
; 62   :         }
; 63   :     }
; 64   : 
; 65   :     return _Count * _Ty_size;

	mov	eax, DWORD PTR __Count$[ebp]

; 66   : }

	mov	esp, ebp
	pop	ebp
	ret	0
??$_Get_size_of_n@$00@std@@YAII@Z ENDP			; std::_Get_size_of_n<1>
_TEXT	ENDS
; Function compile flags: /Odtp /RTCsu
; File C:\Program Files\Microsoft Visual Studio\2022\Community\VC\Tools\MSVC\14.33.31629\include\xmemory
;	COMDAT ??$_Allocate@$07U_Default_allocate_traits@std@@$0A@@std@@YAPAXI@Z
_TEXT	SEGMENT
__Bytes$ = 8						; size = 4
??$_Allocate@$07U_Default_allocate_traits@std@@$0A@@std@@YAPAXI@Z PROC ; std::_Allocate<8,std::_Default_allocate_traits,0>, COMDAT

; 223  : __declspec(allocator) _CONSTEXPR20 void* _Allocate(const size_t _Bytes) {

	push	ebp
	mov	ebp, esp

; 224  :     // allocate _Bytes when !_HAS_ALIGNED_NEW || _Align <= __STDCPP_DEFAULT_NEW_ALIGNMENT__
; 225  : #if defined(_M_IX86) || defined(_M_X64)
; 226  : #if _HAS_CXX20 // TRANSITION, GH-1532
; 227  :     if (!_STD is_constant_evaluated())
; 228  : #endif // _HAS_CXX20
; 229  :     {
; 230  :         if (_Bytes >= _Big_allocation_threshold) { // boost the alignment of big allocations to help autovectorization

	cmp	DWORD PTR __Bytes$[ebp], 4096		; 00001000H
	jb	SHORT $LN2@Allocate

; 231  :             return _Allocate_manually_vector_aligned<_Traits>(_Bytes);

	mov	eax, DWORD PTR __Bytes$[ebp]
	push	eax
	call	??$_Allocate_manually_vector_aligned@U_Default_allocate_traits@std@@@std@@YAPAXI@Z ; std::_Allocate_manually_vector_aligned<std::_Default_allocate_traits>
	add	esp, 4
	jmp	SHORT $LN1@Allocate
$LN2@Allocate:

; 232  :         }
; 233  :     }
; 234  : #endif // defined(_M_IX86) || defined(_M_X64)
; 235  : 
; 236  :     if (_Bytes != 0) {

	cmp	DWORD PTR __Bytes$[ebp], 0
	je	SHORT $LN3@Allocate

; 237  :         return _Traits::_Allocate(_Bytes);

	mov	ecx, DWORD PTR __Bytes$[ebp]
	push	ecx
	call	?_Allocate@_Default_allocate_traits@std@@SAPAXI@Z ; std::_Default_allocate_traits::_Allocate
	add	esp, 4
	jmp	SHORT $LN1@Allocate
$LN3@Allocate:

; 238  :     }
; 239  : 
; 240  :     return nullptr;

	xor	eax, eax
$LN1@Allocate:

; 241  : }

	cmp	ebp, esp
	call	__RTC_CheckEsp
	pop	ebp
	ret	0
??$_Allocate@$07U_Default_allocate_traits@std@@$0A@@std@@YAPAXI@Z ENDP ; std::_Allocate<8,std::_Default_allocate_traits,0>
_TEXT	ENDS
; Function compile flags: /Odtp /RTCsu
; File C:\Program Files\Microsoft Visual Studio\2022\Community\VC\Tools\MSVC\14.33.31629\include\xmemory
;	COMDAT ??$_Get_size_of_n@$07@std@@YAII@Z
_TEXT	SEGMENT
__Max_possible$1 = -8					; size = 4
__Overflow_is_possible$ = -1				; size = 1
__Count$ = 8						; size = 4
??$_Get_size_of_n@$07@std@@YAII@Z PROC			; std::_Get_size_of_n<8>, COMDAT

; 55   : _NODISCARD constexpr size_t _Get_size_of_n(const size_t _Count) {

	push	ebp
	mov	ebp, esp
	sub	esp, 8
	mov	DWORD PTR [ebp-8], -858993460		; ccccccccH
	mov	DWORD PTR [ebp-4], -858993460		; ccccccccH

; 56   :     constexpr bool _Overflow_is_possible = _Ty_size > 1;

	mov	BYTE PTR __Overflow_is_possible$[ebp], 1

; 57   : 
; 58   :     if constexpr (_Overflow_is_possible) {
; 59   :         constexpr size_t _Max_possible = static_cast<size_t>(-1) / _Ty_size;

	mov	DWORD PTR __Max_possible$1[ebp], 536870911 ; 1fffffffH

; 60   :         if (_Count > _Max_possible) {

	cmp	DWORD PTR __Count$[ebp], 536870911	; 1fffffffH
	jbe	SHORT $LN2@Get_size_o

; 61   :             _Throw_bad_array_new_length(); // multiply overflow

	call	?_Throw_bad_array_new_length@std@@YAXXZ	; std::_Throw_bad_array_new_length
$LN2@Get_size_o:

; 62   :         }
; 63   :     }
; 64   : 
; 65   :     return _Count * _Ty_size;

	mov	eax, DWORD PTR __Count$[ebp]
	shl	eax, 3
$LN3@Get_size_o:

; 66   : }

	add	esp, 8
	cmp	ebp, esp
	call	__RTC_CheckEsp
	mov	esp, ebp
	pop	ebp
	ret	0
??$_Get_size_of_n@$07@std@@YAII@Z ENDP			; std::_Get_size_of_n<8>
_TEXT	ENDS
; Function compile flags: /Odtp /RTCsu
; File C:\Program Files\Microsoft Visual Studio\2022\Community\VC\Tools\MSVC\14.33.31629\include\xstddef
;	COMDAT ??$addressof@U_Container_base12@std@@@std@@YAPAU_Container_base12@0@AAU10@@Z
_TEXT	SEGMENT
__Val$ = 8						; size = 4
??$addressof@U_Container_base12@std@@@std@@YAPAU_Container_base12@0@AAU10@@Z PROC ; std::addressof<std::_Container_base12>, COMDAT

; 252  : _NODISCARD constexpr _Ty* addressof(_Ty& _Val) noexcept {

	push	ebp
	mov	ebp, esp

; 253  :     return __builtin_addressof(_Val);

	mov	eax, DWORD PTR __Val$[ebp]

; 254  : }

	pop	ebp
	ret	0
??$addressof@U_Container_base12@std@@@std@@YAPAU_Container_base12@0@AAU10@@Z ENDP ; std::addressof<std::_Container_base12>
_TEXT	ENDS
; Function compile flags: /Odtp /RTCsu
; File C:\Program Files\Microsoft Visual Studio\2022\Community\VC\Tools\MSVC\14.33.31629\include\xutility
;	COMDAT ??$_Voidify_iter@PAPAD@std@@YAPAXPAPAD@Z
_TEXT	SEGMENT
__It$ = 8						; size = 4
??$_Voidify_iter@PAPAD@std@@YAPAXPAPAD@Z PROC		; std::_Voidify_iter<char * *>, COMDAT

; 212  : _NODISCARD constexpr void* _Voidify_iter(_Iter _It) noexcept {

	push	ebp
	mov	ebp, esp

; 213  :     if constexpr (is_pointer_v<_Iter>) {
; 214  :         return const_cast<void*>(static_cast<const volatile void*>(_It));

	mov	eax, DWORD PTR __It$[ebp]

; 215  :     } else {
; 216  :         return const_cast<void*>(static_cast<const volatile void*>(_STD addressof(*_It)));
; 217  :     }
; 218  : }

	pop	ebp
	ret	0
??$_Voidify_iter@PAPAD@std@@YAPAXPAPAD@Z ENDP		; std::_Voidify_iter<char * *>
_TEXT	ENDS
; Function compile flags: /Odtp /RTCsu
; File C:\Program Files\Microsoft Visual Studio\2022\Community\VC\Tools\MSVC\14.33.31629\include\xstddef
;	COMDAT ??$addressof@PAD@std@@YAPAPADAAPAD@Z
_TEXT	SEGMENT
__Val$ = 8						; size = 4
??$addressof@PAD@std@@YAPAPADAAPAD@Z PROC		; std::addressof<char *>, COMDAT

; 252  : _NODISCARD constexpr _Ty* addressof(_Ty& _Val) noexcept {

	push	ebp
	mov	ebp, esp

; 253  :     return __builtin_addressof(_Val);

	mov	eax, DWORD PTR __Val$[ebp]

; 254  : }

	pop	ebp
	ret	0
??$addressof@PAD@std@@YAPAPADAAPAD@Z ENDP		; std::addressof<char *>
_TEXT	ENDS
; Function compile flags: /Odtp /RTCsu
; File C:\Program Files\Microsoft Visual Studio\2022\Community\VC\Tools\MSVC\14.33.31629\include\xutility
;	COMDAT ??$_Construct_in_place@PADABQAD@std@@YAXAAPADABQAD@Z
_TEXT	SEGMENT
$T1 = -4						; size = 4
__Obj$ = 8						; size = 4
_<_Args_0>$ = 12					; size = 4
??$_Construct_in_place@PADABQAD@std@@YAXAAPADABQAD@Z PROC ; std::_Construct_in_place<char *,char * const &>, COMDAT

; 231  :     is_nothrow_constructible_v<_Ty, _Types...>) {

	push	ebp
	mov	ebp, esp
	push	ecx
	mov	DWORD PTR [ebp-4], -858993460		; ccccccccH

; 232  : #if _HAS_CXX20
; 233  :     if (_STD is_constant_evaluated()) {
; 234  :         _STD construct_at(_STD addressof(_Obj), _STD forward<_Types>(_Args)...);
; 235  :     } else
; 236  : #endif // _HAS_CXX20
; 237  :     {
; 238  :         ::new (_Voidify_iter(_STD addressof(_Obj))) _Ty(_STD forward<_Types>(_Args)...);

	mov	eax, DWORD PTR __Obj$[ebp]
	push	eax
	call	??$addressof@PAD@std@@YAPAPADAAPAD@Z	; std::addressof<char *>
	add	esp, 4
	push	eax
	call	??$_Voidify_iter@PAPAD@std@@YAPAXPAPAD@Z ; std::_Voidify_iter<char * *>
	add	esp, 4
	push	eax
	push	4
	call	??2@YAPAXIPAX@Z				; operator new
	add	esp, 8
	mov	DWORD PTR $T1[ebp], eax
	mov	ecx, DWORD PTR _<_Args_0>$[ebp]
	push	ecx
	call	??$forward@ABQAD@std@@YAABQADABQAD@Z	; std::forward<char * const &>
	add	esp, 4
	mov	edx, DWORD PTR $T1[ebp]
	mov	eax, DWORD PTR [eax]
	mov	DWORD PTR [edx], eax

; 239  :     }
; 240  : }

	add	esp, 4
	cmp	ebp, esp
	call	__RTC_CheckEsp
	mov	esp, ebp
	pop	ebp
	ret	0
??$_Construct_in_place@PADABQAD@std@@YAXAAPADABQAD@Z ENDP ; std::_Construct_in_place<char *,char * const &>
_TEXT	ENDS
; Function compile flags: /Odtp /RTCsu
; File C:\Program Files\Microsoft Visual Studio\2022\Community\VC\Tools\MSVC\14.33.31629\include\xmemory
;	COMDAT ??1?$_Container_proxy_ptr12@V?$allocator@U_Container_proxy@std@@@std@@@std@@QAE@XZ
_TEXT	SEGMENT
_this$ = -4						; size = 4
??1?$_Container_proxy_ptr12@V?$allocator@U_Container_proxy@std@@@std@@@std@@QAE@XZ PROC ; std::_Container_proxy_ptr12<std::allocator<std::_Container_proxy> >::~_Container_proxy_ptr12<std::allocator<std::_Container_proxy> >, COMDAT
; _this$ = ecx

; 1339 :     _CONSTEXPR20 ~_Container_proxy_ptr12() {

	push	ebp
	mov	ebp, esp
	push	ecx
	mov	DWORD PTR [ebp-4], -858993460		; ccccccccH
	mov	DWORD PTR _this$[ebp], ecx

; 1340 :         if (_Ptr) {

	mov	eax, DWORD PTR _this$[ebp]
	cmp	DWORD PTR [eax], 0
	je	SHORT $LN3@Container_

; 1341 :             _Delete_plain_internal(_Al, _Ptr);

	mov	ecx, DWORD PTR _this$[ebp]
	mov	edx, DWORD PTR [ecx]
	push	edx
	mov	eax, DWORD PTR _this$[ebp]
	mov	ecx, DWORD PTR [eax+4]
	push	ecx
	call	??$_Delete_plain_internal@V?$allocator@U_Container_proxy@std@@@std@@@std@@YAXAAV?$allocator@U_Container_proxy@std@@@0@QAU_Container_proxy@0@@Z ; std::_Delete_plain_internal<std::allocator<std::_Container_proxy> >
	add	esp, 8
$LN3@Container_:

; 1342 :         }
; 1343 :     }

	add	esp, 4
	cmp	ebp, esp
	call	__RTC_CheckEsp
	mov	esp, ebp
	pop	ebp
	ret	0
??1?$_Container_proxy_ptr12@V?$allocator@U_Container_proxy@std@@@std@@@std@@QAE@XZ ENDP ; std::_Container_proxy_ptr12<std::allocator<std::_Container_proxy> >::~_Container_proxy_ptr12<std::allocator<std::_Container_proxy> >
_TEXT	ENDS
; Function compile flags: /Odtp /RTCsu
; File C:\Program Files\Microsoft Visual Studio\2022\Community\VC\Tools\MSVC\14.33.31629\include\xmemory
;	COMDAT ??0?$_Container_proxy_ptr12@V?$allocator@U_Container_proxy@std@@@std@@@std@@QAE@AAV?$allocator@U_Container_proxy@std@@@1@AAU_Container_base12@1@@Z
_TEXT	SEGMENT
$T1 = -8						; size = 4
_this$ = -4						; size = 4
__Al_$ = 8						; size = 4
__Mycont$ = 12						; size = 4
??0?$_Container_proxy_ptr12@V?$allocator@U_Container_proxy@std@@@std@@@std@@QAE@AAV?$allocator@U_Container_proxy@std@@@1@AAU_Container_base12@1@@Z PROC ; std::_Container_proxy_ptr12<std::allocator<std::_Container_proxy> >::_Container_proxy_ptr12<std::allocator<std::_Container_proxy> >, COMDAT
; _this$ = ecx

; 1325 :     _CONSTEXPR20 _Container_proxy_ptr12(_Alloc& _Al_, _Container_base12& _Mycont) : _Al(_Al_) {

	push	ebp
	mov	ebp, esp
	sub	esp, 8
	mov	DWORD PTR [ebp-8], -858993460		; ccccccccH
	mov	DWORD PTR [ebp-4], -858993460		; ccccccccH
	mov	DWORD PTR _this$[ebp], ecx
	mov	ecx, DWORD PTR _this$[ebp]
	call	??0_Basic_container_proxy_ptr12@std@@IAE@XZ ; std::_Basic_container_proxy_ptr12::_Basic_container_proxy_ptr12
	mov	eax, DWORD PTR _this$[ebp]
	mov	ecx, DWORD PTR __Al_$[ebp]
	mov	DWORD PTR [eax+4], ecx

; 1326 :         // create a new _Container_proxy pointing at _Mycont
; 1327 :         _Ptr = _Unfancy(_Al_.allocate(1));

	push	1
	mov	ecx, DWORD PTR __Al_$[ebp]
	call	?allocate@?$allocator@U_Container_proxy@std@@@std@@QAEPAU_Container_proxy@2@I@Z ; std::allocator<std::_Container_proxy>::allocate
	push	eax
	call	??$_Unfancy@U_Container_proxy@std@@@std@@YAPAU_Container_proxy@0@PAU10@@Z ; std::_Unfancy<std::_Container_proxy>
	add	esp, 4
	mov	edx, DWORD PTR _this$[ebp]
	mov	DWORD PTR [edx], eax

; 1328 :         _Construct_in_place(*_Ptr, _STD addressof(_Mycont));

	mov	eax, DWORD PTR __Mycont$[ebp]
	push	eax
	call	??$addressof@U_Container_base12@std@@@std@@YAPAU_Container_base12@0@AAU10@@Z ; std::addressof<std::_Container_base12>
	add	esp, 4
	mov	DWORD PTR $T1[ebp], eax
	lea	ecx, DWORD PTR $T1[ebp]
	push	ecx
	mov	edx, DWORD PTR _this$[ebp]
	mov	eax, DWORD PTR [edx]
	push	eax
	call	??$_Construct_in_place@U_Container_proxy@std@@PAU_Container_base12@2@@std@@YAXAAU_Container_proxy@0@$$QAPAU_Container_base12@0@@Z ; std::_Construct_in_place<std::_Container_proxy,std::_Container_base12 *>
	add	esp, 8

; 1329 :         _Mycont._Myproxy = _Ptr;

	mov	ecx, DWORD PTR __Mycont$[ebp]
	mov	edx, DWORD PTR _this$[ebp]
	mov	eax, DWORD PTR [edx]
	mov	DWORD PTR [ecx], eax

; 1330 :     }

	mov	eax, DWORD PTR _this$[ebp]
	add	esp, 8
	cmp	ebp, esp
	call	__RTC_CheckEsp
	mov	esp, ebp
	pop	ebp
	ret	8
??0?$_Container_proxy_ptr12@V?$allocator@U_Container_proxy@std@@@std@@@std@@QAE@AAV?$allocator@U_Container_proxy@std@@@1@AAU_Container_base12@1@@Z ENDP ; std::_Container_proxy_ptr12<std::allocator<std::_Container_proxy> >::_Container_proxy_ptr12<std::allocator<std::_Container_proxy> >
_TEXT	ENDS
; Function compile flags: /Odtp /RTCsu
; File C:\Program Files\Microsoft Visual Studio\2022\Community\VC\Tools\MSVC\14.33.31629\include\xutility
;	COMDAT ??$_Construct_in_place@U_Container_proxy@std@@PAU_Container_base12@2@@std@@YAXAAU_Container_proxy@0@$$QAPAU_Container_base12@0@@Z
_TEXT	SEGMENT
$T1 = -4						; size = 4
__Obj$ = 8						; size = 4
_<_Args_0>$ = 12					; size = 4
??$_Construct_in_place@U_Container_proxy@std@@PAU_Container_base12@2@@std@@YAXAAU_Container_proxy@0@$$QAPAU_Container_base12@0@@Z PROC ; std::_Construct_in_place<std::_Container_proxy,std::_Container_base12 *>, COMDAT

; 231  :     is_nothrow_constructible_v<_Ty, _Types...>) {

	push	ebp
	mov	ebp, esp
	push	ecx
	mov	DWORD PTR [ebp-4], -858993460		; ccccccccH

; 232  : #if _HAS_CXX20
; 233  :     if (_STD is_constant_evaluated()) {
; 234  :         _STD construct_at(_STD addressof(_Obj), _STD forward<_Types>(_Args)...);
; 235  :     } else
; 236  : #endif // _HAS_CXX20
; 237  :     {
; 238  :         ::new (_Voidify_iter(_STD addressof(_Obj))) _Ty(_STD forward<_Types>(_Args)...);

	mov	eax, DWORD PTR __Obj$[ebp]
	push	eax
	call	??$addressof@U_Container_proxy@std@@@std@@YAPAU_Container_proxy@0@AAU10@@Z ; std::addressof<std::_Container_proxy>
	add	esp, 4
	push	eax
	call	??$_Voidify_iter@PAU_Container_proxy@std@@@std@@YAPAXPAU_Container_proxy@0@@Z ; std::_Voidify_iter<std::_Container_proxy *>
	add	esp, 4
	push	eax
	push	8
	call	??2@YAPAXIPAX@Z				; operator new
	add	esp, 8
	mov	DWORD PTR $T1[ebp], eax
	mov	ecx, DWORD PTR _<_Args_0>$[ebp]
	push	ecx
	call	??$forward@PAU_Container_base12@std@@@std@@YA$$QAPAU_Container_base12@0@AAPAU10@@Z ; std::forward<std::_Container_base12 *>
	add	esp, 4
	mov	edx, DWORD PTR [eax]
	push	edx
	mov	ecx, DWORD PTR $T1[ebp]
	call	??0_Container_proxy@std@@QAE@PAU_Container_base12@1@@Z ; std::_Container_proxy::_Container_proxy

; 239  :     }
; 240  : }

	add	esp, 4
	cmp	ebp, esp
	call	__RTC_CheckEsp
	mov	esp, ebp
	pop	ebp
	ret	0
??$_Construct_in_place@U_Container_proxy@std@@PAU_Container_base12@2@@std@@YAXAAU_Container_proxy@0@$$QAPAU_Container_base12@0@@Z ENDP ; std::_Construct_in_place<std::_Container_proxy,std::_Container_base12 *>
_TEXT	ENDS
; Function compile flags: /Odtp /RTCsu
; File C:\Program Files\Microsoft Visual Studio\2022\Community\VC\Tools\MSVC\14.33.31629\include\xstddef
;	COMDAT ??$_Unfancy@U_Container_proxy@std@@@std@@YAPAU_Container_proxy@0@PAU10@@Z
_TEXT	SEGMENT
__Ptr$ = 8						; size = 4
??$_Unfancy@U_Container_proxy@std@@@std@@YAPAU_Container_proxy@0@PAU10@@Z PROC ; std::_Unfancy<std::_Container_proxy>, COMDAT

; 265  : _NODISCARD constexpr _Ty* _Unfancy(_Ty* _Ptr) noexcept { // do nothing for plain pointers

	push	ebp
	mov	ebp, esp

; 266  :     return _Ptr;

	mov	eax, DWORD PTR __Ptr$[ebp]

; 267  : }

	pop	ebp
	ret	0
??$_Unfancy@U_Container_proxy@std@@@std@@YAPAU_Container_proxy@0@PAU10@@Z ENDP ; std::_Unfancy<std::_Container_proxy>
_TEXT	ENDS
; Function compile flags: /Odtp /RTCsu
; File C:\Program Files\Microsoft Visual Studio\2022\Community\VC\Tools\MSVC\14.33.31629\include\xmemory
;	COMDAT ??$_Deallocate_plain@V?$allocator@U_Container_proxy@std@@@std@@@std@@YAXAAV?$allocator@U_Container_proxy@std@@@0@QAU_Container_proxy@0@@Z
_TEXT	SEGMENT
__$EHRec$ = -12						; size = 12
__Al$ = 8						; size = 4
__Ptr$ = 12						; size = 4
??$_Deallocate_plain@V?$allocator@U_Container_proxy@std@@@std@@@std@@YAXAAV?$allocator@U_Container_proxy@std@@@0@QAU_Container_proxy@0@@Z PROC ; std::_Deallocate_plain<std::allocator<std::_Container_proxy> >, COMDAT

; 977  : _CONSTEXPR20 void _Deallocate_plain(_Alloc& _Al, typename _Alloc::value_type* const _Ptr) noexcept {

	push	ebp
	mov	ebp, esp
	push	-1
	push	__ehhandler$??$_Deallocate_plain@V?$allocator@U_Container_proxy@std@@@std@@@std@@YAXAAV?$allocator@U_Container_proxy@std@@@0@QAU_Container_proxy@0@@Z
	mov	eax, DWORD PTR fs:0
	push	eax
	mov	eax, DWORD PTR ___security_cookie
	xor	eax, ebp
	push	eax
	lea	eax, DWORD PTR __$EHRec$[ebp]
	mov	DWORD PTR fs:0, eax

; 978  :     // deallocate a plain pointer using an allocator
; 979  :     using _Alloc_traits = allocator_traits<_Alloc>;
; 980  :     if constexpr (is_same_v<_Alloc_ptr_t<_Alloc>, typename _Alloc::value_type*>) {
; 981  :         _Alloc_traits::deallocate(_Al, _Ptr, 1);

	push	1
	mov	eax, DWORD PTR __Ptr$[ebp]
	push	eax
	mov	ecx, DWORD PTR __Al$[ebp]
	push	ecx
	call	?deallocate@?$_Default_allocator_traits@V?$allocator@U_Container_proxy@std@@@std@@@std@@SAXAAV?$allocator@U_Container_proxy@std@@@2@QAU_Container_proxy@2@I@Z ; std::_Default_allocator_traits<std::allocator<std::_Container_proxy> >::deallocate
	add	esp, 12					; 0000000cH

; 982  :     } else {
; 983  :         using _Ptr_traits = pointer_traits<_Alloc_ptr_t<_Alloc>>;
; 984  :         _Alloc_traits::deallocate(_Al, _Ptr_traits::pointer_to(*_Ptr), 1);
; 985  :     }
; 986  : }

	mov	ecx, DWORD PTR __$EHRec$[ebp]
	mov	DWORD PTR fs:0, ecx
	pop	ecx
	add	esp, 12					; 0000000cH
	cmp	ebp, esp
	call	__RTC_CheckEsp
	mov	esp, ebp
	pop	ebp
	ret	0
	int	3
	int	3
	int	3
	int	3
	int	3
_TEXT	ENDS
;	COMDAT text$x
text$x	SEGMENT
__ehhandler$??$_Deallocate_plain@V?$allocator@U_Container_proxy@std@@@std@@@std@@YAXAAV?$allocator@U_Container_proxy@std@@@0@QAU_Container_proxy@0@@Z:
	npad	1
	npad	1
	mov	edx, DWORD PTR [esp+8]
	lea	eax, DWORD PTR [edx+12]
	mov	ecx, DWORD PTR [edx-4]
	xor	ecx, eax
	call	@__security_check_cookie@4
	mov	eax, OFFSET __ehfuncinfo$??$_Deallocate_plain@V?$allocator@U_Container_proxy@std@@@std@@@std@@YAXAAV?$allocator@U_Container_proxy@std@@@0@QAU_Container_proxy@0@@Z
	jmp	___CxxFrameHandler3
text$x	ENDS
??$_Deallocate_plain@V?$allocator@U_Container_proxy@std@@@std@@@std@@YAXAAV?$allocator@U_Container_proxy@std@@@0@QAU_Container_proxy@0@@Z ENDP ; std::_Deallocate_plain<std::allocator<std::_Container_proxy> >
; Function compile flags: /Odtp /RTCsu
; File C:\Program Files\Microsoft Visual Studio\2022\Community\VC\Tools\MSVC\14.33.31629\include\xmemory
;	COMDAT ??$_Deallocate@$07$0A@@std@@YAXPAXI@Z
_TEXT	SEGMENT
__$EHRec$ = -12						; size = 12
__Ptr$ = 8						; size = 4
__Bytes$ = 12						; size = 4
??$_Deallocate@$07$0A@@std@@YAXPAXI@Z PROC		; std::_Deallocate<8,0>, COMDAT

; 244  : _CONSTEXPR20 void _Deallocate(void* _Ptr, size_t _Bytes) noexcept {

	push	ebp
	mov	ebp, esp
	push	-1
	push	__ehhandler$??$_Deallocate@$07$0A@@std@@YAXPAXI@Z
	mov	eax, DWORD PTR fs:0
	push	eax
	mov	eax, DWORD PTR ___security_cookie
	xor	eax, ebp
	push	eax
	lea	eax, DWORD PTR __$EHRec$[ebp]
	mov	DWORD PTR fs:0, eax

; 245  :     // deallocate storage allocated by _Allocate when !_HAS_ALIGNED_NEW || _Align <= __STDCPP_DEFAULT_NEW_ALIGNMENT__
; 246  : #if _HAS_CXX20 // TRANSITION, GH-1532
; 247  :     if (_STD is_constant_evaluated()) {
; 248  :         ::operator delete(_Ptr);
; 249  :     } else
; 250  : #endif // _HAS_CXX20
; 251  :     {
; 252  : #if defined(_M_IX86) || defined(_M_X64)
; 253  :         if (_Bytes >= _Big_allocation_threshold) { // boost the alignment of big allocations to help autovectorization

	cmp	DWORD PTR __Bytes$[ebp], 4096		; 00001000H
	jb	SHORT $LN2@Deallocate

; 254  :             _Adjust_manually_vector_aligned(_Ptr, _Bytes);

	lea	eax, DWORD PTR __Bytes$[ebp]
	push	eax
	lea	ecx, DWORD PTR __Ptr$[ebp]
	push	ecx
	call	?_Adjust_manually_vector_aligned@std@@YAXAAPAXAAI@Z ; std::_Adjust_manually_vector_aligned
	add	esp, 8
$LN2@Deallocate:

; 255  :         }
; 256  : #endif // defined(_M_IX86) || defined(_M_X64)
; 257  :         ::operator delete(_Ptr, _Bytes);

	mov	edx, DWORD PTR __Bytes$[ebp]
	push	edx
	mov	eax, DWORD PTR __Ptr$[ebp]
	push	eax
	call	??3@YAXPAXI@Z				; operator delete
	add	esp, 8

; 258  :     }
; 259  : }

	mov	ecx, DWORD PTR __$EHRec$[ebp]
	mov	DWORD PTR fs:0, ecx
	pop	ecx
	add	esp, 12					; 0000000cH
	cmp	ebp, esp
	call	__RTC_CheckEsp
	mov	esp, ebp
	pop	ebp
	ret	0
	int	3
	int	3
	int	3
	int	3
	int	3
_TEXT	ENDS
;	COMDAT text$x
text$x	SEGMENT
__ehhandler$??$_Deallocate@$07$0A@@std@@YAXPAXI@Z:
	npad	1
	npad	1
	mov	edx, DWORD PTR [esp+8]
	lea	eax, DWORD PTR [edx+12]
	mov	ecx, DWORD PTR [edx-4]
	xor	ecx, eax
	call	@__security_check_cookie@4
	mov	eax, OFFSET __ehfuncinfo$??$_Deallocate@$07$0A@@std@@YAXPAXI@Z
	jmp	___CxxFrameHandler3
text$x	ENDS
??$_Deallocate@$07$0A@@std@@YAXPAXI@Z ENDP		; std::_Deallocate<8,0>
; Function compile flags: /Odtp /RTCsu
; File C:\Program Files\Microsoft Visual Studio\2022\Community\VC\Tools\MSVC\14.33.31629\include\utility
;	COMDAT ??$max@I@std@@YAABIABI0@Z
_TEXT	SEGMENT
tv65 = -8						; size = 4
$T1 = -4						; size = 4
__Left$ = 8						; size = 4
__Right$ = 12						; size = 4
??$max@I@std@@YAABIABI0@Z PROC				; std::max<unsigned int>, COMDAT

; 41   :     (max) (const _Ty& _Left, const _Ty& _Right) noexcept(noexcept(_Left < _Right)) /* strengthened */ {

	push	ebp
	mov	ebp, esp
	sub	esp, 8

; 42   :     // return larger of _Left and _Right
; 43   :     return _Left < _Right ? _Right : _Left;

	mov	eax, DWORD PTR __Left$[ebp]
	mov	ecx, DWORD PTR __Right$[ebp]
	mov	edx, DWORD PTR [eax]
	cmp	edx, DWORD PTR [ecx]
	jae	SHORT $LN3@max
	mov	eax, DWORD PTR __Right$[ebp]
	mov	DWORD PTR tv65[ebp], eax
	jmp	SHORT $LN4@max
$LN3@max:
	mov	ecx, DWORD PTR __Left$[ebp]
	mov	DWORD PTR tv65[ebp], ecx
$LN4@max:
	mov	edx, DWORD PTR tv65[ebp]
	mov	DWORD PTR $T1[ebp], edx
	mov	eax, DWORD PTR $T1[ebp]

; 44   : }

	mov	esp, ebp
	pop	ebp
	ret	0
??$max@I@std@@YAABIABI0@Z ENDP				; std::max<unsigned int>
_TEXT	ENDS
; Function compile flags: /Odtp /RTCsu
; File C:\Program Files\Microsoft Visual Studio\2022\Community\VC\Tools\MSVC\14.33.31629\include\xstddef
;	COMDAT ??$_Unfancy@D@std@@YAPADPAD@Z
_TEXT	SEGMENT
__Ptr$ = 8						; size = 4
??$_Unfancy@D@std@@YAPADPAD@Z PROC			; std::_Unfancy<char>, COMDAT

; 265  : _NODISCARD constexpr _Ty* _Unfancy(_Ty* _Ptr) noexcept { // do nothing for plain pointers

	push	ebp
	mov	ebp, esp

; 266  :     return _Ptr;

	mov	eax, DWORD PTR __Ptr$[ebp]

; 267  : }

	pop	ebp
	ret	0
??$_Unfancy@D@std@@YAPADPAD@Z ENDP			; std::_Unfancy<char>
_TEXT	ENDS
; Function compile flags: /Odtp /RTCsu
; File C:\Program Files\Microsoft Visual Studio\2022\Community\VC\Tools\MSVC\14.33.31629\include\xmemory
;	COMDAT ??$_Destroy_in_place@PAD@std@@YAXAAPAD@Z
_TEXT	SEGMENT
__Obj$ = 8						; size = 4
??$_Destroy_in_place@PAD@std@@YAXAAPAD@Z PROC		; std::_Destroy_in_place<char *>, COMDAT

; 296  : _CONSTEXPR20 void _Destroy_in_place(_Ty& _Obj) noexcept {

	push	ebp
	mov	ebp, esp

; 297  :     if constexpr (is_array_v<_Ty>) {
; 298  :         _Destroy_range(_Obj, _Obj + extent_v<_Ty>);
; 299  :     } else {
; 300  :         _Obj.~_Ty();
; 301  :     }
; 302  : }

	pop	ebp
	ret	0
??$_Destroy_in_place@PAD@std@@YAXAAPAD@Z ENDP		; std::_Destroy_in_place<char *>
_TEXT	ENDS
; Function compile flags: /Odtp /RTCsu
; File C:\Program Files\Microsoft Visual Studio\2022\Community\VC\Tools\MSVC\14.33.31629\include\xstring
;	COMDAT ??$_Construct@$00PBD@?$basic_string@DU?$char_traits@D@std@@V?$allocator@D@2@@std@@AAEXQBDI@Z
_TEXT	SEGMENT
tv83 = -79						; size = 1
$T2 = -78						; size = 1
$T3 = -77						; size = 1
__New_ptr$ = -72					; size = 4
__New_capacity$ = -64					; size = 4
__Stay_small$ = -57					; size = 1
__Proxy$ = -52						; size = 8
_$S12$ = -33						; size = 1
__Alproxy$ = -28					; size = 4
__Al$ = -24						; size = 4
__My_data$ = -20					; size = 4
_this$ = -16						; size = 4
__$EHRec$ = -12						; size = 12
__Arg$ = 8						; size = 4
__Count$ = 12						; size = 4
??$_Construct@$00PBD@?$basic_string@DU?$char_traits@D@std@@V?$allocator@D@2@@std@@AAEXQBDI@Z PROC ; std::basic_string<char,std::char_traits<char>,std::allocator<char> >::_Construct<1,char const *>, COMDAT
; _this$ = ecx

; 2672 :     _CONSTEXPR20 void _Construct(const _Char_or_ptr _Arg, _CRT_GUARDOVERFLOW const size_type _Count) {

	push	ebp
	mov	ebp, esp
	push	-1
	push	__ehhandler$??$_Construct@$00PBD@?$basic_string@DU?$char_traits@D@std@@V?$allocator@D@2@@std@@AAEXQBDI@Z
	mov	eax, DWORD PTR fs:0
	push	eax
	sub	esp, 68					; 00000044H
	push	edi
	push	ecx
	lea	edi, DWORD PTR [ebp-80]
	mov	ecx, 17					; 00000011H
	mov	eax, -858993460				; ccccccccH
	rep stosd
	pop	ecx
	mov	eax, DWORD PTR ___security_cookie
	xor	eax, ebp
	push	eax
	lea	eax, DWORD PTR __$EHRec$[ebp]
	mov	DWORD PTR fs:0, eax
	mov	DWORD PTR _this$[ebp], ecx

; 2673 :         if constexpr (_Strat == _Construct_strategy::_From_char) {
; 2674 :             _STL_INTERNAL_STATIC_ASSERT(is_same_v<_Char_or_ptr, _Elem>);
; 2675 :         } else {
; 2676 :             _STL_INTERNAL_STATIC_ASSERT(_Is_elem_cptr<_Char_or_ptr>::value);
; 2677 :         }
; 2678 : 
; 2679 :         if (_Count > max_size()) {

	mov	ecx, DWORD PTR _this$[ebp]
	call	?max_size@?$basic_string@DU?$char_traits@D@std@@V?$allocator@D@2@@std@@QBEIXZ ; std::basic_string<char,std::char_traits<char>,std::allocator<char> >::max_size
	cmp	DWORD PTR __Count$[ebp], eax
	jbe	SHORT $LN2@Construct

; 2680 :             _Xlen_string(); // result too long

	call	?_Xlen_string@std@@YAXXZ		; std::_Xlen_string
$LN2@Construct:

; 2681 :         }
; 2682 : 
; 2683 :         auto& _My_data  = _Mypair._Myval2;

	mov	eax, DWORD PTR _this$[ebp]
	mov	DWORD PTR __My_data$[ebp], eax

; 2684 :         auto& _Al       = _Getal();

	mov	ecx, DWORD PTR _this$[ebp]
	call	?_Getal@?$basic_string@DU?$char_traits@D@std@@V?$allocator@D@2@@std@@AAEAAV?$allocator@D@2@XZ ; std::basic_string<char,std::char_traits<char>,std::allocator<char> >::_Getal
	mov	DWORD PTR __Al$[ebp], eax

; 2685 :         auto&& _Alproxy = _GET_PROXY_ALLOCATOR(_Alty, _Al);

	mov	ecx, DWORD PTR __Al$[ebp]
	push	ecx
	lea	ecx, DWORD PTR _$S12$[ebp]
	call	??$?0D@?$allocator@U_Container_proxy@std@@@std@@QAE@ABV?$allocator@D@1@@Z ; std::allocator<std::_Container_proxy>::allocator<std::_Container_proxy><char>
	lea	edx, DWORD PTR _$S12$[ebp]
	mov	DWORD PTR __Alproxy$[ebp], edx

; 2686 :         _Container_proxy_ptr<_Alty> _Proxy(_Alproxy, _My_data);

	mov	eax, DWORD PTR __My_data$[ebp]
	push	eax
	mov	ecx, DWORD PTR __Alproxy$[ebp]
	push	ecx
	lea	ecx, DWORD PTR __Proxy$[ebp]
	call	??0?$_Container_proxy_ptr12@V?$allocator@U_Container_proxy@std@@@std@@@std@@QAE@AAV?$allocator@U_Container_proxy@std@@@1@AAU_Container_base12@1@@Z ; std::_Container_proxy_ptr12<std::allocator<std::_Container_proxy> >::_Container_proxy_ptr12<std::allocator<std::_Container_proxy> >
	mov	DWORD PTR __$EHRec$[ebp+8], 0

; 2687 : 
; 2688 : #if _HAS_CXX20
; 2689 :         if (_STD is_constant_evaluated()) {
; 2690 :             _My_data._Myres = _BUF_SIZE; // TRANSITION: constexpr SSO
; 2691 :         }
; 2692 : 
; 2693 :         const bool _Stay_small = _Count < _BUF_SIZE && !_STD is_constant_evaluated();
; 2694 : #else // ^^^ _HAS_CXX20 / !_HAS_CXX20 vvv
; 2695 :         const bool _Stay_small = _Count < _BUF_SIZE;

	cmp	DWORD PTR __Count$[ebp], 16		; 00000010H
	jae	SHORT $LN5@Construct
	mov	BYTE PTR tv83[ebp], 1
	jmp	SHORT $LN6@Construct
$LN5@Construct:
	mov	BYTE PTR tv83[ebp], 0
$LN6@Construct:
	mov	dl, BYTE PTR tv83[ebp]
	mov	BYTE PTR __Stay_small$[ebp], dl

; 2696 : #endif // _HAS_CXX20
; 2697 : 
; 2698 :         if (_Stay_small) {

	movzx	eax, BYTE PTR __Stay_small$[ebp]
	test	eax, eax
	je	SHORT $LN3@Construct

; 2699 : #if _HAS_CXX20
; 2700 :             // TRANSITION: This is currently unused until SSO support is merged
; 2701 :             if (_STD is_constant_evaluated()) {
; 2702 :                 _Construct_in_place(_My_data._Bx);
; 2703 :             }
; 2704 : #endif // _HAS_CXX20
; 2705 : 
; 2706 :             _My_data._Mysize = _Count;

	mov	ecx, DWORD PTR __My_data$[ebp]
	mov	edx, DWORD PTR __Count$[ebp]
	mov	DWORD PTR [ecx+20], edx

; 2707 :             _My_data._Myres  = _BUF_SIZE - 1;

	mov	eax, DWORD PTR __My_data$[ebp]
	mov	DWORD PTR [eax+24], 15			; 0000000fH

; 2708 :             if constexpr (_Strat == _Construct_strategy::_From_char) {
; 2709 :                 _Traits::assign(_My_data._Bx._Buf, _Count, _Arg);
; 2710 :                 _Traits::assign(_My_data._Bx._Buf[_Count], _Elem());
; 2711 :             } else if constexpr (_Strat == _Construct_strategy::_From_ptr) {
; 2712 :                 _Traits::move(_My_data._Bx._Buf, _Arg, _Count);

	mov	ecx, DWORD PTR __Count$[ebp]
	push	ecx
	mov	edx, DWORD PTR __Arg$[ebp]
	push	edx
	mov	eax, DWORD PTR __My_data$[ebp]
	add	eax, 4
	push	eax
	call	?move@?$_Char_traits@DH@std@@SAPADQADQBDI@Z ; std::_Char_traits<char,int>::move
	add	esp, 12					; 0000000cH

; 2713 :                 _Traits::assign(_My_data._Bx._Buf[_Count], _Elem());

	mov	BYTE PTR $T3[ebp], 0
	lea	ecx, DWORD PTR $T3[ebp]
	push	ecx
	mov	edx, DWORD PTR __Count$[ebp]
	mov	eax, DWORD PTR __My_data$[ebp]
	lea	ecx, DWORD PTR [eax+edx+4]
	push	ecx
	call	?assign@?$_Narrow_char_traits@DH@std@@SAXAADABD@Z ; std::_Narrow_char_traits<char,int>::assign
	add	esp, 8

; 2714 :             } else { // _Strat == _Construct_strategy::_From_string
; 2715 : #ifdef _INSERT_STRING_ANNOTATION
; 2716 :                 _Traits::move(_My_data._Bx._Buf, _Arg, _Count);
; 2717 : #else // ^^^ _INSERT_STRING_ANNOTATION ^^^ // vvv !_INSERT_STRING_ANNOTATION vvv
; 2718 :                 _Traits::move(_My_data._Bx._Buf, _Arg, _BUF_SIZE);
; 2719 : #endif // !_INSERT_STRING_ANNOTATION
; 2720 :             }
; 2721 : 
; 2722 :             _ASAN_STRING_CREATE(*this);
; 2723 :             _Proxy._Release();

	lea	ecx, DWORD PTR __Proxy$[ebp]
	call	?_Release@_Basic_container_proxy_ptr12@std@@QAEXXZ ; std::_Basic_container_proxy_ptr12::_Release

; 2724 :             return;

	mov	DWORD PTR __$EHRec$[ebp+8], -1
	lea	ecx, DWORD PTR __Proxy$[ebp]
	call	??1?$_Container_proxy_ptr12@V?$allocator@U_Container_proxy@std@@@std@@@std@@QAE@XZ ; std::_Container_proxy_ptr12<std::allocator<std::_Container_proxy> >::~_Container_proxy_ptr12<std::allocator<std::_Container_proxy> >
	jmp	$LN4@Construct
$LN3@Construct:

; 2725 :         }
; 2726 : 
; 2727 :         _My_data._Myres               = _BUF_SIZE - 1;

	mov	edx, DWORD PTR __My_data$[ebp]
	mov	DWORD PTR [edx+24], 15			; 0000000fH

; 2728 :         const size_type _New_capacity = _Calculate_growth(_Count);

	mov	eax, DWORD PTR __Count$[ebp]
	push	eax
	mov	ecx, DWORD PTR _this$[ebp]
	call	?_Calculate_growth@?$basic_string@DU?$char_traits@D@std@@V?$allocator@D@2@@std@@ABEII@Z ; std::basic_string<char,std::char_traits<char>,std::allocator<char> >::_Calculate_growth
	mov	DWORD PTR __New_capacity$[ebp], eax

; 2729 :         const pointer _New_ptr        = _Al.allocate(_New_capacity + 1); // throws

	mov	ecx, DWORD PTR __New_capacity$[ebp]
	add	ecx, 1
	push	ecx
	mov	ecx, DWORD PTR __Al$[ebp]
	call	?allocate@?$allocator@D@std@@QAEPADI@Z	; std::allocator<char>::allocate
	mov	DWORD PTR __New_ptr$[ebp], eax

; 2730 :         _Construct_in_place(_My_data._Bx._Ptr, _New_ptr);

	lea	edx, DWORD PTR __New_ptr$[ebp]
	push	edx
	mov	eax, DWORD PTR __My_data$[ebp]
	add	eax, 4
	push	eax
	call	??$_Construct_in_place@PADABQAD@std@@YAXAAPADABQAD@Z ; std::_Construct_in_place<char *,char * const &>
	add	esp, 8

; 2731 : 
; 2732 : #if _HAS_CXX20
; 2733 :         if (_STD is_constant_evaluated()) { // Begin the lifetimes of the objects before copying to avoid UB
; 2734 :             _Traits::assign(_Unfancy(_New_ptr), _New_capacity + 1, _Elem());
; 2735 :         }
; 2736 : #endif // _HAS_CXX20
; 2737 : 
; 2738 :         _My_data._Mysize = _Count;

	mov	ecx, DWORD PTR __My_data$[ebp]
	mov	edx, DWORD PTR __Count$[ebp]
	mov	DWORD PTR [ecx+20], edx

; 2739 :         _My_data._Myres  = _New_capacity;

	mov	eax, DWORD PTR __My_data$[ebp]
	mov	ecx, DWORD PTR __New_capacity$[ebp]
	mov	DWORD PTR [eax+24], ecx

; 2740 :         if constexpr (_Strat == _Construct_strategy::_From_char) {
; 2741 :             _Traits::assign(_Unfancy(_New_ptr), _Count, _Arg);
; 2742 :             _Traits::assign(_Unfancy(_New_ptr)[_Count], _Elem());
; 2743 :         } else if constexpr (_Strat == _Construct_strategy::_From_ptr) {
; 2744 :             _Traits::copy(_Unfancy(_New_ptr), _Arg, _Count);

	mov	edx, DWORD PTR __Count$[ebp]
	push	edx
	mov	eax, DWORD PTR __Arg$[ebp]
	push	eax
	mov	ecx, DWORD PTR __New_ptr$[ebp]
	push	ecx
	call	??$_Unfancy@D@std@@YAPADPAD@Z		; std::_Unfancy<char>
	add	esp, 4
	push	eax
	call	?copy@?$_Char_traits@DH@std@@SAPADQADQBDI@Z ; std::_Char_traits<char,int>::copy
	add	esp, 12					; 0000000cH

; 2745 :             _Traits::assign(_Unfancy(_New_ptr)[_Count], _Elem());

	mov	BYTE PTR $T2[ebp], 0
	lea	edx, DWORD PTR $T2[ebp]
	push	edx
	mov	eax, DWORD PTR __New_ptr$[ebp]
	push	eax
	call	??$_Unfancy@D@std@@YAPADPAD@Z		; std::_Unfancy<char>
	add	esp, 4
	add	eax, DWORD PTR __Count$[ebp]
	push	eax
	call	?assign@?$_Narrow_char_traits@DH@std@@SAXAADABD@Z ; std::_Narrow_char_traits<char,int>::assign
	add	esp, 8

; 2746 :         } else { // _Strat == _Construct_strategy::_From_string
; 2747 :             _Traits::copy(_Unfancy(_New_ptr), _Arg, _Count + 1);
; 2748 :         }
; 2749 : 
; 2750 :         _ASAN_STRING_CREATE(*this);
; 2751 :         _Proxy._Release();

	lea	ecx, DWORD PTR __Proxy$[ebp]
	call	?_Release@_Basic_container_proxy_ptr12@std@@QAEXXZ ; std::_Basic_container_proxy_ptr12::_Release

; 2752 :     }

	mov	DWORD PTR __$EHRec$[ebp+8], -1
	lea	ecx, DWORD PTR __Proxy$[ebp]
	call	??1?$_Container_proxy_ptr12@V?$allocator@U_Container_proxy@std@@@std@@@std@@QAE@XZ ; std::_Container_proxy_ptr12<std::allocator<std::_Container_proxy> >::~_Container_proxy_ptr12<std::allocator<std::_Container_proxy> >
$LN4@Construct:
	push	edx
	mov	ecx, ebp
	push	eax
	lea	edx, DWORD PTR $LN13@Construct
	call	@_RTC_CheckStackVars@8
	pop	eax
	pop	edx
	mov	ecx, DWORD PTR __$EHRec$[ebp]
	mov	DWORD PTR fs:0, ecx
	pop	ecx
	pop	edi
	add	esp, 80					; 00000050H
	cmp	ebp, esp
	call	__RTC_CheckEsp
	mov	esp, ebp
	pop	ebp
	ret	8
	npad	2
$LN13@Construct:
	DD	3
	DD	$LN12@Construct
$LN12@Construct:
	DD	-33					; ffffffdfH
	DD	1
	DD	$LN8@Construct
	DD	-52					; ffffffccH
	DD	8
	DD	$LN9@Construct
	DD	-72					; ffffffb8H
	DD	4
	DD	$LN10@Construct
$LN10@Construct:
	DB	95					; 0000005fH
	DB	78					; 0000004eH
	DB	101					; 00000065H
	DB	119					; 00000077H
	DB	95					; 0000005fH
	DB	112					; 00000070H
	DB	116					; 00000074H
	DB	114					; 00000072H
	DB	0
$LN9@Construct:
	DB	95					; 0000005fH
	DB	80					; 00000050H
	DB	114					; 00000072H
	DB	111					; 0000006fH
	DB	120					; 00000078H
	DB	121					; 00000079H
	DB	0
$LN8@Construct:
	DB	36					; 00000024H
	DB	83					; 00000053H
	DB	49					; 00000031H
	DB	50					; 00000032H
	DB	0
_TEXT	ENDS
;	COMDAT text$x
text$x	SEGMENT
__unwindfunclet$??$_Construct@$00PBD@?$basic_string@DU?$char_traits@D@std@@V?$allocator@D@2@@std@@AAEXQBDI@Z$0:
	lea	ecx, DWORD PTR __Proxy$[ebp]
	jmp	??1?$_Container_proxy_ptr12@V?$allocator@U_Container_proxy@std@@@std@@@std@@QAE@XZ ; std::_Container_proxy_ptr12<std::allocator<std::_Container_proxy> >::~_Container_proxy_ptr12<std::allocator<std::_Container_proxy> >
	int	3
	int	3
	int	3
	int	3
	int	3
__ehhandler$??$_Construct@$00PBD@?$basic_string@DU?$char_traits@D@std@@V?$allocator@D@2@@std@@AAEXQBDI@Z:
	npad	1
	npad	1
	mov	edx, DWORD PTR [esp+8]
	lea	eax, DWORD PTR [edx+12]
	mov	ecx, DWORD PTR [edx-76]
	xor	ecx, eax
	call	@__security_check_cookie@4
	mov	eax, OFFSET __ehfuncinfo$??$_Construct@$00PBD@?$basic_string@DU?$char_traits@D@std@@V?$allocator@D@2@@std@@AAEXQBDI@Z
	jmp	___CxxFrameHandler3
text$x	ENDS
??$_Construct@$00PBD@?$basic_string@DU?$char_traits@D@std@@V?$allocator@D@2@@std@@AAEXQBDI@Z ENDP ; std::basic_string<char,std::char_traits<char>,std::allocator<char> >::_Construct<1,char const *>
; Function compile flags: /Odtp /RTCsu
; File C:\Program Files\Microsoft Visual Studio\2022\Community\VC\Tools\MSVC\14.33.31629\include\xmemory
;	COMDAT ??$?0$$V@?$_Compressed_pair@V?$allocator@D@std@@V?$_String_val@U?$_Simple_types@D@std@@@2@$00@std@@QAE@U_Zero_then_variadic_args_t@1@@Z
_TEXT	SEGMENT
_this$ = -4						; size = 4
___formal$ = 8						; size = 1
??$?0$$V@?$_Compressed_pair@V?$allocator@D@std@@V?$_String_val@U?$_Simple_types@D@std@@@2@$00@std@@QAE@U_Zero_then_variadic_args_t@1@@Z PROC ; std::_Compressed_pair<std::allocator<char>,std::_String_val<std::_Simple_types<char> >,1>::_Compressed_pair<std::allocator<char>,std::_String_val<std::_Simple_types<char> >,1><>, COMDAT
; _this$ = ecx

; 1375 :         : _Ty1(), _Myval2(_STD forward<_Other2>(_Val2)...) {}

	push	ebp
	mov	ebp, esp
	push	ecx
	mov	DWORD PTR [ebp-4], -858993460		; ccccccccH
	mov	DWORD PTR _this$[ebp], ecx
	mov	ecx, DWORD PTR _this$[ebp]
	call	??0?$allocator@D@std@@QAE@XZ		; std::allocator<char>::allocator<char>
	mov	ecx, DWORD PTR _this$[ebp]
	call	??0?$_String_val@U?$_Simple_types@D@std@@@std@@QAE@XZ ; std::_String_val<std::_Simple_types<char> >::_String_val<std::_Simple_types<char> >
	mov	eax, DWORD PTR _this$[ebp]
	add	esp, 4
	cmp	ebp, esp
	call	__RTC_CheckEsp
	mov	esp, ebp
	pop	ebp
	ret	4
??$?0$$V@?$_Compressed_pair@V?$allocator@D@std@@V?$_String_val@U?$_Simple_types@D@std@@@2@$00@std@@QAE@U_Zero_then_variadic_args_t@1@@Z ENDP ; std::_Compressed_pair<std::allocator<char>,std::_String_val<std::_Simple_types<char> >,1>::_Compressed_pair<std::allocator<char>,std::_String_val<std::_Simple_types<char> >,1><>
_TEXT	ENDS
; Function compile flags: /Odtp /RTCsu
; File C:\Program Files\Microsoft Visual Studio\2022\Community\VC\Tools\MSVC\14.33.31629\include\xmemory
;	COMDAT ??$?0D@?$allocator@U_Container_proxy@std@@@std@@QAE@ABV?$allocator@D@1@@Z
_TEXT	SEGMENT
_this$ = -4						; size = 4
___formal$ = 8						; size = 4
??$?0D@?$allocator@U_Container_proxy@std@@@std@@QAE@ABV?$allocator@D@1@@Z PROC ; std::allocator<std::_Container_proxy>::allocator<std::_Container_proxy><char>, COMDAT
; _this$ = ecx

; 825  :     constexpr allocator(const allocator<_Other>&) noexcept {}

	push	ebp
	mov	ebp, esp
	push	ecx
	mov	DWORD PTR _this$[ebp], ecx
	mov	eax, DWORD PTR _this$[ebp]
	mov	esp, ebp
	pop	ebp
	ret	4
??$?0D@?$allocator@U_Container_proxy@std@@@std@@QAE@ABV?$allocator@D@1@@Z ENDP ; std::allocator<std::_Container_proxy>::allocator<std::_Container_proxy><char>
_TEXT	ENDS
; Function compile flags: /Odtp /RTCsu
; File C:\Program Files\Microsoft Visual Studio\2022\Community\VC\Tools\MSVC\14.33.31629\include\xmemory
;	COMDAT ??$_Convert_size@I@std@@YAII@Z
_TEXT	SEGMENT
__Len$ = 8						; size = 4
??$_Convert_size@I@std@@YAII@Z PROC			; std::_Convert_size<unsigned int>, COMDAT

; 965  : _NODISCARD constexpr _Size_type _Convert_size(const size_t _Len) noexcept(is_same_v<_Size_type, size_t>) {

	push	ebp
	mov	ebp, esp

; 966  :     // convert size_t to _Size_type, avoiding truncation
; 967  :     if constexpr (!is_same_v<_Size_type, size_t>) {
; 968  :         if (_Len > (numeric_limits<_Size_type>::max)()) {
; 969  :             _Xlength_error("size_t too long for _Size_type");
; 970  :         }
; 971  :     }
; 972  : 
; 973  :     return static_cast<_Size_type>(_Len);

	mov	eax, DWORD PTR __Len$[ebp]

; 974  : }

	pop	ebp
	ret	0
??$_Convert_size@I@std@@YAII@Z ENDP			; std::_Convert_size<unsigned int>
_TEXT	ENDS
; Function compile flags: /Odtp /RTCsu
; File C:\Program Files\Microsoft Visual Studio\2022\Community\VC\Tools\MSVC\14.33.31629\include\xmemory
;	COMDAT ??$_Delete_plain_internal@V?$allocator@U_Container_proxy@std@@@std@@@std@@YAXAAV?$allocator@U_Container_proxy@std@@@0@QAU_Container_proxy@0@@Z
_TEXT	SEGMENT
__Al$ = 8						; size = 4
__Ptr$ = 12						; size = 4
??$_Delete_plain_internal@V?$allocator@U_Container_proxy@std@@@std@@@std@@YAXAAV?$allocator@U_Container_proxy@std@@@0@QAU_Container_proxy@0@@Z PROC ; std::_Delete_plain_internal<std::allocator<std::_Container_proxy> >, COMDAT

; 989  : _CONSTEXPR20 void _Delete_plain_internal(_Alloc& _Al, typename _Alloc::value_type* const _Ptr) noexcept {

	push	ebp
	mov	ebp, esp

; 990  :     // destroy *_Ptr in place, then deallocate _Ptr using _Al; used for internal container types the user didn't name
; 991  :     using _Ty = typename _Alloc::value_type;
; 992  :     _Ptr->~_Ty();
; 993  :     _Deallocate_plain(_Al, _Ptr);

	mov	eax, DWORD PTR __Ptr$[ebp]
	push	eax
	mov	ecx, DWORD PTR __Al$[ebp]
	push	ecx
	call	??$_Deallocate_plain@V?$allocator@U_Container_proxy@std@@@std@@@std@@YAXAAV?$allocator@U_Container_proxy@std@@@0@QAU_Container_proxy@0@@Z ; std::_Deallocate_plain<std::allocator<std::_Container_proxy> >
	add	esp, 8

; 994  : }

	cmp	ebp, esp
	call	__RTC_CheckEsp
	pop	ebp
	ret	0
??$_Delete_plain_internal@V?$allocator@U_Container_proxy@std@@@std@@@std@@YAXAAV?$allocator@U_Container_proxy@std@@@0@QAU_Container_proxy@0@@Z ENDP ; std::_Delete_plain_internal<std::allocator<std::_Container_proxy> >
_TEXT	ENDS
; Function compile flags: /Odtp /RTCsu
; File C:\Program Files\Microsoft Visual Studio\2022\Community\VC\Tools\MSVC\14.33.31629\include\xmemory
;	COMDAT ?allocate@?$allocator@U_Container_proxy@std@@@std@@QAEPAU_Container_proxy@2@I@Z
_TEXT	SEGMENT
_this$ = -4						; size = 4
__Count$ = 8						; size = 4
?allocate@?$allocator@U_Container_proxy@std@@@std@@QAEPAU_Container_proxy@2@I@Z PROC ; std::allocator<std::_Container_proxy>::allocate, COMDAT
; _this$ = ecx

; 835  :     _NODISCARD _CONSTEXPR20 __declspec(allocator) _Ty* allocate(_CRT_GUARDOVERFLOW const size_t _Count) {

	push	ebp
	mov	ebp, esp
	push	ecx
	mov	DWORD PTR [ebp-4], -858993460		; ccccccccH
	mov	DWORD PTR _this$[ebp], ecx

; 836  :         static_assert(sizeof(value_type) > 0, "value_type must be complete before calling allocate.");
; 837  :         return static_cast<_Ty*>(_Allocate<_New_alignof<_Ty>>(_Get_size_of_n<sizeof(_Ty)>(_Count)));

	mov	eax, DWORD PTR __Count$[ebp]
	push	eax
	call	??$_Get_size_of_n@$07@std@@YAII@Z	; std::_Get_size_of_n<8>
	add	esp, 4
	push	eax
	call	??$_Allocate@$07U_Default_allocate_traits@std@@$0A@@std@@YAPAXI@Z ; std::_Allocate<8,std::_Default_allocate_traits,0>
	add	esp, 4

; 838  :     }

	add	esp, 4
	cmp	ebp, esp
	call	__RTC_CheckEsp
	mov	esp, ebp
	pop	ebp
	ret	4
?allocate@?$allocator@U_Container_proxy@std@@@std@@QAEPAU_Container_proxy@2@I@Z ENDP ; std::allocator<std::_Container_proxy>::allocate
_TEXT	ENDS
; Function compile flags: /Odtp /RTCsu
; File C:\Program Files\Microsoft Visual Studio\2022\Community\VC\Tools\MSVC\14.33.31629\include\utility
;	COMDAT ??$min@I@std@@YAABIABI0@Z
_TEXT	SEGMENT
tv65 = -8						; size = 4
$T1 = -4						; size = 4
__Left$ = 8						; size = 4
__Right$ = 12						; size = 4
??$min@I@std@@YAABIABI0@Z PROC				; std::min<unsigned int>, COMDAT

; 64   :     (min) (const _Ty& _Left, const _Ty& _Right) noexcept(noexcept(_Right < _Left)) /* strengthened */ {

	push	ebp
	mov	ebp, esp
	sub	esp, 8

; 65   :     // return smaller of _Left and _Right
; 66   :     return _Right < _Left ? _Right : _Left;

	mov	eax, DWORD PTR __Right$[ebp]
	mov	ecx, DWORD PTR __Left$[ebp]
	mov	edx, DWORD PTR [eax]
	cmp	edx, DWORD PTR [ecx]
	jae	SHORT $LN3@min
	mov	eax, DWORD PTR __Right$[ebp]
	mov	DWORD PTR tv65[ebp], eax
	jmp	SHORT $LN4@min
$LN3@min:
	mov	ecx, DWORD PTR __Left$[ebp]
	mov	DWORD PTR tv65[ebp], ecx
$LN4@min:
	mov	edx, DWORD PTR tv65[ebp]
	mov	DWORD PTR $T1[ebp], edx
	mov	eax, DWORD PTR $T1[ebp]

; 67   : }

	mov	esp, ebp
	pop	ebp
	ret	0
??$min@I@std@@YAABIABI0@Z ENDP				; std::min<unsigned int>
_TEXT	ENDS
; Function compile flags: /Odtp /RTCsu
; File D:\__Repos\__MyRepos\Raven_VS2022\Common\debug\DebugConsole.h
;	COMDAT ??$?6$$BY00D@CSink@@QAEAAV0@AAY00$$CBD@Z
_TEXT	SEGMENT
_this$ = -4						; size = 4
___formal$ = 8						; size = 4
??$?6$$BY00D@CSink@@QAEAAV0@AAY00$$CBD@Z PROC		; CSink::operator<<<char [1]>, COMDAT
; _this$ = ecx

; 71   :   {

	push	ebp
	mov	ebp, esp
	push	ecx
	mov	DWORD PTR _this$[ebp], ecx

; 72   : 	  return *this;

	mov	eax, DWORD PTR _this$[ebp]

; 73   :   }

	mov	esp, ebp
	pop	ebp
	ret	4
??$?6$$BY00D@CSink@@QAEAAV0@AAY00$$CBD@Z ENDP		; CSink::operator<<<char [1]>
_TEXT	ENDS
; Function compile flags: /Odtp /RTCsu
; File D:\__Repos\__MyRepos\Raven_VS2022\Common\debug\DebugConsole.h
;	COMDAT ??$?6$$BY0BAE@D@CSink@@QAEAAV0@AAY0BAE@$$CBD@Z
_TEXT	SEGMENT
_this$ = -4						; size = 4
___formal$ = 8						; size = 4
??$?6$$BY0BAE@D@CSink@@QAEAAV0@AAY0BAE@$$CBD@Z PROC	; CSink::operator<<<char [260]>, COMDAT
; _this$ = ecx

; 71   :   {

	push	ebp
	mov	ebp, esp
	push	ecx
	mov	DWORD PTR _this$[ebp], ecx

; 72   : 	  return *this;

	mov	eax, DWORD PTR _this$[ebp]

; 73   :   }

	mov	esp, ebp
	pop	ebp
	ret	4
??$?6$$BY0BAE@D@CSink@@QAEAAV0@AAY0BAE@$$CBD@Z ENDP	; CSink::operator<<<char [260]>
_TEXT	ENDS
; Function compile flags: /Odtp /RTCsu
; File D:\__Repos\__MyRepos\Raven_VS2022\Common\debug\DebugConsole.h
;	COMDAT ??$?6$$BY0L@D@CSink@@QAEAAV0@AAY0L@$$CBD@Z
_TEXT	SEGMENT
_this$ = -4						; size = 4
___formal$ = 8						; size = 4
??$?6$$BY0L@D@CSink@@QAEAAV0@AAY0L@$$CBD@Z PROC		; CSink::operator<<<char [11]>, COMDAT
; _this$ = ecx

; 71   :   {

	push	ebp
	mov	ebp, esp
	push	ecx
	mov	DWORD PTR _this$[ebp], ecx

; 72   : 	  return *this;

	mov	eax, DWORD PTR _this$[ebp]

; 73   :   }

	mov	esp, ebp
	pop	ebp
	ret	4
??$?6$$BY0L@D@CSink@@QAEAAV0@AAY0L@$$CBD@Z ENDP		; CSink::operator<<<char [11]>
_TEXT	ENDS
; Function compile flags: /Odtp /RTCsu
; File D:\__Repos\__MyRepos\Raven_VS2022\Raven\main.cpp
_TEXT	SEGMENT
tv410 = -276						; size = 4
tv397 = -272						; size = 4
tv384 = -268						; size = 4
tv371 = -264						; size = 4
tv358 = -260						; size = 4
tv345 = -256						; size = 4
tv332 = -252						; size = 4
tv312 = -248						; size = 4
tv292 = -244						; size = 4
tv279 = -240						; size = 4
tv266 = -236						; size = 4
tv253 = -232						; size = 4
tv211 = -228						; size = 4
tv187 = -224						; size = 4
tv95 = -220						; size = 4
tv64 = -216						; size = 4
$T2 = -212						; size = 4
$T3 = -208						; size = 4
_hdc$4 = -204						; size = 4
_ps$5 = -196						; size = 64
$T6 = -128						; size = 28
$T7 = -100						; size = 28
$T8 = -72						; size = 28
_hdc$9 = -44						; size = 4
_rect$10 = -36						; size = 16
__$ArrayPad$ = -16					; size = 4
__$EHRec$ = -12						; size = 12
_hwnd$ = 8						; size = 4
_msg$ = 12						; size = 4
_wParam$ = 16						; size = 4
_lParam$ = 20						; size = 4
?WindowProc@@YGJPAUHWND__@@IIJ@Z PROC			; WindowProc

; 41   : {

	push	ebp
	mov	ebp, esp
	push	-1
	push	__ehhandler$?WindowProc@@YGJPAUHWND__@@IIJ@Z
	mov	eax, DWORD PTR fs:0
	push	eax
	sub	esp, 264				; 00000108H
	push	esi
	push	edi
	lea	edi, DWORD PTR [ebp-276]
	mov	ecx, 66					; 00000042H
	mov	eax, -858993460				; ccccccccH
	rep stosd
	mov	eax, DWORD PTR ___security_cookie
	xor	eax, ebp
	mov	DWORD PTR __$ArrayPad$[ebp], eax
	push	eax
	lea	eax, DWORD PTR __$EHRec$[ebp]
	mov	DWORD PTR fs:0, eax

; 42   : 
; 43   : 	//these hold the dimensions of the client window area
; 44   : 	static int cxClient, cyClient;
; 45   : 
; 46   : 	//used to create the back buffer
; 47   : 	static HDC		hdcBackBuffer;
; 48   : 	static HBITMAP	hBitmap;
; 49   : 	static HBITMAP	hOldBitmap;
; 50   : 
; 51   : 	//to grab filenames
; 52   : 	static TCHAR   szFileName[MAX_PATH],
; 53   : 		szTitleName[MAX_PATH];
; 54   : 
; 55   : 
; 56   : 	switch (msg)

	mov	eax, DWORD PTR _msg$[ebp]
	mov	DWORD PTR tv64[ebp], eax
	cmp	DWORD PTR tv64[ebp], 257		; 00000101H
	ja	SHORT $LN69@WindowProc
	cmp	DWORD PTR tv64[ebp], 257		; 00000101H
	je	$LN9@WindowProc
	mov	ecx, DWORD PTR tv64[ebp]
	sub	ecx, 1
	mov	DWORD PTR tv64[ebp], ecx
	cmp	DWORD PTR tv64[ebp], 14			; 0000000eH
	ja	$LN2@WindowProc
	mov	edx, DWORD PTR tv64[ebp]
	movzx	eax, BYTE PTR $LN74@WindowProc[edx]
	jmp	DWORD PTR $LN75@WindowProc[eax*4]
$LN69@WindowProc:
	cmp	DWORD PTR tv64[ebp], 273		; 00000111H
	je	$LN21@WindowProc
	cmp	DWORD PTR tv64[ebp], 513		; 00000201H
	je	$LN19@WindowProc
	cmp	DWORD PTR tv64[ebp], 516		; 00000204H
	je	$LN20@WindowProc
	jmp	$LN2@WindowProc
$LN8@WindowProc:

; 57   : 	{
; 58   : 
; 59   : 		//A WM_CREATE msg is sent when your application window is first
; 60   : 		//created
; 61   : 	case WM_CREATE:
; 62   : 	{
; 63   : 		//to get get the size of the client window first we need  to create
; 64   : 		//a RECT and then ask Windows to fill in our RECT structure with
; 65   : 		//the client window size. Then we assign to cxClient and cyClient 
; 66   : 		//accordingly
; 67   : 		RECT rect;
; 68   : 
; 69   : 		GetClientRect(hwnd, &rect);

	mov	esi, esp
	lea	ecx, DWORD PTR _rect$10[ebp]
	push	ecx
	mov	edx, DWORD PTR _hwnd$[ebp]
	push	edx
	call	DWORD PTR __imp__GetClientRect@8
	cmp	esi, esp
	call	__RTC_CheckEsp

; 70   : 
; 71   : 		cxClient = rect.right;

	mov	eax, DWORD PTR _rect$10[ebp+8]
	mov	DWORD PTR ?cxClient@?1??WindowProc@@YGJPAUHWND__@@IIJ@Z@4HA, eax

; 72   : 		cyClient = rect.bottom;

	mov	ecx, DWORD PTR _rect$10[ebp+12]
	mov	DWORD PTR ?cyClient@?1??WindowProc@@YGJPAUHWND__@@IIJ@Z@4HA, ecx

; 73   : 
; 74   : 		//seed random number generator
; 75   : 		srand((unsigned)time(NULL));

	push	0
	call	_time
	add	esp, 4
	push	eax
	call	_srand
	add	esp, 4

; 76   : 
; 77   : 
; 78   : 		//---------------create a surface to render to(backbuffer)
; 79   : 
; 80   : 		//create a memory device context
; 81   : 		hdcBackBuffer = CreateCompatibleDC(NULL);

	mov	esi, esp
	push	0
	call	DWORD PTR __imp__CreateCompatibleDC@4
	cmp	esi, esp
	call	__RTC_CheckEsp
	mov	DWORD PTR ?hdcBackBuffer@?1??WindowProc@@YGJPAUHWND__@@IIJ@Z@4PAUHDC__@@A, eax

; 82   : 
; 83   : 		//get the DC for the front buffer
; 84   : 		HDC hdc = GetDC(hwnd);

	mov	esi, esp
	mov	edx, DWORD PTR _hwnd$[ebp]
	push	edx
	call	DWORD PTR __imp__GetDC@4
	cmp	esi, esp
	call	__RTC_CheckEsp
	mov	DWORD PTR _hdc$9[ebp], eax

; 85   : 
; 86   : 		hBitmap = CreateCompatibleBitmap(hdc,

	mov	esi, esp
	mov	eax, DWORD PTR ?cyClient@?1??WindowProc@@YGJPAUHWND__@@IIJ@Z@4HA
	push	eax
	mov	ecx, DWORD PTR ?cxClient@?1??WindowProc@@YGJPAUHWND__@@IIJ@Z@4HA
	push	ecx
	mov	edx, DWORD PTR _hdc$9[ebp]
	push	edx
	call	DWORD PTR __imp__CreateCompatibleBitmap@12
	cmp	esi, esp
	call	__RTC_CheckEsp
	mov	DWORD PTR ?hBitmap@?1??WindowProc@@YGJPAUHWND__@@IIJ@Z@4PAUHBITMAP__@@A, eax

; 87   : 			cxClient,
; 88   : 			cyClient);
; 89   : 
; 90   : 
; 91   : 		//select the bitmap into the memory device context
; 92   : 		hOldBitmap = (HBITMAP)SelectObject(hdcBackBuffer, hBitmap);

	mov	esi, esp
	mov	eax, DWORD PTR ?hBitmap@?1??WindowProc@@YGJPAUHWND__@@IIJ@Z@4PAUHBITMAP__@@A
	push	eax
	mov	ecx, DWORD PTR ?hdcBackBuffer@?1??WindowProc@@YGJPAUHWND__@@IIJ@Z@4PAUHDC__@@A
	push	ecx
	call	DWORD PTR __imp__SelectObject@8
	cmp	esi, esp
	call	__RTC_CheckEsp
	mov	DWORD PTR ?hOldBitmap@?1??WindowProc@@YGJPAUHWND__@@IIJ@Z@4PAUHBITMAP__@@A, eax

; 93   : 
; 94   : 		//don't forget to release the DC
; 95   : 		ReleaseDC(hwnd, hdc);

	mov	esi, esp
	mov	edx, DWORD PTR _hdc$9[ebp]
	push	edx
	mov	eax, DWORD PTR _hwnd$[ebp]
	push	eax
	call	DWORD PTR __imp__ReleaseDC@8
	cmp	esi, esp
	call	__RTC_CheckEsp

; 96   : 
; 97   : 		//create the game
; 98   : 		g_pRaven = new Raven_Game();

	push	44					; 0000002cH
	call	??2@YAPAXI@Z				; operator new
	add	esp, 4
	mov	DWORD PTR $T2[ebp], eax
	mov	DWORD PTR __$EHRec$[ebp+8], 0
	cmp	DWORD PTR $T2[ebp], 0
	je	SHORT $LN43@WindowProc
	mov	ecx, DWORD PTR $T2[ebp]
	call	??0Raven_Game@@QAE@XZ			; Raven_Game::Raven_Game
	mov	DWORD PTR tv95[ebp], eax
	jmp	SHORT $LN44@WindowProc
$LN43@WindowProc:
	mov	DWORD PTR tv95[ebp], 0
$LN44@WindowProc:
	mov	ecx, DWORD PTR tv95[ebp]
	mov	DWORD PTR $T3[ebp], ecx
	mov	DWORD PTR __$EHRec$[ebp+8], -1
	mov	edx, DWORD PTR $T3[ebp]
	mov	DWORD PTR ?g_pRaven@@3PAVRaven_Game@@A, edx ; g_pRaven

; 99   : 
; 100  : 		//make sure the menu items are ticked/unticked accordingly
; 101  : 		CheckMenuItemAppropriately(hwnd, IDM_NAVIGATION_SHOW_NAVGRAPH, UserOptions->m_bShowGraph);

	call	?Instance@Raven_UserOptions@@SAPAV1@XZ	; Raven_UserOptions::Instance
	mov	al, BYTE PTR [eax]
	movzx	ecx, al
	push	ecx
	push	40002					; 00009c42H
	mov	edx, DWORD PTR _hwnd$[ebp]
	push	edx
	call	?CheckMenuItemAppropriately@@YAXPAUHWND__@@I_N@Z ; CheckMenuItemAppropriately
	add	esp, 12					; 0000000cH

; 102  : 		CheckMenuItemAppropriately(hwnd, IDM_NAVIGATION_SHOW_PATH, UserOptions->m_bShowPathOfSelectedBot);

	call	?Instance@Raven_UserOptions@@SAPAV1@XZ	; Raven_UserOptions::Instance
	mov	al, BYTE PTR [eax+2]
	movzx	ecx, al
	push	ecx
	push	40004					; 00009c44H
	mov	edx, DWORD PTR _hwnd$[ebp]
	push	edx
	call	?CheckMenuItemAppropriately@@YAXPAUHWND__@@I_N@Z ; CheckMenuItemAppropriately
	add	esp, 12					; 0000000cH

; 103  : 		CheckMenuItemAppropriately(hwnd, IDM_BOTS_SHOW_IDS, UserOptions->m_bShowBotIDs);

	call	?Instance@Raven_UserOptions@@SAPAV1@XZ	; Raven_UserOptions::Instance
	mov	al, BYTE PTR [eax+11]
	movzx	ecx, al
	push	ecx
	push	40006					; 00009c46H
	mov	edx, DWORD PTR _hwnd$[ebp]
	push	edx
	call	?CheckMenuItemAppropriately@@YAXPAUHWND__@@I_N@Z ; CheckMenuItemAppropriately
	add	esp, 12					; 0000000cH

; 104  : 		CheckMenuItemAppropriately(hwnd, IDM_NAVIGATION_SMOOTH_PATHS_QUICK, UserOptions->m_bSmoothPathsQuick);

	call	?Instance@Raven_UserOptions@@SAPAV1@XZ	; Raven_UserOptions::Instance
	mov	al, BYTE PTR [eax+9]
	movzx	ecx, al
	push	ecx
	push	40005					; 00009c45H
	mov	edx, DWORD PTR _hwnd$[ebp]
	push	edx
	call	?CheckMenuItemAppropriately@@YAXPAUHWND__@@I_N@Z ; CheckMenuItemAppropriately
	add	esp, 12					; 0000000cH

; 105  : 		CheckMenuItemAppropriately(hwnd, IDM_NAVIGATION_SMOOTH_PATHS_PRECISE, UserOptions->m_bSmoothPathsPrecise);

	call	?Instance@Raven_UserOptions@@SAPAV1@XZ	; Raven_UserOptions::Instance
	mov	al, BYTE PTR [eax+10]
	movzx	ecx, al
	push	ecx
	push	40015					; 00009c4fH
	mov	edx, DWORD PTR _hwnd$[ebp]
	push	edx
	call	?CheckMenuItemAppropriately@@YAXPAUHWND__@@I_N@Z ; CheckMenuItemAppropriately
	add	esp, 12					; 0000000cH

; 106  : 		CheckMenuItemAppropriately(hwnd, IDM_BOTS_SHOW_HEALTH, UserOptions->m_bShowBotHealth);

	call	?Instance@Raven_UserOptions@@SAPAV1@XZ	; Raven_UserOptions::Instance
	mov	al, BYTE PTR [eax+12]
	movzx	ecx, al
	push	ecx
	push	40007					; 00009c47H
	mov	edx, DWORD PTR _hwnd$[ebp]
	push	edx
	call	?CheckMenuItemAppropriately@@YAXPAUHWND__@@I_N@Z ; CheckMenuItemAppropriately
	add	esp, 12					; 0000000cH

; 107  : 		CheckMenuItemAppropriately(hwnd, IDM_BOTS_SHOW_TARGET, UserOptions->m_bShowTargetOfSelectedBot);

	call	?Instance@Raven_UserOptions@@SAPAV1@XZ	; Raven_UserOptions::Instance
	mov	al, BYTE PTR [eax+3]
	movzx	ecx, al
	push	ecx
	push	40008					; 00009c48H
	mov	edx, DWORD PTR _hwnd$[ebp]
	push	edx
	call	?CheckMenuItemAppropriately@@YAXPAUHWND__@@I_N@Z ; CheckMenuItemAppropriately
	add	esp, 12					; 0000000cH

; 108  : 		CheckMenuItemAppropriately(hwnd, IDM_BOTS_SHOW_FOV, UserOptions->m_bOnlyShowBotsInTargetsFOV);

	call	?Instance@Raven_UserOptions@@SAPAV1@XZ	; Raven_UserOptions::Instance
	mov	al, BYTE PTR [eax+5]
	movzx	ecx, al
	push	ecx
	push	40009					; 00009c49H
	mov	edx, DWORD PTR _hwnd$[ebp]
	push	edx
	call	?CheckMenuItemAppropriately@@YAXPAUHWND__@@I_N@Z ; CheckMenuItemAppropriately
	add	esp, 12					; 0000000cH

; 109  : 		CheckMenuItemAppropriately(hwnd, IDM_BOTS_SHOW_SCORES, UserOptions->m_bShowScore);

	call	?Instance@Raven_UserOptions@@SAPAV1@XZ	; Raven_UserOptions::Instance
	mov	al, BYTE PTR [eax+13]
	movzx	ecx, al
	push	ecx
	push	40010					; 00009c4aH
	mov	edx, DWORD PTR _hwnd$[ebp]
	push	edx
	call	?CheckMenuItemAppropriately@@YAXPAUHWND__@@I_N@Z ; CheckMenuItemAppropriately
	add	esp, 12					; 0000000cH

; 110  : 		CheckMenuItemAppropriately(hwnd, IDM_BOTS_SHOW_GOAL_Q, UserOptions->m_bShowGoalsOfSelectedBot);

	call	?Instance@Raven_UserOptions@@SAPAV1@XZ	; Raven_UserOptions::Instance
	mov	al, BYTE PTR [eax+6]
	movzx	ecx, al
	push	ecx
	push	40011					; 00009c4bH
	mov	edx, DWORD PTR _hwnd$[ebp]
	push	edx
	call	?CheckMenuItemAppropriately@@YAXPAUHWND__@@I_N@Z ; CheckMenuItemAppropriately
	add	esp, 12					; 0000000cH

; 111  : 		CheckMenuItemAppropriately(hwnd, IDM_NAVIGATION_SHOW_INDICES, UserOptions->m_bShowNodeIndices);

	call	?Instance@Raven_UserOptions@@SAPAV1@XZ	; Raven_UserOptions::Instance
	mov	al, BYTE PTR [eax+1]
	movzx	ecx, al
	push	ecx
	push	40012					; 00009c4cH
	mov	edx, DWORD PTR _hwnd$[ebp]
	push	edx
	call	?CheckMenuItemAppropriately@@YAXPAUHWND__@@I_N@Z ; CheckMenuItemAppropriately
	add	esp, 12					; 0000000cH

; 112  : 		CheckMenuItemAppropriately(hwnd, IDM_BOTS_SHOW_SENSED, UserOptions->m_bShowOpponentsSensedBySelectedBot);

	call	?Instance@Raven_UserOptions@@SAPAV1@XZ	; Raven_UserOptions::Instance
	mov	al, BYTE PTR [eax+4]
	movzx	ecx, al
	push	ecx
	push	40016					; 00009c50H
	mov	edx, DWORD PTR _hwnd$[ebp]
	push	edx
	call	?CheckMenuItemAppropriately@@YAXPAUHWND__@@I_N@Z ; CheckMenuItemAppropriately
	add	esp, 12					; 0000000cH

; 113  : 
; 114  : 	}
; 115  : 
; 116  : 	break;

	jmp	$LN2@WindowProc
$LN9@WindowProc:

; 117  : 
; 118  : 	case WM_KEYUP:
; 119  : 	{
; 120  : 		switch (wParam)

	mov	eax, DWORD PTR _wParam$[ebp]
	mov	DWORD PTR tv187[ebp], eax
	mov	ecx, DWORD PTR tv187[ebp]
	sub	ecx, 27					; 0000001bH
	mov	DWORD PTR tv187[ebp], ecx
	cmp	DWORD PTR tv187[ebp], 61		; 0000003dH
	ja	$LN4@WindowProc
	mov	edx, DWORD PTR tv187[ebp]
	movzx	eax, BYTE PTR $LN76@WindowProc[edx]
	jmp	DWORD PTR $LN77@WindowProc[eax*4]
$LN10@WindowProc:

; 121  : 		{
; 122  : 		case VK_ESCAPE:
; 123  : 		{
; 124  : 			SendMessage(hwnd, WM_DESTROY, NULL, NULL);

	mov	esi, esp
	push	0
	push	0
	push	2
	mov	ecx, DWORD PTR _hwnd$[ebp]
	push	ecx
	call	DWORD PTR __imp__SendMessageA@16
	cmp	esi, esp
	call	__RTC_CheckEsp

; 125  : 		}
; 126  : 
; 127  : 		break;

	jmp	SHORT $LN4@WindowProc
$LN11@WindowProc:

; 128  : 
; 129  : 		case 'P':
; 130  : 
; 131  : 			g_pRaven->TogglePause();

	mov	ecx, DWORD PTR ?g_pRaven@@3PAVRaven_Game@@A ; g_pRaven
	call	?TogglePause@Raven_Game@@QAEXXZ		; Raven_Game::TogglePause

; 132  : 
; 133  : 			break;

	jmp	SHORT $LN4@WindowProc
$LN12@WindowProc:

; 134  : 
; 135  : 		case '1':
; 136  : 
; 137  : 			g_pRaven->ChangeWeaponOfPossessedBot(type_blaster);

	push	9
	mov	ecx, DWORD PTR ?g_pRaven@@3PAVRaven_Game@@A ; g_pRaven
	call	?ChangeWeaponOfPossessedBot@Raven_Game@@QBEXI@Z ; Raven_Game::ChangeWeaponOfPossessedBot

; 138  : 
; 139  : 			break;

	jmp	SHORT $LN4@WindowProc
$LN13@WindowProc:

; 140  : 
; 141  : 		case '2':
; 142  : 
; 143  : 			g_pRaven->ChangeWeaponOfPossessedBot(type_shotgun);

	push	8
	mov	ecx, DWORD PTR ?g_pRaven@@3PAVRaven_Game@@A ; g_pRaven
	call	?ChangeWeaponOfPossessedBot@Raven_Game@@QBEXI@Z ; Raven_Game::ChangeWeaponOfPossessedBot

; 144  : 
; 145  : 			break;

	jmp	SHORT $LN4@WindowProc
$LN14@WindowProc:

; 146  : 
; 147  : 		case '3':
; 148  : 
; 149  : 			g_pRaven->ChangeWeaponOfPossessedBot(type_rocket_launcher);

	push	7
	mov	ecx, DWORD PTR ?g_pRaven@@3PAVRaven_Game@@A ; g_pRaven
	call	?ChangeWeaponOfPossessedBot@Raven_Game@@QBEXI@Z ; Raven_Game::ChangeWeaponOfPossessedBot

; 150  : 
; 151  : 			break;

	jmp	SHORT $LN4@WindowProc
$LN15@WindowProc:

; 152  : 
; 153  : 		case '4':
; 154  : 
; 155  : 			g_pRaven->ChangeWeaponOfPossessedBot(type_rail_gun);

	push	6
	mov	ecx, DWORD PTR ?g_pRaven@@3PAVRaven_Game@@A ; g_pRaven
	call	?ChangeWeaponOfPossessedBot@Raven_Game@@QBEXI@Z ; Raven_Game::ChangeWeaponOfPossessedBot

; 156  : 
; 157  : 			break;

	jmp	SHORT $LN4@WindowProc
$LN16@WindowProc:

; 158  : 
; 159  : 		case 'X':
; 160  : 
; 161  : 			g_pRaven->ExorciseAnyPossessedBot();

	mov	ecx, DWORD PTR ?g_pRaven@@3PAVRaven_Game@@A ; g_pRaven
	call	?ExorciseAnyPossessedBot@Raven_Game@@QAEXXZ ; Raven_Game::ExorciseAnyPossessedBot

; 162  : 
; 163  : 			break;

	jmp	SHORT $LN4@WindowProc
$LN17@WindowProc:

; 164  : 
; 165  : 
; 166  : 		case VK_UP:
; 167  : 
; 168  : 			g_pRaven->AddBots(1); break;

	push	1
	mov	ecx, DWORD PTR ?g_pRaven@@3PAVRaven_Game@@A ; g_pRaven
	call	?AddBots@Raven_Game@@QAEXI@Z		; Raven_Game::AddBots
	jmp	SHORT $LN4@WindowProc
$LN18@WindowProc:

; 169  : 
; 170  : 		case VK_DOWN:
; 171  : 
; 172  : 			g_pRaven->RemoveBot(); break;

	mov	ecx, DWORD PTR ?g_pRaven@@3PAVRaven_Game@@A ; g_pRaven
	call	?RemoveBot@Raven_Game@@QAEXXZ		; Raven_Game::RemoveBot
$LN4@WindowProc:

; 173  : 
; 174  : 
; 175  : 		}
; 176  : 	}
; 177  : 
; 178  : 	break;

	jmp	$LN2@WindowProc
$LN19@WindowProc:

; 179  : 
; 180  : 
; 181  : 	case WM_LBUTTONDOWN:
; 182  : 	{
; 183  : 		g_pRaven->ClickLeftMouseButton(MAKEPOINTS(lParam));

	mov	edx, DWORD PTR _lParam$[ebp]
	push	edx
	mov	ecx, DWORD PTR ?g_pRaven@@3PAVRaven_Game@@A ; g_pRaven
	call	?ClickLeftMouseButton@Raven_Game@@QAEXUtagPOINTS@@@Z ; Raven_Game::ClickLeftMouseButton

; 184  : 	}
; 185  : 
; 186  : 	break;

	jmp	$LN2@WindowProc
$LN20@WindowProc:

; 187  : 
; 188  : 	case WM_RBUTTONDOWN:
; 189  : 	{
; 190  : 		g_pRaven->ClickRightMouseButton(MAKEPOINTS(lParam));

	mov	eax, DWORD PTR _lParam$[ebp]
	push	eax
	mov	ecx, DWORD PTR ?g_pRaven@@3PAVRaven_Game@@A ; g_pRaven
	call	?ClickRightMouseButton@Raven_Game@@QAEXUtagPOINTS@@@Z ; Raven_Game::ClickRightMouseButton

; 191  : 	}
; 192  : 
; 193  : 	break;

	jmp	$LN2@WindowProc
$LN21@WindowProc:

; 194  : 
; 195  : 	case WM_COMMAND:
; 196  : 	{
; 197  : 
; 198  : 		switch (wParam)

	mov	ecx, DWORD PTR _wParam$[ebp]
	mov	DWORD PTR tv211[ebp], ecx
	mov	edx, DWORD PTR tv211[ebp]
	sub	edx, 40001				; 00009c41H
	mov	DWORD PTR tv211[ebp], edx
	cmp	DWORD PTR tv211[ebp], 16		; 00000010H
	ja	$LN39@WindowProc
	mov	eax, DWORD PTR tv211[ebp]
	jmp	DWORD PTR $LN78@WindowProc[eax*4]
$LN22@WindowProc:

; 199  : 		{
; 200  : 
; 201  : 
; 202  : 		case IDM_GAME_LOAD:
; 203  : 
; 204  : 			FileOpenDlg(hwnd, szFileName, szTitleName, "Raven map file (*.map)", "map");

	push	OFFSET $SG173645
	lea	ecx, DWORD PTR $T8[ebp]
	call	??0?$basic_string@DU?$char_traits@D@std@@V?$allocator@D@2@@std@@QAE@QBD@Z ; std::basic_string<char,std::char_traits<char>,std::allocator<char> >::basic_string<char,std::char_traits<char>,std::allocator<char> >
	mov	DWORD PTR __$EHRec$[ebp+8], 1
	push	OFFSET $SG173646
	lea	ecx, DWORD PTR $T7[ebp]
	call	??0?$basic_string@DU?$char_traits@D@std@@V?$allocator@D@2@@std@@QAE@QBD@Z ; std::basic_string<char,std::char_traits<char>,std::allocator<char> >::basic_string<char,std::char_traits<char>,std::allocator<char> >
	mov	BYTE PTR __$EHRec$[ebp+8], 2
	lea	ecx, DWORD PTR $T8[ebp]
	push	ecx
	lea	edx, DWORD PTR $T7[ebp]
	push	edx
	push	OFFSET ?szTitleName@?1??WindowProc@@YGJPAUHWND__@@IIJ@Z@4PADA
	push	OFFSET ?szFileName@?1??WindowProc@@YGJPAUHWND__@@IIJ@Z@4PADA
	mov	eax, DWORD PTR _hwnd$[ebp]
	push	eax
	call	?FileOpenDlg@@YAHPAUHWND__@@PAD1ABV?$basic_string@DU?$char_traits@D@std@@V?$allocator@D@2@@std@@2@Z ; FileOpenDlg
	add	esp, 20					; 00000014H
	mov	BYTE PTR __$EHRec$[ebp+8], 1
	lea	ecx, DWORD PTR $T7[ebp]
	call	??1?$basic_string@DU?$char_traits@D@std@@V?$allocator@D@2@@std@@QAE@XZ ; std::basic_string<char,std::char_traits<char>,std::allocator<char> >::~basic_string<char,std::char_traits<char>,std::allocator<char> >
	mov	DWORD PTR __$EHRec$[ebp+8], -1
	lea	ecx, DWORD PTR $T8[ebp]
	call	??1?$basic_string@DU?$char_traits@D@std@@V?$allocator@D@2@@std@@QAE@XZ ; std::basic_string<char,std::char_traits<char>,std::allocator<char> >::~basic_string<char,std::char_traits<char>,std::allocator<char> >

; 205  : 
; 206  : 			debug_con << "Filename: " << szTitleName << "";

	push	OFFSET $SG173648
	push	OFFSET ?szTitleName@?1??WindowProc@@YGJPAUHWND__@@IIJ@Z@4PADA
	push	OFFSET $SG173647
	call	?Instance@CSink@@SAPAV1@XZ		; CSink::Instance
	mov	ecx, eax
	call	??$?6$$BY0L@D@CSink@@QAEAAV0@AAY0L@$$CBD@Z ; CSink::operator<<<char [11]>
	mov	ecx, eax
	call	??$?6$$BY0BAE@D@CSink@@QAEAAV0@AAY0BAE@$$CBD@Z ; CSink::operator<<<char [260]>
	mov	ecx, eax
	call	??$?6$$BY00D@CSink@@QAEAAV0@AAY00$$CBD@Z ; CSink::operator<<<char [1]>

; 207  : 
; 208  : 			if (strlen(szTitleName) > 0)

	push	OFFSET ?szTitleName@?1??WindowProc@@YGJPAUHWND__@@IIJ@Z@4PADA
	call	_strlen
	add	esp, 4
	test	eax, eax
	jbe	SHORT $LN23@WindowProc

; 209  : 			{
; 210  : 				g_pRaven->LoadMap(szTitleName);

	push	OFFSET ?szTitleName@?1??WindowProc@@YGJPAUHWND__@@IIJ@Z@4PADA
	lea	ecx, DWORD PTR $T6[ebp]
	call	??0?$basic_string@DU?$char_traits@D@std@@V?$allocator@D@2@@std@@QAE@QBD@Z ; std::basic_string<char,std::char_traits<char>,std::allocator<char> >::basic_string<char,std::char_traits<char>,std::allocator<char> >
	mov	DWORD PTR __$EHRec$[ebp+8], 3
	lea	ecx, DWORD PTR $T6[ebp]
	push	ecx
	mov	ecx, DWORD PTR ?g_pRaven@@3PAVRaven_Game@@A ; g_pRaven
	call	?LoadMap@Raven_Game@@QAE_NABV?$basic_string@DU?$char_traits@D@std@@V?$allocator@D@2@@std@@@Z ; Raven_Game::LoadMap
	mov	DWORD PTR __$EHRec$[ebp+8], -1
	lea	ecx, DWORD PTR $T6[ebp]
	call	??1?$basic_string@DU?$char_traits@D@std@@V?$allocator@D@2@@std@@QAE@XZ ; std::basic_string<char,std::char_traits<char>,std::allocator<char> >::~basic_string<char,std::char_traits<char>,std::allocator<char> >
$LN23@WindowProc:

; 211  : 			}
; 212  : 
; 213  : 			break;

	jmp	$LN39@WindowProc
$LN24@WindowProc:

; 214  : 
; 215  : 		case IDM_GAME_ADDBOT:
; 216  : 
; 217  : 			g_pRaven->AddBots(1);

	push	1
	mov	ecx, DWORD PTR ?g_pRaven@@3PAVRaven_Game@@A ; g_pRaven
	call	?AddBots@Raven_Game@@QAEXI@Z		; Raven_Game::AddBots

; 218  : 
; 219  : 			break;

	jmp	$LN39@WindowProc
$LN25@WindowProc:

; 220  : 
; 221  : 		case IDM_GAME_REMOVEBOT:
; 222  : 
; 223  : 			g_pRaven->RemoveBot();

	mov	ecx, DWORD PTR ?g_pRaven@@3PAVRaven_Game@@A ; g_pRaven
	call	?RemoveBot@Raven_Game@@QAEXXZ		; Raven_Game::RemoveBot

; 224  : 
; 225  : 			break;

	jmp	$LN39@WindowProc
$LN26@WindowProc:

; 226  : 
; 227  : 		case IDM_GAME_PAUSE:
; 228  : 
; 229  : 			g_pRaven->TogglePause();

	mov	ecx, DWORD PTR ?g_pRaven@@3PAVRaven_Game@@A ; g_pRaven
	call	?TogglePause@Raven_Game@@QAEXXZ		; Raven_Game::TogglePause

; 230  : 
; 231  : 			break;

	jmp	$LN39@WindowProc
$LN27@WindowProc:

; 232  : 
; 233  : 
; 234  : 
; 235  : 		case IDM_NAVIGATION_SHOW_NAVGRAPH:
; 236  : 
; 237  : 			UserOptions->m_bShowGraph = !UserOptions->m_bShowGraph;

	call	?Instance@Raven_UserOptions@@SAPAV1@XZ	; Raven_UserOptions::Instance
	movzx	edx, BYTE PTR [eax]
	test	edx, edx
	jne	SHORT $LN45@WindowProc
	mov	DWORD PTR tv253[ebp], 1
	jmp	SHORT $LN46@WindowProc
$LN45@WindowProc:
	mov	DWORD PTR tv253[ebp], 0
$LN46@WindowProc:
	call	?Instance@Raven_UserOptions@@SAPAV1@XZ	; Raven_UserOptions::Instance
	mov	cl, BYTE PTR tv253[ebp]
	mov	BYTE PTR [eax], cl

; 238  : 
; 239  : 			CheckMenuItemAppropriately(hwnd, IDM_NAVIGATION_SHOW_NAVGRAPH, UserOptions->m_bShowGraph);

	call	?Instance@Raven_UserOptions@@SAPAV1@XZ	; Raven_UserOptions::Instance
	mov	dl, BYTE PTR [eax]
	movzx	eax, dl
	push	eax
	push	40002					; 00009c42H
	mov	ecx, DWORD PTR _hwnd$[ebp]
	push	ecx
	call	?CheckMenuItemAppropriately@@YAXPAUHWND__@@I_N@Z ; CheckMenuItemAppropriately
	add	esp, 12					; 0000000cH

; 240  : 
; 241  : 			break;

	jmp	$LN39@WindowProc
$LN28@WindowProc:

; 242  : 
; 243  : 		case IDM_NAVIGATION_SHOW_PATH:
; 244  : 
; 245  : 			UserOptions->m_bShowPathOfSelectedBot = !UserOptions->m_bShowPathOfSelectedBot;

	call	?Instance@Raven_UserOptions@@SAPAV1@XZ	; Raven_UserOptions::Instance
	movzx	edx, BYTE PTR [eax+2]
	test	edx, edx
	jne	SHORT $LN47@WindowProc
	mov	DWORD PTR tv266[ebp], 1
	jmp	SHORT $LN48@WindowProc
$LN47@WindowProc:
	mov	DWORD PTR tv266[ebp], 0
$LN48@WindowProc:
	call	?Instance@Raven_UserOptions@@SAPAV1@XZ	; Raven_UserOptions::Instance
	mov	cl, BYTE PTR tv266[ebp]
	mov	BYTE PTR [eax+2], cl

; 246  : 
; 247  : 			CheckMenuItemAppropriately(hwnd, IDM_NAVIGATION_SHOW_PATH, UserOptions->m_bShowPathOfSelectedBot);

	call	?Instance@Raven_UserOptions@@SAPAV1@XZ	; Raven_UserOptions::Instance
	mov	dl, BYTE PTR [eax+2]
	movzx	eax, dl
	push	eax
	push	40004					; 00009c44H
	mov	ecx, DWORD PTR _hwnd$[ebp]
	push	ecx
	call	?CheckMenuItemAppropriately@@YAXPAUHWND__@@I_N@Z ; CheckMenuItemAppropriately
	add	esp, 12					; 0000000cH

; 248  : 
; 249  : 			break;

	jmp	$LN39@WindowProc
$LN29@WindowProc:

; 250  : 
; 251  : 		case IDM_NAVIGATION_SHOW_INDICES:
; 252  : 
; 253  : 			UserOptions->m_bShowNodeIndices = !UserOptions->m_bShowNodeIndices;

	call	?Instance@Raven_UserOptions@@SAPAV1@XZ	; Raven_UserOptions::Instance
	movzx	edx, BYTE PTR [eax+1]
	test	edx, edx
	jne	SHORT $LN49@WindowProc
	mov	DWORD PTR tv279[ebp], 1
	jmp	SHORT $LN50@WindowProc
$LN49@WindowProc:
	mov	DWORD PTR tv279[ebp], 0
$LN50@WindowProc:
	call	?Instance@Raven_UserOptions@@SAPAV1@XZ	; Raven_UserOptions::Instance
	mov	cl, BYTE PTR tv279[ebp]
	mov	BYTE PTR [eax+1], cl

; 254  : 
; 255  : 			CheckMenuItemAppropriately(hwnd, IDM_NAVIGATION_SHOW_INDICES, UserOptions->m_bShowNodeIndices);

	call	?Instance@Raven_UserOptions@@SAPAV1@XZ	; Raven_UserOptions::Instance
	mov	dl, BYTE PTR [eax+1]
	movzx	eax, dl
	push	eax
	push	40012					; 00009c4cH
	mov	ecx, DWORD PTR _hwnd$[ebp]
	push	ecx
	call	?CheckMenuItemAppropriately@@YAXPAUHWND__@@I_N@Z ; CheckMenuItemAppropriately
	add	esp, 12					; 0000000cH

; 256  : 
; 257  : 			break;

	jmp	$LN39@WindowProc
$LN30@WindowProc:

; 258  : 
; 259  : 		case IDM_NAVIGATION_SMOOTH_PATHS_QUICK:
; 260  : 
; 261  : 			UserOptions->m_bSmoothPathsQuick = !UserOptions->m_bSmoothPathsQuick;

	call	?Instance@Raven_UserOptions@@SAPAV1@XZ	; Raven_UserOptions::Instance
	movzx	edx, BYTE PTR [eax+9]
	test	edx, edx
	jne	SHORT $LN51@WindowProc
	mov	DWORD PTR tv292[ebp], 1
	jmp	SHORT $LN52@WindowProc
$LN51@WindowProc:
	mov	DWORD PTR tv292[ebp], 0
$LN52@WindowProc:
	call	?Instance@Raven_UserOptions@@SAPAV1@XZ	; Raven_UserOptions::Instance
	mov	cl, BYTE PTR tv292[ebp]
	mov	BYTE PTR [eax+9], cl

; 262  : 			UserOptions->m_bSmoothPathsPrecise = false;

	call	?Instance@Raven_UserOptions@@SAPAV1@XZ	; Raven_UserOptions::Instance
	mov	BYTE PTR [eax+10], 0

; 263  : 			CheckMenuItemAppropriately(hwnd, IDM_NAVIGATION_SMOOTH_PATHS_PRECISE, UserOptions->m_bSmoothPathsPrecise);

	call	?Instance@Raven_UserOptions@@SAPAV1@XZ	; Raven_UserOptions::Instance
	mov	dl, BYTE PTR [eax+10]
	movzx	eax, dl
	push	eax
	push	40015					; 00009c4fH
	mov	ecx, DWORD PTR _hwnd$[ebp]
	push	ecx
	call	?CheckMenuItemAppropriately@@YAXPAUHWND__@@I_N@Z ; CheckMenuItemAppropriately
	add	esp, 12					; 0000000cH

; 264  : 			CheckMenuItemAppropriately(hwnd, IDM_NAVIGATION_SMOOTH_PATHS_QUICK, UserOptions->m_bSmoothPathsQuick);

	call	?Instance@Raven_UserOptions@@SAPAV1@XZ	; Raven_UserOptions::Instance
	mov	dl, BYTE PTR [eax+9]
	movzx	eax, dl
	push	eax
	push	40005					; 00009c45H
	mov	ecx, DWORD PTR _hwnd$[ebp]
	push	ecx
	call	?CheckMenuItemAppropriately@@YAXPAUHWND__@@I_N@Z ; CheckMenuItemAppropriately
	add	esp, 12					; 0000000cH

; 265  : 
; 266  : 			break;

	jmp	$LN39@WindowProc
$LN31@WindowProc:

; 267  : 
; 268  : 		case IDM_NAVIGATION_SMOOTH_PATHS_PRECISE:
; 269  : 
; 270  : 			UserOptions->m_bSmoothPathsPrecise = !UserOptions->m_bSmoothPathsPrecise;

	call	?Instance@Raven_UserOptions@@SAPAV1@XZ	; Raven_UserOptions::Instance
	movzx	edx, BYTE PTR [eax+10]
	test	edx, edx
	jne	SHORT $LN53@WindowProc
	mov	DWORD PTR tv312[ebp], 1
	jmp	SHORT $LN54@WindowProc
$LN53@WindowProc:
	mov	DWORD PTR tv312[ebp], 0
$LN54@WindowProc:
	call	?Instance@Raven_UserOptions@@SAPAV1@XZ	; Raven_UserOptions::Instance
	mov	cl, BYTE PTR tv312[ebp]
	mov	BYTE PTR [eax+10], cl

; 271  : 			UserOptions->m_bSmoothPathsQuick = false;

	call	?Instance@Raven_UserOptions@@SAPAV1@XZ	; Raven_UserOptions::Instance
	mov	BYTE PTR [eax+9], 0

; 272  : 			CheckMenuItemAppropriately(hwnd, IDM_NAVIGATION_SMOOTH_PATHS_QUICK, UserOptions->m_bSmoothPathsQuick);

	call	?Instance@Raven_UserOptions@@SAPAV1@XZ	; Raven_UserOptions::Instance
	mov	dl, BYTE PTR [eax+9]
	movzx	eax, dl
	push	eax
	push	40005					; 00009c45H
	mov	ecx, DWORD PTR _hwnd$[ebp]
	push	ecx
	call	?CheckMenuItemAppropriately@@YAXPAUHWND__@@I_N@Z ; CheckMenuItemAppropriately
	add	esp, 12					; 0000000cH

; 273  : 			CheckMenuItemAppropriately(hwnd, IDM_NAVIGATION_SMOOTH_PATHS_PRECISE, UserOptions->m_bSmoothPathsPrecise);

	call	?Instance@Raven_UserOptions@@SAPAV1@XZ	; Raven_UserOptions::Instance
	mov	dl, BYTE PTR [eax+10]
	movzx	eax, dl
	push	eax
	push	40015					; 00009c4fH
	mov	ecx, DWORD PTR _hwnd$[ebp]
	push	ecx
	call	?CheckMenuItemAppropriately@@YAXPAUHWND__@@I_N@Z ; CheckMenuItemAppropriately
	add	esp, 12					; 0000000cH

; 274  : 
; 275  : 			break;

	jmp	$LN39@WindowProc
$LN32@WindowProc:

; 276  : 
; 277  : 		case IDM_BOTS_SHOW_IDS:
; 278  : 
; 279  : 			UserOptions->m_bShowBotIDs = !UserOptions->m_bShowBotIDs;

	call	?Instance@Raven_UserOptions@@SAPAV1@XZ	; Raven_UserOptions::Instance
	movzx	edx, BYTE PTR [eax+11]
	test	edx, edx
	jne	SHORT $LN55@WindowProc
	mov	DWORD PTR tv332[ebp], 1
	jmp	SHORT $LN56@WindowProc
$LN55@WindowProc:
	mov	DWORD PTR tv332[ebp], 0
$LN56@WindowProc:
	call	?Instance@Raven_UserOptions@@SAPAV1@XZ	; Raven_UserOptions::Instance
	mov	cl, BYTE PTR tv332[ebp]
	mov	BYTE PTR [eax+11], cl

; 280  : 
; 281  : 			CheckMenuItemAppropriately(hwnd, IDM_BOTS_SHOW_IDS, UserOptions->m_bShowBotIDs);

	call	?Instance@Raven_UserOptions@@SAPAV1@XZ	; Raven_UserOptions::Instance
	mov	dl, BYTE PTR [eax+11]
	movzx	eax, dl
	push	eax
	push	40006					; 00009c46H
	mov	ecx, DWORD PTR _hwnd$[ebp]
	push	ecx
	call	?CheckMenuItemAppropriately@@YAXPAUHWND__@@I_N@Z ; CheckMenuItemAppropriately
	add	esp, 12					; 0000000cH

; 282  : 
; 283  : 			break;

	jmp	$LN39@WindowProc
$LN33@WindowProc:

; 284  : 
; 285  : 		case IDM_BOTS_SHOW_HEALTH:
; 286  : 
; 287  : 			UserOptions->m_bShowBotHealth = !UserOptions->m_bShowBotHealth;

	call	?Instance@Raven_UserOptions@@SAPAV1@XZ	; Raven_UserOptions::Instance
	movzx	edx, BYTE PTR [eax+12]
	test	edx, edx
	jne	SHORT $LN57@WindowProc
	mov	DWORD PTR tv345[ebp], 1
	jmp	SHORT $LN58@WindowProc
$LN57@WindowProc:
	mov	DWORD PTR tv345[ebp], 0
$LN58@WindowProc:
	call	?Instance@Raven_UserOptions@@SAPAV1@XZ	; Raven_UserOptions::Instance
	mov	cl, BYTE PTR tv345[ebp]
	mov	BYTE PTR [eax+12], cl

; 288  : 
; 289  : 			CheckMenuItemAppropriately(hwnd, IDM_BOTS_SHOW_HEALTH, UserOptions->m_bShowBotHealth);

	call	?Instance@Raven_UserOptions@@SAPAV1@XZ	; Raven_UserOptions::Instance
	mov	dl, BYTE PTR [eax+12]
	movzx	eax, dl
	push	eax
	push	40007					; 00009c47H
	mov	ecx, DWORD PTR _hwnd$[ebp]
	push	ecx
	call	?CheckMenuItemAppropriately@@YAXPAUHWND__@@I_N@Z ; CheckMenuItemAppropriately
	add	esp, 12					; 0000000cH

; 290  : 
; 291  : 			break;

	jmp	$LN39@WindowProc
$LN34@WindowProc:

; 292  : 
; 293  : 		case IDM_BOTS_SHOW_TARGET:
; 294  : 
; 295  : 			UserOptions->m_bShowTargetOfSelectedBot = !UserOptions->m_bShowTargetOfSelectedBot;

	call	?Instance@Raven_UserOptions@@SAPAV1@XZ	; Raven_UserOptions::Instance
	movzx	edx, BYTE PTR [eax+3]
	test	edx, edx
	jne	SHORT $LN59@WindowProc
	mov	DWORD PTR tv358[ebp], 1
	jmp	SHORT $LN60@WindowProc
$LN59@WindowProc:
	mov	DWORD PTR tv358[ebp], 0
$LN60@WindowProc:
	call	?Instance@Raven_UserOptions@@SAPAV1@XZ	; Raven_UserOptions::Instance
	mov	cl, BYTE PTR tv358[ebp]
	mov	BYTE PTR [eax+3], cl

; 296  : 
; 297  : 			CheckMenuItemAppropriately(hwnd, IDM_BOTS_SHOW_TARGET, UserOptions->m_bShowTargetOfSelectedBot);

	call	?Instance@Raven_UserOptions@@SAPAV1@XZ	; Raven_UserOptions::Instance
	mov	dl, BYTE PTR [eax+3]
	movzx	eax, dl
	push	eax
	push	40008					; 00009c48H
	mov	ecx, DWORD PTR _hwnd$[ebp]
	push	ecx
	call	?CheckMenuItemAppropriately@@YAXPAUHWND__@@I_N@Z ; CheckMenuItemAppropriately
	add	esp, 12					; 0000000cH

; 298  : 
; 299  : 			break;

	jmp	$LN39@WindowProc
$LN35@WindowProc:

; 300  : 
; 301  : 		case IDM_BOTS_SHOW_SENSED:
; 302  : 
; 303  : 			UserOptions->m_bShowOpponentsSensedBySelectedBot = !UserOptions->m_bShowOpponentsSensedBySelectedBot;

	call	?Instance@Raven_UserOptions@@SAPAV1@XZ	; Raven_UserOptions::Instance
	movzx	edx, BYTE PTR [eax+4]
	test	edx, edx
	jne	SHORT $LN61@WindowProc
	mov	DWORD PTR tv371[ebp], 1
	jmp	SHORT $LN62@WindowProc
$LN61@WindowProc:
	mov	DWORD PTR tv371[ebp], 0
$LN62@WindowProc:
	call	?Instance@Raven_UserOptions@@SAPAV1@XZ	; Raven_UserOptions::Instance
	mov	cl, BYTE PTR tv371[ebp]
	mov	BYTE PTR [eax+4], cl

; 304  : 
; 305  : 			CheckMenuItemAppropriately(hwnd, IDM_BOTS_SHOW_SENSED, UserOptions->m_bShowOpponentsSensedBySelectedBot);

	call	?Instance@Raven_UserOptions@@SAPAV1@XZ	; Raven_UserOptions::Instance
	mov	dl, BYTE PTR [eax+4]
	movzx	eax, dl
	push	eax
	push	40016					; 00009c50H
	mov	ecx, DWORD PTR _hwnd$[ebp]
	push	ecx
	call	?CheckMenuItemAppropriately@@YAXPAUHWND__@@I_N@Z ; CheckMenuItemAppropriately
	add	esp, 12					; 0000000cH

; 306  : 
; 307  : 			break;

	jmp	$LN39@WindowProc
$LN36@WindowProc:

; 308  : 
; 309  : 
; 310  : 		case IDM_BOTS_SHOW_FOV:
; 311  : 
; 312  : 			UserOptions->m_bOnlyShowBotsInTargetsFOV = !UserOptions->m_bOnlyShowBotsInTargetsFOV;

	call	?Instance@Raven_UserOptions@@SAPAV1@XZ	; Raven_UserOptions::Instance
	movzx	edx, BYTE PTR [eax+5]
	test	edx, edx
	jne	SHORT $LN63@WindowProc
	mov	DWORD PTR tv384[ebp], 1
	jmp	SHORT $LN64@WindowProc
$LN63@WindowProc:
	mov	DWORD PTR tv384[ebp], 0
$LN64@WindowProc:
	call	?Instance@Raven_UserOptions@@SAPAV1@XZ	; Raven_UserOptions::Instance
	mov	cl, BYTE PTR tv384[ebp]
	mov	BYTE PTR [eax+5], cl

; 313  : 
; 314  : 			CheckMenuItemAppropriately(hwnd, IDM_BOTS_SHOW_FOV, UserOptions->m_bOnlyShowBotsInTargetsFOV);

	call	?Instance@Raven_UserOptions@@SAPAV1@XZ	; Raven_UserOptions::Instance
	mov	dl, BYTE PTR [eax+5]
	movzx	eax, dl
	push	eax
	push	40009					; 00009c49H
	mov	ecx, DWORD PTR _hwnd$[ebp]
	push	ecx
	call	?CheckMenuItemAppropriately@@YAXPAUHWND__@@I_N@Z ; CheckMenuItemAppropriately
	add	esp, 12					; 0000000cH

; 315  : 
; 316  : 			break;

	jmp	$LN39@WindowProc
$LN37@WindowProc:

; 317  : 
; 318  : 		case IDM_BOTS_SHOW_SCORES:
; 319  : 
; 320  : 			UserOptions->m_bShowScore = !UserOptions->m_bShowScore;

	call	?Instance@Raven_UserOptions@@SAPAV1@XZ	; Raven_UserOptions::Instance
	movzx	edx, BYTE PTR [eax+13]
	test	edx, edx
	jne	SHORT $LN65@WindowProc
	mov	DWORD PTR tv397[ebp], 1
	jmp	SHORT $LN66@WindowProc
$LN65@WindowProc:
	mov	DWORD PTR tv397[ebp], 0
$LN66@WindowProc:
	call	?Instance@Raven_UserOptions@@SAPAV1@XZ	; Raven_UserOptions::Instance
	mov	cl, BYTE PTR tv397[ebp]
	mov	BYTE PTR [eax+13], cl

; 321  : 
; 322  : 			CheckMenuItemAppropriately(hwnd, IDM_BOTS_SHOW_SCORES, UserOptions->m_bShowScore);

	call	?Instance@Raven_UserOptions@@SAPAV1@XZ	; Raven_UserOptions::Instance
	mov	dl, BYTE PTR [eax+13]
	movzx	eax, dl
	push	eax
	push	40010					; 00009c4aH
	mov	ecx, DWORD PTR _hwnd$[ebp]
	push	ecx
	call	?CheckMenuItemAppropriately@@YAXPAUHWND__@@I_N@Z ; CheckMenuItemAppropriately
	add	esp, 12					; 0000000cH

; 323  : 
; 324  : 			break;

	jmp	SHORT $LN39@WindowProc
$LN38@WindowProc:

; 325  : 
; 326  : 		case IDM_BOTS_SHOW_GOAL_Q:
; 327  : 
; 328  : 			UserOptions->m_bShowGoalsOfSelectedBot = !UserOptions->m_bShowGoalsOfSelectedBot;

	call	?Instance@Raven_UserOptions@@SAPAV1@XZ	; Raven_UserOptions::Instance
	movzx	edx, BYTE PTR [eax+6]
	test	edx, edx
	jne	SHORT $LN67@WindowProc
	mov	DWORD PTR tv410[ebp], 1
	jmp	SHORT $LN68@WindowProc
$LN67@WindowProc:
	mov	DWORD PTR tv410[ebp], 0
$LN68@WindowProc:
	call	?Instance@Raven_UserOptions@@SAPAV1@XZ	; Raven_UserOptions::Instance
	mov	cl, BYTE PTR tv410[ebp]
	mov	BYTE PTR [eax+6], cl

; 329  : 
; 330  : 			CheckMenuItemAppropriately(hwnd, IDM_BOTS_SHOW_GOAL_Q, UserOptions->m_bShowGoalsOfSelectedBot);

	call	?Instance@Raven_UserOptions@@SAPAV1@XZ	; Raven_UserOptions::Instance
	mov	dl, BYTE PTR [eax+6]
	movzx	eax, dl
	push	eax
	push	40011					; 00009c4bH
	mov	ecx, DWORD PTR _hwnd$[ebp]
	push	ecx
	call	?CheckMenuItemAppropriately@@YAXPAUHWND__@@I_N@Z ; CheckMenuItemAppropriately
	add	esp, 12					; 0000000cH
$LN39@WindowProc:

; 331  : 
; 332  : 			break;
; 333  : 
; 334  : 		}//end switch
; 335  : 	}
; 336  : 
; 337  : 
; 338  : 	case WM_PAINT:
; 339  : 	{
; 340  : 
; 341  : 		PAINTSTRUCT ps;
; 342  : 
; 343  : 		BeginPaint(hwnd, &ps);

	mov	esi, esp
	lea	edx, DWORD PTR _ps$5[ebp]
	push	edx
	mov	eax, DWORD PTR _hwnd$[ebp]
	push	eax
	call	DWORD PTR __imp__BeginPaint@8
	cmp	esi, esp
	call	__RTC_CheckEsp

; 344  : 
; 345  : 		//fill our backbuffer with white
; 346  : 		BitBlt(hdcBackBuffer,

	mov	esi, esp
	push	16711778				; 00ff0062H
	push	0
	push	0
	push	0
	mov	ecx, DWORD PTR ?cyClient@?1??WindowProc@@YGJPAUHWND__@@IIJ@Z@4HA
	push	ecx
	mov	edx, DWORD PTR ?cxClient@?1??WindowProc@@YGJPAUHWND__@@IIJ@Z@4HA
	push	edx
	push	0
	push	0
	mov	eax, DWORD PTR ?hdcBackBuffer@?1??WindowProc@@YGJPAUHWND__@@IIJ@Z@4PAUHDC__@@A
	push	eax
	call	DWORD PTR __imp__BitBlt@36
	cmp	esi, esp
	call	__RTC_CheckEsp

; 347  : 			0,
; 348  : 			0,
; 349  : 			cxClient,
; 350  : 			cyClient,
; 351  : 			NULL,
; 352  : 			NULL,
; 353  : 			NULL,
; 354  : 			WHITENESS);
; 355  : 
; 356  : 
; 357  : 		gdi->StartDrawing(hdcBackBuffer);

	mov	ecx, DWORD PTR ?hdcBackBuffer@?1??WindowProc@@YGJPAUHWND__@@IIJ@Z@4PAUHDC__@@A
	push	ecx
	call	?Instance@Cgdi@@SAPAV1@XZ		; Cgdi::Instance
	mov	ecx, eax
	call	?StartDrawing@Cgdi@@QAEXPAUHDC__@@@Z	; Cgdi::StartDrawing

; 358  : 
; 359  : 		g_pRaven->Render();

	mov	ecx, DWORD PTR ?g_pRaven@@3PAVRaven_Game@@A ; g_pRaven
	call	?Render@Raven_Game@@QAEXXZ		; Raven_Game::Render

; 360  : 
; 361  : 		gdi->StopDrawing(hdcBackBuffer);

	mov	edx, DWORD PTR ?hdcBackBuffer@?1??WindowProc@@YGJPAUHWND__@@IIJ@Z@4PAUHDC__@@A
	push	edx
	call	?Instance@Cgdi@@SAPAV1@XZ		; Cgdi::Instance
	mov	ecx, eax
	call	?StopDrawing@Cgdi@@QAEXPAUHDC__@@@Z	; Cgdi::StopDrawing

; 362  : 
; 363  : 
; 364  : 		//now blit backbuffer to front
; 365  : 		BitBlt(ps.hdc, 0, 0, cxClient, cyClient, hdcBackBuffer, 0, 0, SRCCOPY);

	mov	esi, esp
	push	13369376				; 00cc0020H
	push	0
	push	0
	mov	eax, DWORD PTR ?hdcBackBuffer@?1??WindowProc@@YGJPAUHWND__@@IIJ@Z@4PAUHDC__@@A
	push	eax
	mov	ecx, DWORD PTR ?cyClient@?1??WindowProc@@YGJPAUHWND__@@IIJ@Z@4HA
	push	ecx
	mov	edx, DWORD PTR ?cxClient@?1??WindowProc@@YGJPAUHWND__@@IIJ@Z@4HA
	push	edx
	push	0
	push	0
	mov	eax, DWORD PTR _ps$5[ebp]
	push	eax
	call	DWORD PTR __imp__BitBlt@36
	cmp	esi, esp
	call	__RTC_CheckEsp

; 366  : 
; 367  : 		EndPaint(hwnd, &ps);

	mov	esi, esp
	lea	ecx, DWORD PTR _ps$5[ebp]
	push	ecx
	mov	edx, DWORD PTR _hwnd$[ebp]
	push	edx
	call	DWORD PTR __imp__EndPaint@8
	cmp	esi, esp
	call	__RTC_CheckEsp

; 368  : 
; 369  : 	}
; 370  : 
; 371  : 	break;

	jmp	$LN2@WindowProc
$LN40@WindowProc:

; 372  : 
; 373  : 	//has the user resized the client area?
; 374  : 	case WM_SIZE:
; 375  : 	{
; 376  : 		//if so we need to update our variables so that any drawing
; 377  : 		//we do using cxClient and cyClient is scaled accordingly
; 378  : 		cxClient = LOWORD(lParam);

	mov	eax, DWORD PTR _lParam$[ebp]
	and	eax, 65535				; 0000ffffH
	movzx	ecx, ax
	mov	DWORD PTR ?cxClient@?1??WindowProc@@YGJPAUHWND__@@IIJ@Z@4HA, ecx

; 379  : 		cyClient = HIWORD(lParam);

	mov	edx, DWORD PTR _lParam$[ebp]
	shr	edx, 16					; 00000010H
	and	edx, 65535				; 0000ffffH
	movzx	eax, dx
	mov	DWORD PTR ?cyClient@?1??WindowProc@@YGJPAUHWND__@@IIJ@Z@4HA, eax

; 380  : 
; 381  : 		//now to resize the backbuffer accordingly. First select
; 382  : 		//the old bitmap back into the DC
; 383  : 		SelectObject(hdcBackBuffer, hOldBitmap);

	mov	esi, esp
	mov	ecx, DWORD PTR ?hOldBitmap@?1??WindowProc@@YGJPAUHWND__@@IIJ@Z@4PAUHBITMAP__@@A
	push	ecx
	mov	edx, DWORD PTR ?hdcBackBuffer@?1??WindowProc@@YGJPAUHWND__@@IIJ@Z@4PAUHDC__@@A
	push	edx
	call	DWORD PTR __imp__SelectObject@8
	cmp	esi, esp
	call	__RTC_CheckEsp

; 384  : 
; 385  : 		//don't forget to do this or you will get resource leaks
; 386  : 		DeleteObject(hBitmap);

	mov	esi, esp
	mov	eax, DWORD PTR ?hBitmap@?1??WindowProc@@YGJPAUHWND__@@IIJ@Z@4PAUHBITMAP__@@A
	push	eax
	call	DWORD PTR __imp__DeleteObject@4
	cmp	esi, esp
	call	__RTC_CheckEsp

; 387  : 
; 388  : 		//get the DC for the application
; 389  : 		HDC hdc = GetDC(hwnd);

	mov	esi, esp
	mov	ecx, DWORD PTR _hwnd$[ebp]
	push	ecx
	call	DWORD PTR __imp__GetDC@4
	cmp	esi, esp
	call	__RTC_CheckEsp
	mov	DWORD PTR _hdc$4[ebp], eax

; 390  : 
; 391  : 		//create another bitmap of the same size and mode
; 392  :   //as the application
; 393  : 		hBitmap = CreateCompatibleBitmap(hdc,

	mov	esi, esp
	mov	edx, DWORD PTR ?cyClient@?1??WindowProc@@YGJPAUHWND__@@IIJ@Z@4HA
	push	edx
	mov	eax, DWORD PTR ?cxClient@?1??WindowProc@@YGJPAUHWND__@@IIJ@Z@4HA
	push	eax
	mov	ecx, DWORD PTR _hdc$4[ebp]
	push	ecx
	call	DWORD PTR __imp__CreateCompatibleBitmap@12
	cmp	esi, esp
	call	__RTC_CheckEsp
	mov	DWORD PTR ?hBitmap@?1??WindowProc@@YGJPAUHWND__@@IIJ@Z@4PAUHBITMAP__@@A, eax

; 394  : 			cxClient,
; 395  : 			cyClient);
; 396  : 
; 397  : 		ReleaseDC(hwnd, hdc);

	mov	esi, esp
	mov	edx, DWORD PTR _hdc$4[ebp]
	push	edx
	mov	eax, DWORD PTR _hwnd$[ebp]
	push	eax
	call	DWORD PTR __imp__ReleaseDC@8
	cmp	esi, esp
	call	__RTC_CheckEsp

; 398  : 
; 399  : 		//select the new bitmap into the DC
; 400  : 		SelectObject(hdcBackBuffer, hBitmap);

	mov	esi, esp
	mov	ecx, DWORD PTR ?hBitmap@?1??WindowProc@@YGJPAUHWND__@@IIJ@Z@4PAUHBITMAP__@@A
	push	ecx
	mov	edx, DWORD PTR ?hdcBackBuffer@?1??WindowProc@@YGJPAUHWND__@@IIJ@Z@4PAUHDC__@@A
	push	edx
	call	DWORD PTR __imp__SelectObject@8
	cmp	esi, esp
	call	__RTC_CheckEsp

; 401  : 
; 402  : 	}
; 403  : 
; 404  : 	break;

	jmp	SHORT $LN2@WindowProc
$LN41@WindowProc:

; 405  : 
; 406  : 	case WM_DESTROY:
; 407  : 	{
; 408  : 
; 409  : 		//clean up our backbuffer objects
; 410  : 		SelectObject(hdcBackBuffer, hOldBitmap);

	mov	esi, esp
	mov	eax, DWORD PTR ?hOldBitmap@?1??WindowProc@@YGJPAUHWND__@@IIJ@Z@4PAUHBITMAP__@@A
	push	eax
	mov	ecx, DWORD PTR ?hdcBackBuffer@?1??WindowProc@@YGJPAUHWND__@@IIJ@Z@4PAUHDC__@@A
	push	ecx
	call	DWORD PTR __imp__SelectObject@8
	cmp	esi, esp
	call	__RTC_CheckEsp

; 411  : 
; 412  : 		DeleteDC(hdcBackBuffer);

	mov	esi, esp
	mov	edx, DWORD PTR ?hdcBackBuffer@?1??WindowProc@@YGJPAUHWND__@@IIJ@Z@4PAUHDC__@@A
	push	edx
	call	DWORD PTR __imp__DeleteDC@4
	cmp	esi, esp
	call	__RTC_CheckEsp

; 413  : 		DeleteObject(hBitmap);

	mov	esi, esp
	mov	eax, DWORD PTR ?hBitmap@?1??WindowProc@@YGJPAUHWND__@@IIJ@Z@4PAUHBITMAP__@@A
	push	eax
	call	DWORD PTR __imp__DeleteObject@4
	cmp	esi, esp
	call	__RTC_CheckEsp

; 414  : 
; 415  : 
; 416  : 		// kill the application, this sends a WM_QUIT message  
; 417  : 		PostQuitMessage(0);

	mov	esi, esp
	push	0
	call	DWORD PTR __imp__PostQuitMessage@4
	cmp	esi, esp
	call	__RTC_CheckEsp
$LN2@WindowProc:

; 418  : 	}
; 419  : 
; 420  : 	break;
; 421  : 
; 422  : 	}//end switch
; 423  : 
; 424  : 	//this is where all the messages not specifically handled by our 
; 425  : 		//winproc are sent to be processed
; 426  : 	return DefWindowProc(hwnd, msg, wParam, lParam);

	mov	esi, esp
	mov	ecx, DWORD PTR _lParam$[ebp]
	push	ecx
	mov	edx, DWORD PTR _wParam$[ebp]
	push	edx
	mov	eax, DWORD PTR _msg$[ebp]
	push	eax
	mov	ecx, DWORD PTR _hwnd$[ebp]
	push	ecx
	call	DWORD PTR __imp__DefWindowProcA@16
	cmp	esi, esp
	call	__RTC_CheckEsp

; 427  : }

	push	edx
	mov	ecx, ebp
	push	eax
	lea	edx, DWORD PTR $LN83@WindowProc
	call	@_RTC_CheckStackVars@8
	pop	eax
	pop	edx
	mov	ecx, DWORD PTR __$EHRec$[ebp]
	mov	DWORD PTR fs:0, ecx
	pop	ecx
	pop	edi
	pop	esi
	mov	ecx, DWORD PTR __$ArrayPad$[ebp]
	xor	ecx, ebp
	call	@__security_check_cookie@4
	add	esp, 276				; 00000114H
	cmp	ebp, esp
	call	__RTC_CheckEsp
	mov	esp, ebp
	pop	ebp
	ret	16					; 00000010H
	npad	1
$LN83@WindowProc:
	DD	2
	DD	$LN82@WindowProc
$LN82@WindowProc:
	DD	-36					; ffffffdcH
	DD	16					; 00000010H
	DD	$LN79@WindowProc
	DD	-196					; ffffff3cH
	DD	64					; 00000040H
	DD	$LN80@WindowProc
$LN80@WindowProc:
	DB	112					; 00000070H
	DB	115					; 00000073H
	DB	0
$LN79@WindowProc:
	DB	114					; 00000072H
	DB	101					; 00000065H
	DB	99					; 00000063H
	DB	116					; 00000074H
	DB	0
$LN75@WindowProc:
	DD	$LN8@WindowProc
	DD	$LN41@WindowProc
	DD	$LN40@WindowProc
	DD	$LN39@WindowProc
	DD	$LN2@WindowProc
$LN74@WindowProc:
	DB	0
	DB	1
	DB	4
	DB	4
	DB	2
	DB	4
	DB	4
	DB	4
	DB	4
	DB	4
	DB	4
	DB	4
	DB	4
	DB	4
	DB	3
	npad	1
$LN77@WindowProc:
	DD	$LN10@WindowProc
	DD	$LN17@WindowProc
	DD	$LN18@WindowProc
	DD	$LN12@WindowProc
	DD	$LN13@WindowProc
	DD	$LN14@WindowProc
	DD	$LN15@WindowProc
	DD	$LN11@WindowProc
	DD	$LN16@WindowProc
	DD	$LN4@WindowProc
$LN76@WindowProc:
	DB	0
	DB	9
	DB	9
	DB	9
	DB	9
	DB	9
	DB	9
	DB	9
	DB	9
	DB	9
	DB	9
	DB	1
	DB	9
	DB	2
	DB	9
	DB	9
	DB	9
	DB	9
	DB	9
	DB	9
	DB	9
	DB	9
	DB	3
	DB	4
	DB	5
	DB	6
	DB	9
	DB	9
	DB	9
	DB	9
	DB	9
	DB	9
	DB	9
	DB	9
	DB	9
	DB	9
	DB	9
	DB	9
	DB	9
	DB	9
	DB	9
	DB	9
	DB	9
	DB	9
	DB	9
	DB	9
	DB	9
	DB	9
	DB	9
	DB	9
	DB	9
	DB	9
	DB	9
	DB	7
	DB	9
	DB	9
	DB	9
	DB	9
	DB	9
	DB	9
	DB	9
	DB	8
	npad	2
$LN78@WindowProc:
	DD	$LN22@WindowProc
	DD	$LN27@WindowProc
	DD	$LN39@WindowProc
	DD	$LN28@WindowProc
	DD	$LN30@WindowProc
	DD	$LN32@WindowProc
	DD	$LN33@WindowProc
	DD	$LN34@WindowProc
	DD	$LN36@WindowProc
	DD	$LN37@WindowProc
	DD	$LN38@WindowProc
	DD	$LN29@WindowProc
	DD	$LN24@WindowProc
	DD	$LN25@WindowProc
	DD	$LN31@WindowProc
	DD	$LN35@WindowProc
	DD	$LN26@WindowProc
_TEXT	ENDS
text$x	SEGMENT
__unwindfunclet$?WindowProc@@YGJPAUHWND__@@IIJ@Z$0:
	push	44					; 0000002cH
	mov	eax, DWORD PTR $T2[ebp]
	push	eax
	call	??3@YAXPAXI@Z				; operator delete
	add	esp, 8
	ret	0
__unwindfunclet$?WindowProc@@YGJPAUHWND__@@IIJ@Z$1:
	lea	ecx, DWORD PTR $T8[ebp]
	jmp	??1?$basic_string@DU?$char_traits@D@std@@V?$allocator@D@2@@std@@QAE@XZ ; std::basic_string<char,std::char_traits<char>,std::allocator<char> >::~basic_string<char,std::char_traits<char>,std::allocator<char> >
__unwindfunclet$?WindowProc@@YGJPAUHWND__@@IIJ@Z$2:
	lea	ecx, DWORD PTR $T7[ebp]
	jmp	??1?$basic_string@DU?$char_traits@D@std@@V?$allocator@D@2@@std@@QAE@XZ ; std::basic_string<char,std::char_traits<char>,std::allocator<char> >::~basic_string<char,std::char_traits<char>,std::allocator<char> >
__unwindfunclet$?WindowProc@@YGJPAUHWND__@@IIJ@Z$3:
	lea	ecx, DWORD PTR $T6[ebp]
	jmp	??1?$basic_string@DU?$char_traits@D@std@@V?$allocator@D@2@@std@@QAE@XZ ; std::basic_string<char,std::char_traits<char>,std::allocator<char> >::~basic_string<char,std::char_traits<char>,std::allocator<char> >
	int	3
	int	3
	int	3
	int	3
	int	3
__ehhandler$?WindowProc@@YGJPAUHWND__@@IIJ@Z:
	npad	1
	npad	1
	mov	edx, DWORD PTR [esp+8]
	lea	eax, DWORD PTR [edx+12]
	mov	ecx, DWORD PTR [edx-276]
	xor	ecx, eax
	call	@__security_check_cookie@4
	mov	ecx, DWORD PTR [edx-4]
	xor	ecx, eax
	call	@__security_check_cookie@4
	mov	eax, OFFSET __ehfuncinfo$?WindowProc@@YGJPAUHWND__@@IIJ@Z
	jmp	___CxxFrameHandler3
text$x	ENDS
?WindowProc@@YGJPAUHWND__@@IIJ@Z ENDP			; WindowProc
; Function compile flags: /Odtp /RTCsu
;	COMDAT ??_GRaven_Game@@QAEPAXI@Z
_TEXT	SEGMENT
_this$ = -4						; size = 4
___flags$ = 8						; size = 4
??_GRaven_Game@@QAEPAXI@Z PROC				; Raven_Game::`scalar deleting destructor', COMDAT
; _this$ = ecx
	push	ebp
	mov	ebp, esp
	push	ecx
	mov	DWORD PTR [ebp-4], -858993460		; ccccccccH
	mov	DWORD PTR _this$[ebp], ecx
	mov	ecx, DWORD PTR _this$[ebp]
	call	??1Raven_Game@@QAE@XZ			; Raven_Game::~Raven_Game
	mov	eax, DWORD PTR ___flags$[ebp]
	and	eax, 1
	je	SHORT $LN2@scalar
	push	44					; 0000002cH
	mov	ecx, DWORD PTR _this$[ebp]
	push	ecx
	call	??3@YAXPAXI@Z				; operator delete
	add	esp, 8
$LN2@scalar:
	mov	eax, DWORD PTR _this$[ebp]
	add	esp, 4
	cmp	ebp, esp
	call	__RTC_CheckEsp
	mov	esp, ebp
	pop	ebp
	ret	4
??_GRaven_Game@@QAEPAXI@Z ENDP				; Raven_Game::`scalar deleting destructor'
_TEXT	ENDS
; Function compile flags: /Odtp /RTCsu
; File D:\__Repos\__MyRepos\Raven_VS2022\Raven\Raven_Game.h
;	COMDAT ?TogglePause@Raven_Game@@QAEXXZ
_TEXT	SEGMENT
tv68 = -8						; size = 4
_this$ = -4						; size = 4
?TogglePause@Raven_Game@@QAEXXZ PROC			; Raven_Game::TogglePause, COMDAT
; _this$ = ecx

; 135  :   void        TogglePause(){m_bPaused = !m_bPaused;}

	push	ebp
	mov	ebp, esp
	sub	esp, 8
	mov	DWORD PTR _this$[ebp], ecx
	mov	eax, DWORD PTR _this$[ebp]
	movzx	ecx, BYTE PTR [eax+36]
	test	ecx, ecx
	jne	SHORT $LN3@TogglePaus
	mov	DWORD PTR tv68[ebp], 1
	jmp	SHORT $LN4@TogglePaus
$LN3@TogglePaus:
	mov	DWORD PTR tv68[ebp], 0
$LN4@TogglePaus:
	mov	edx, DWORD PTR _this$[ebp]
	mov	al, BYTE PTR tv68[ebp]
	mov	BYTE PTR [edx+36], al
	mov	esp, ebp
	pop	ebp
	ret	0
?TogglePause@Raven_Game@@QAEXXZ ENDP			; Raven_Game::TogglePause
_TEXT	ENDS
; Function compile flags: /Odtp /RTCsu
; File D:\__Repos\__MyRepos\Raven_VS2022\Common\debug\DebugConsole.h
;	COMDAT ?Instance@CSink@@SAPAV1@XZ
_TEXT	SEGMENT
__$EHRec$ = -12						; size = 12
?Instance@CSink@@SAPAV1@XZ PROC				; CSink::Instance, COMDAT

; 67   :   static CSink* Instance(){static CSink instance; return &instance;}

	push	ebp
	mov	ebp, esp
	push	-1
	push	__ehhandler$?Instance@CSink@@SAPAV1@XZ
	mov	eax, DWORD PTR fs:0
	push	eax
	mov	eax, DWORD PTR ___security_cookie
	xor	eax, ebp
	push	eax
	lea	eax, DWORD PTR __$EHRec$[ebp]
	mov	DWORD PTR fs:0, eax
	mov	eax, DWORD PTR __tls_index
	mov	ecx, DWORD PTR fs:__tls_array
	mov	edx, DWORD PTR [ecx+eax*4]
	mov	eax, DWORD PTR ?$TSS0@?1??Instance@CSink@@SAPAV2@XZ@4HA ; `CSink::Instance'::`2'::$TSS0
	cmp	eax, DWORD PTR __Init_thread_epoch[edx]
	jle	SHORT $LN2@Instance
	push	OFFSET ?$TSS0@?1??Instance@CSink@@SAPAV2@XZ@4HA ; `CSink::Instance'::`2'::$TSS0
	call	__Init_thread_header
	add	esp, 4
	cmp	DWORD PTR ?$TSS0@?1??Instance@CSink@@SAPAV2@XZ@4HA, -1 ; `CSink::Instance'::`2'::$TSS0
	jne	SHORT $LN2@Instance
	mov	DWORD PTR __$EHRec$[ebp+8], 0
	mov	ecx, OFFSET ?instance@?1??Instance@CSink@@SAPAV2@XZ@4V2@A ; `CSink::Instance'::`2'::instance
	call	??0CSink@@AAE@XZ			; CSink::CSink
	mov	DWORD PTR __$EHRec$[ebp+8], -1
	push	OFFSET ?$TSS0@?1??Instance@CSink@@SAPAV2@XZ@4HA ; `CSink::Instance'::`2'::$TSS0
	call	__Init_thread_footer
	add	esp, 4
$LN2@Instance:
	mov	eax, OFFSET ?instance@?1??Instance@CSink@@SAPAV2@XZ@4V2@A ; `CSink::Instance'::`2'::instance
	mov	ecx, DWORD PTR __$EHRec$[ebp]
	mov	DWORD PTR fs:0, ecx
	pop	ecx
	add	esp, 12					; 0000000cH
	cmp	ebp, esp
	call	__RTC_CheckEsp
	mov	esp, ebp
	pop	ebp
	ret	0
_TEXT	ENDS
;	COMDAT text$x
text$x	SEGMENT
__unwindfunclet$?Instance@CSink@@SAPAV1@XZ$0:
	push	OFFSET ?$TSS0@?1??Instance@CSink@@SAPAV2@XZ@4HA ; `CSink::Instance'::`2'::$TSS0
	call	__Init_thread_abort
	pop	ecx
	ret	0
	int	3
	int	3
	int	3
	int	3
	int	3
__ehhandler$?Instance@CSink@@SAPAV1@XZ:
	npad	1
	npad	1
	mov	edx, DWORD PTR [esp+8]
	lea	eax, DWORD PTR [edx+12]
	mov	ecx, DWORD PTR [edx-4]
	xor	ecx, eax
	call	@__security_check_cookie@4
	mov	eax, OFFSET __ehfuncinfo$?Instance@CSink@@SAPAV1@XZ
	jmp	___CxxFrameHandler3
text$x	ENDS
?Instance@CSink@@SAPAV1@XZ ENDP				; CSink::Instance
; Function compile flags: /Odtp /RTCsu
; File D:\__Repos\__MyRepos\Raven_VS2022\Common\debug\DebugConsole.h
;	COMDAT ??0CSink@@AAE@XZ
_TEXT	SEGMENT
_this$ = -4						; size = 4
??0CSink@@AAE@XZ PROC					; CSink::CSink, COMDAT
; _this$ = ecx

; 59   :   CSink(){};

	push	ebp
	mov	ebp, esp
	push	ecx
	mov	DWORD PTR _this$[ebp], ecx
	mov	eax, DWORD PTR _this$[ebp]
	mov	esp, ebp
	pop	ebp
	ret	0
??0CSink@@AAE@XZ ENDP					; CSink::CSink
_TEXT	ENDS
; Function compile flags: /Odtp /RTCsu
; File D:\__Repos\__MyRepos\Raven_VS2022\Common\misc\Cgdi.h
;	COMDAT ?StopDrawing@Cgdi@@QAEXPAUHDC__@@@Z
_TEXT	SEGMENT
_this$ = -4						; size = 4
_hdc$ = 8						; size = 4
?StopDrawing@Cgdi@@QAEXPAUHDC__@@@Z PROC		; Cgdi::StopDrawing, COMDAT
; _this$ = ecx

; 194  :   {

	push	ebp
	mov	ebp, esp
	push	ecx
	push	esi
	mov	DWORD PTR [ebp-4], -858993460		; ccccccccH
	mov	DWORD PTR _this$[ebp], ecx

; 195  :     assert(hdc != NULL);

	cmp	DWORD PTR _hdc$[ebp], 0
	jne	SHORT $LN3@StopDrawin
	push	195					; 000000c3H
	push	OFFSET ??_C@_1GK@OJJIPFJO@?$AAD?$AA?3?$AA?2?$AA_?$AA_?$AAR?$AAe?$AAp?$AAo?$AAs?$AA?2?$AA_?$AA_?$AAM?$AAy@
	push	OFFSET ??_C@_1BI@BMAFMIJF@?$AAh?$AAd?$AAc?$AA?5?$AA?$CB?$AA?$DN?$AA?5?$AAN?$AAU?$AAL?$AAL@
	call	__wassert
	add	esp, 12					; 0000000cH
$LN3@StopDrawin:

; 196  :     
; 197  :     SelectObject(hdc, m_OldPen);

	mov	esi, esp
	mov	ecx, DWORD PTR _this$[ebp]
	mov	edx, DWORD PTR [ecx]
	push	edx
	mov	eax, DWORD PTR _hdc$[ebp]
	push	eax
	call	DWORD PTR __imp__SelectObject@8
	cmp	esi, esp
	call	__RTC_CheckEsp

; 198  :     SelectObject(hdc, m_OldBrush);

	mov	esi, esp
	mov	ecx, DWORD PTR _this$[ebp]
	mov	edx, DWORD PTR [ecx+84]
	push	edx
	mov	eax, DWORD PTR _hdc$[ebp]
	push	eax
	call	DWORD PTR __imp__SelectObject@8
	cmp	esi, esp
	call	__RTC_CheckEsp

; 199  : 
; 200  :     m_hdc = NULL;

	mov	ecx, DWORD PTR _this$[ebp]
	mov	DWORD PTR [ecx+124], 0

; 201  :  
; 202  :   }

	pop	esi
	add	esp, 4
	cmp	ebp, esp
	call	__RTC_CheckEsp
	mov	esp, ebp
	pop	ebp
	ret	4
?StopDrawing@Cgdi@@QAEXPAUHDC__@@@Z ENDP		; Cgdi::StopDrawing
_TEXT	ENDS
; Function compile flags: /Odtp /RTCsu
; File D:\__Repos\__MyRepos\Raven_VS2022\Common\misc\Cgdi.h
;	COMDAT ?StartDrawing@Cgdi@@QAEXPAUHDC__@@@Z
_TEXT	SEGMENT
_this$ = -4						; size = 4
_hdc$ = 8						; size = 4
?StartDrawing@Cgdi@@QAEXPAUHDC__@@@Z PROC		; Cgdi::StartDrawing, COMDAT
; _this$ = ecx

; 176  :   {

	push	ebp
	mov	ebp, esp
	push	ecx
	push	esi
	mov	DWORD PTR [ebp-4], -858993460		; ccccccccH
	mov	DWORD PTR _this$[ebp], ecx

; 177  :     assert(m_hdc == NULL);

	mov	eax, DWORD PTR _this$[ebp]
	cmp	DWORD PTR [eax+124], 0
	je	SHORT $LN3@StartDrawi
	push	177					; 000000b1H
	push	OFFSET ??_C@_1GK@OJJIPFJO@?$AAD?$AA?3?$AA?2?$AA_?$AA_?$AAR?$AAe?$AAp?$AAo?$AAs?$AA?2?$AA_?$AA_?$AAM?$AAy@
	push	OFFSET ??_C@_1BM@MMNOPHKK@?$AAm?$AA_?$AAh?$AAd?$AAc?$AA?5?$AA?$DN?$AA?$DN?$AA?5?$AAN?$AAU?$AAL?$AAL@
	call	__wassert
	add	esp, 12					; 0000000cH
$LN3@StartDrawi:

; 178  :     
; 179  :     m_hdc = hdc;

	mov	edx, DWORD PTR _this$[ebp]
	mov	eax, DWORD PTR _hdc$[ebp]
	mov	DWORD PTR [edx+124], eax

; 180  : 
; 181  :     //get the current pen
; 182  :     m_OldPen = (HPEN)SelectObject(hdc, m_BlackPen);

	mov	esi, esp
	mov	ecx, DWORD PTR _this$[ebp]
	mov	edx, DWORD PTR [ecx+4]
	push	edx
	mov	eax, DWORD PTR _hdc$[ebp]
	push	eax
	call	DWORD PTR __imp__SelectObject@8
	cmp	esi, esp
	call	__RTC_CheckEsp
	mov	ecx, DWORD PTR _this$[ebp]
	mov	DWORD PTR [ecx], eax

; 183  :     //select it back in
; 184  :     SelectObject(hdc, m_OldPen);

	mov	esi, esp
	mov	edx, DWORD PTR _this$[ebp]
	mov	eax, DWORD PTR [edx]
	push	eax
	mov	ecx, DWORD PTR _hdc$[ebp]
	push	ecx
	call	DWORD PTR __imp__SelectObject@8
	cmp	esi, esp
	call	__RTC_CheckEsp

; 185  : 
; 186  :     m_OldBrush = (HBRUSH)SelectObject(hdc, GetStockObject(BLACK_BRUSH));

	mov	esi, esp
	push	4
	call	DWORD PTR __imp__GetStockObject@4
	cmp	esi, esp
	call	__RTC_CheckEsp
	mov	esi, esp
	push	eax
	mov	edx, DWORD PTR _hdc$[ebp]
	push	edx
	call	DWORD PTR __imp__SelectObject@8
	cmp	esi, esp
	call	__RTC_CheckEsp
	mov	ecx, DWORD PTR _this$[ebp]
	mov	DWORD PTR [ecx+84], eax

; 187  :     SelectObject(hdc, m_OldBrush);

	mov	esi, esp
	mov	edx, DWORD PTR _this$[ebp]
	mov	eax, DWORD PTR [edx+84]
	push	eax
	mov	ecx, DWORD PTR _hdc$[ebp]
	push	ecx
	call	DWORD PTR __imp__SelectObject@8
	cmp	esi, esp
	call	__RTC_CheckEsp

; 188  :   }

	pop	esi
	add	esp, 4
	cmp	ebp, esp
	call	__RTC_CheckEsp
	mov	esp, ebp
	pop	ebp
	ret	4
?StartDrawing@Cgdi@@QAEXPAUHDC__@@@Z ENDP		; Cgdi::StartDrawing
_TEXT	ENDS
; Function compile flags: /Odtp /RTCsu
; File D:\__Repos\__MyRepos\Raven_VS2022\Common\misc\windowutils.h
;	COMDAT ?RedrawWindow@@YAXPAUHWND__@@_N@Z
_TEXT	SEGMENT
_hwnd$ = 8						; size = 4
_RedrawBackGround$ = 12					; size = 1
?RedrawWindow@@YAXPAUHWND__@@_N@Z PROC			; RedrawWindow, COMDAT

; 18   : {

	push	ebp
	mov	ebp, esp
	push	esi

; 19   :   InvalidateRect(hwnd, NULL, RedrawBackGround);

	movzx	eax, BYTE PTR _RedrawBackGround$[ebp]
	mov	esi, esp
	push	eax
	push	0
	mov	ecx, DWORD PTR _hwnd$[ebp]
	push	ecx
	call	DWORD PTR __imp__InvalidateRect@12
	cmp	esi, esp
	call	__RTC_CheckEsp

; 20   :   UpdateWindow(hwnd);

	mov	esi, esp
	mov	edx, DWORD PTR _hwnd$[ebp]
	push	edx
	call	DWORD PTR __imp__UpdateWindow@4
	cmp	esi, esp
	call	__RTC_CheckEsp

; 21   : }

	pop	esi
	cmp	ebp, esp
	call	__RTC_CheckEsp
	pop	ebp
	ret	0
?RedrawWindow@@YAXPAUHWND__@@_N@Z ENDP			; RedrawWindow
_TEXT	ENDS
; Function compile flags: /Odtp /RTCsu
; File D:\__Repos\__MyRepos\Raven_VS2022\Common\Time\PrecisionTimer.h
;	COMDAT ?ReadyForNextFrame@PrecisionTimer@@QAE_NXZ
_TEXT	SEGMENT
tv132 = -12						; size = 4
tv131 = -8						; size = 4
_this$ = -4						; size = 4
?ReadyForNextFrame@PrecisionTimer@@QAE_NXZ PROC		; PrecisionTimer::ReadyForNextFrame, COMDAT
; _this$ = ecx

; 89   : {

	push	ebp
	mov	ebp, esp
	sub	esp, 12					; 0000000cH
	push	esi
	mov	DWORD PTR [ebp-12], -858993460		; ccccccccH
	mov	DWORD PTR [ebp-8], -858993460		; ccccccccH
	mov	DWORD PTR [ebp-4], -858993460		; ccccccccH
	mov	DWORD PTR _this$[ebp], ecx

; 90   :   assert(m_NormalFPS && "PrecisionTimer::ReadyForNextFrame<No FPS set in timer>");

	mov	eax, DWORD PTR _this$[ebp]
	movsd	xmm0, QWORD PTR [eax+80]
	ucomisd	xmm0, QWORD PTR __real@0000000000000000
	lahf
	test	ah, 68					; 00000044H
	jnp	SHORT $LN4@ReadyForNe
	mov	ecx, OFFSET ??_C@_0DH@OCBBBONP@PrecisionTimer?3?3ReadyForNextFra@
	test	ecx, ecx
	jne	SHORT $LN5@ReadyForNe
$LN4@ReadyForNe:
	push	90					; 0000005aH
	push	OFFSET ??_C@_1HO@MGBDJLEO@?$AAD?$AA?3?$AA?2?$AA_?$AA_?$AAR?$AAe?$AAp?$AAo?$AAs?$AA?2?$AA_?$AA_?$AAM?$AAy@
	push	OFFSET ??_C@_1JA@JKGMJBNB@?$AAm?$AA_?$AAN?$AAo?$AAr?$AAm?$AAa?$AAl?$AAF?$AAP?$AAS?$AA?5?$AA?$CG?$AA?$CG?$AA?5@
	call	__wassert
	add	esp, 12					; 0000000cH
$LN5@ReadyForNe:

; 91   :   
; 92   :   QueryPerformanceCounter( (LARGE_INTEGER*) &m_CurrentTime);

	mov	eax, DWORD PTR _this$[ebp]
	mov	esi, esp
	push	eax
	call	DWORD PTR __imp__QueryPerformanceCounter@4
	cmp	esi, esp
	call	__RTC_CheckEsp

; 93   : 
; 94   :   if (m_CurrentTime > m_NextTime)

	mov	ecx, DWORD PTR _this$[ebp]
	mov	edx, DWORD PTR _this$[ebp]
	mov	DWORD PTR tv131[ebp], ecx
	mov	DWORD PTR tv132[ebp], edx
	mov	eax, DWORD PTR tv131[ebp]
	mov	ecx, DWORD PTR tv132[ebp]
	mov	edx, DWORD PTR [eax+4]
	cmp	edx, DWORD PTR [ecx+28]
	jl	SHORT $LN2@ReadyForNe
	jg	SHORT $LN6@ReadyForNe
	mov	eax, DWORD PTR tv131[ebp]
	mov	ecx, DWORD PTR tv132[ebp]
	mov	edx, DWORD PTR [eax]
	cmp	edx, DWORD PTR [ecx+24]
	jbe	SHORT $LN2@ReadyForNe
$LN6@ReadyForNe:

; 95   :   {
; 96   : 
; 97   :     m_TimeElapsed = (m_CurrentTime - m_LastTime) * m_TimeScale;

	mov	eax, DWORD PTR _this$[ebp]
	mov	ecx, DWORD PTR _this$[ebp]
	mov	esi, DWORD PTR [eax]
	sub	esi, DWORD PTR [ecx+8]
	mov	edx, DWORD PTR [eax+4]
	sbb	edx, DWORD PTR [ecx+12]
	mov	ecx, esi
	call	__ltod3
	mov	edx, DWORD PTR _this$[ebp]
	mulsd	xmm0, QWORD PTR [edx+72]
	mov	eax, DWORD PTR _this$[ebp]
	movsd	QWORD PTR [eax+56], xmm0

; 98   :     m_LastTime    = m_CurrentTime;

	mov	ecx, DWORD PTR _this$[ebp]
	mov	edx, DWORD PTR _this$[ebp]
	mov	eax, DWORD PTR [edx]
	mov	edx, DWORD PTR [edx+4]
	mov	DWORD PTR [ecx+8], eax
	mov	DWORD PTR [ecx+12], edx

; 99   : 
; 100  :     //update time to render next frame
; 101  :     m_NextTime = m_CurrentTime + m_FrameTime;

	mov	eax, DWORD PTR _this$[ebp]
	mov	ecx, DWORD PTR _this$[ebp]
	mov	edx, DWORD PTR [eax]
	add	edx, DWORD PTR [ecx+40]
	mov	eax, DWORD PTR [eax+4]
	adc	eax, DWORD PTR [ecx+44]
	mov	ecx, DWORD PTR _this$[ebp]
	mov	DWORD PTR [ecx+24], edx
	mov	DWORD PTR [ecx+28], eax

; 102  : 
; 103  :     return true;

	mov	al, 1
	jmp	SHORT $LN1@ReadyForNe
$LN2@ReadyForNe:

; 104  :   }
; 105  : 
; 106  :   return false;

	xor	al, al
$LN1@ReadyForNe:

; 107  : }

	pop	esi
	add	esp, 12					; 0000000cH
	cmp	ebp, esp
	call	__RTC_CheckEsp
	mov	esp, ebp
	pop	ebp
	ret	0
?ReadyForNextFrame@PrecisionTimer@@QAE_NXZ ENDP		; PrecisionTimer::ReadyForNextFrame
_TEXT	ENDS
; Function compile flags: /Odtp /RTCsu
; File C:\Program Files\Microsoft Visual Studio\2022\Community\VC\Tools\MSVC\14.33.31629\include\xlocale
;	COMDAT ??0id@locale@std@@QAE@I@Z
_TEXT	SEGMENT
_this$ = -4						; size = 4
__Val$ = 8						; size = 4
??0id@locale@std@@QAE@I@Z PROC				; std::locale::id::id, COMDAT
; _this$ = ecx

; 96   :         __CLR_OR_THIS_CALL id(size_t _Val = 0) : _Id(_Val) {}

	push	ebp
	mov	ebp, esp
	push	ecx
	mov	DWORD PTR _this$[ebp], ecx
	mov	eax, DWORD PTR _this$[ebp]
	mov	ecx, DWORD PTR __Val$[ebp]
	mov	DWORD PTR [eax], ecx
	mov	eax, DWORD PTR _this$[ebp]
	mov	esp, ebp
	pop	ebp
	ret	4
??0id@locale@std@@QAE@I@Z ENDP				; std::locale::id::id
_TEXT	ENDS
; Function compile flags: /Odtp /RTCsu
;	COMDAT ??1?$_Compressed_pair@V?$allocator@D@std@@V?$_String_val@U?$_Simple_types@D@std@@@2@$00@std@@QAE@XZ
_TEXT	SEGMENT
_this$ = -4						; size = 4
??1?$_Compressed_pair@V?$allocator@D@std@@V?$_String_val@U?$_Simple_types@D@std@@@2@$00@std@@QAE@XZ PROC ; std::_Compressed_pair<std::allocator<char>,std::_String_val<std::_Simple_types<char> >,1>::~_Compressed_pair<std::allocator<char>,std::_String_val<std::_Simple_types<char> >,1>, COMDAT
; _this$ = ecx
	push	ebp
	mov	ebp, esp
	push	ecx
	mov	DWORD PTR [ebp-4], -858993460		; ccccccccH
	mov	DWORD PTR _this$[ebp], ecx
	mov	ecx, DWORD PTR _this$[ebp]
	call	??1?$_String_val@U?$_Simple_types@D@std@@@std@@QAE@XZ
	add	esp, 4
	cmp	ebp, esp
	call	__RTC_CheckEsp
	mov	esp, ebp
	pop	ebp
	ret	0
??1?$_Compressed_pair@V?$allocator@D@std@@V?$_String_val@U?$_Simple_types@D@std@@@2@$00@std@@QAE@XZ ENDP ; std::_Compressed_pair<std::allocator<char>,std::_String_val<std::_Simple_types<char> >,1>::~_Compressed_pair<std::allocator<char>,std::_String_val<std::_Simple_types<char> >,1>
_TEXT	ENDS
; Function compile flags: /Odtp /RTCsu
; File C:\Program Files\Microsoft Visual Studio\2022\Community\VC\Tools\MSVC\14.33.31629\include\xmemory
;	COMDAT ?_Get_first@?$_Compressed_pair@V?$allocator@D@std@@V?$_String_val@U?$_Simple_types@D@std@@@2@$00@std@@QBEABV?$allocator@D@2@XZ
_TEXT	SEGMENT
_this$ = -4						; size = 4
?_Get_first@?$_Compressed_pair@V?$allocator@D@std@@V?$_String_val@U?$_Simple_types@D@std@@@2@$00@std@@QBEABV?$allocator@D@2@XZ PROC ; std::_Compressed_pair<std::allocator<char>,std::_String_val<std::_Simple_types<char> >,1>::_Get_first, COMDAT
; _this$ = ecx

; 1386 :     constexpr const _Ty1& _Get_first() const noexcept {

	push	ebp
	mov	ebp, esp
	push	ecx
	mov	DWORD PTR _this$[ebp], ecx

; 1387 :         return *this;

	mov	eax, DWORD PTR _this$[ebp]

; 1388 :     }

	mov	esp, ebp
	pop	ebp
	ret	0
?_Get_first@?$_Compressed_pair@V?$allocator@D@std@@V?$_String_val@U?$_Simple_types@D@std@@@2@$00@std@@QBEABV?$allocator@D@2@XZ ENDP ; std::_Compressed_pair<std::allocator<char>,std::_String_val<std::_Simple_types<char> >,1>::_Get_first
_TEXT	ENDS
; Function compile flags: /Odtp /RTCsu
; File C:\Program Files\Microsoft Visual Studio\2022\Community\VC\Tools\MSVC\14.33.31629\include\xmemory
;	COMDAT ?_Get_first@?$_Compressed_pair@V?$allocator@D@std@@V?$_String_val@U?$_Simple_types@D@std@@@2@$00@std@@QAEAAV?$allocator@D@2@XZ
_TEXT	SEGMENT
_this$ = -4						; size = 4
?_Get_first@?$_Compressed_pair@V?$allocator@D@std@@V?$_String_val@U?$_Simple_types@D@std@@@2@$00@std@@QAEAAV?$allocator@D@2@XZ PROC ; std::_Compressed_pair<std::allocator<char>,std::_String_val<std::_Simple_types<char> >,1>::_Get_first, COMDAT
; _this$ = ecx

; 1382 :     constexpr _Ty1& _Get_first() noexcept {

	push	ebp
	mov	ebp, esp
	push	ecx
	mov	DWORD PTR _this$[ebp], ecx

; 1383 :         return *this;

	mov	eax, DWORD PTR _this$[ebp]

; 1384 :     }

	mov	esp, ebp
	pop	ebp
	ret	0
?_Get_first@?$_Compressed_pair@V?$allocator@D@std@@V?$_String_val@U?$_Simple_types@D@std@@@2@$00@std@@QAEAAV?$allocator@D@2@XZ ENDP ; std::_Compressed_pair<std::allocator<char>,std::_String_val<std::_Simple_types<char> >,1>::_Get_first
_TEXT	ENDS
; Function compile flags: /Odtp /RTCsu
; File C:\Program Files\Microsoft Visual Studio\2022\Community\VC\Tools\MSVC\14.33.31629\include\xstring
;	COMDAT ?_Getal@?$basic_string@DU?$char_traits@D@std@@V?$allocator@D@2@@std@@ABEABV?$allocator@D@2@XZ
_TEXT	SEGMENT
_this$ = -4						; size = 4
?_Getal@?$basic_string@DU?$char_traits@D@std@@V?$allocator@D@2@@std@@ABEABV?$allocator@D@2@XZ PROC ; std::basic_string<char,std::char_traits<char>,std::allocator<char> >::_Getal, COMDAT
; _this$ = ecx

; 4935 :     _CONSTEXPR20 const _Alty& _Getal() const noexcept {

	push	ebp
	mov	ebp, esp
	push	ecx
	mov	DWORD PTR [ebp-4], -858993460		; ccccccccH
	mov	DWORD PTR _this$[ebp], ecx

; 4936 :         return _Mypair._Get_first();

	mov	ecx, DWORD PTR _this$[ebp]
	call	?_Get_first@?$_Compressed_pair@V?$allocator@D@std@@V?$_String_val@U?$_Simple_types@D@std@@@2@$00@std@@QBEABV?$allocator@D@2@XZ ; std::_Compressed_pair<std::allocator<char>,std::_String_val<std::_Simple_types<char> >,1>::_Get_first

; 4937 :     }

	add	esp, 4
	cmp	ebp, esp
	call	__RTC_CheckEsp
	mov	esp, ebp
	pop	ebp
	ret	0
?_Getal@?$basic_string@DU?$char_traits@D@std@@V?$allocator@D@2@@std@@ABEABV?$allocator@D@2@XZ ENDP ; std::basic_string<char,std::char_traits<char>,std::allocator<char> >::_Getal
_TEXT	ENDS
; Function compile flags: /Odtp /RTCsu
; File C:\Program Files\Microsoft Visual Studio\2022\Community\VC\Tools\MSVC\14.33.31629\include\xstring
;	COMDAT ?_Getal@?$basic_string@DU?$char_traits@D@std@@V?$allocator@D@2@@std@@AAEAAV?$allocator@D@2@XZ
_TEXT	SEGMENT
_this$ = -4						; size = 4
?_Getal@?$basic_string@DU?$char_traits@D@std@@V?$allocator@D@2@@std@@AAEAAV?$allocator@D@2@XZ PROC ; std::basic_string<char,std::char_traits<char>,std::allocator<char> >::_Getal, COMDAT
; _this$ = ecx

; 4931 :     _CONSTEXPR20 _Alty& _Getal() noexcept {

	push	ebp
	mov	ebp, esp
	push	ecx
	mov	DWORD PTR [ebp-4], -858993460		; ccccccccH
	mov	DWORD PTR _this$[ebp], ecx

; 4932 :         return _Mypair._Get_first();

	mov	ecx, DWORD PTR _this$[ebp]
	call	?_Get_first@?$_Compressed_pair@V?$allocator@D@std@@V?$_String_val@U?$_Simple_types@D@std@@@2@$00@std@@QAEAAV?$allocator@D@2@XZ ; std::_Compressed_pair<std::allocator<char>,std::_String_val<std::_Simple_types<char> >,1>::_Get_first

; 4933 :     }

	add	esp, 4
	cmp	ebp, esp
	call	__RTC_CheckEsp
	mov	esp, ebp
	pop	ebp
	ret	0
?_Getal@?$basic_string@DU?$char_traits@D@std@@V?$allocator@D@2@@std@@AAEAAV?$allocator@D@2@XZ ENDP ; std::basic_string<char,std::char_traits<char>,std::allocator<char> >::_Getal
_TEXT	ENDS
; Function compile flags: /Odtp /RTCsu
; File C:\Program Files\Microsoft Visual Studio\2022\Community\VC\Tools\MSVC\14.33.31629\include\xstring
;	COMDAT ?_Tidy_deallocate@?$basic_string@DU?$char_traits@D@std@@V?$allocator@D@2@@std@@AAEXXZ
_TEXT	SEGMENT
$T2 = -29						; size = 1
__Al$3 = -28						; size = 4
__Ptr$4 = -24						; size = 4
__My_data$ = -20					; size = 4
_this$ = -16						; size = 4
__$EHRec$ = -12						; size = 12
?_Tidy_deallocate@?$basic_string@DU?$char_traits@D@std@@V?$allocator@D@2@@std@@AAEXXZ PROC ; std::basic_string<char,std::char_traits<char>,std::allocator<char> >::_Tidy_deallocate, COMDAT
; _this$ = ecx

; 4892 :     _CONSTEXPR20 void _Tidy_deallocate() noexcept { // initialize buffer, deallocating any storage

	push	ebp
	mov	ebp, esp
	push	-1
	push	__ehhandler$?_Tidy_deallocate@?$basic_string@DU?$char_traits@D@std@@V?$allocator@D@2@@std@@AAEXXZ
	mov	eax, DWORD PTR fs:0
	push	eax
	sub	esp, 20					; 00000014H
	mov	eax, -858993460				; ccccccccH
	mov	DWORD PTR [ebp-32], eax
	mov	DWORD PTR [ebp-28], eax
	mov	DWORD PTR [ebp-24], eax
	mov	DWORD PTR [ebp-20], eax
	mov	DWORD PTR [ebp-16], eax
	mov	eax, DWORD PTR ___security_cookie
	xor	eax, ebp
	push	eax
	lea	eax, DWORD PTR __$EHRec$[ebp]
	mov	DWORD PTR fs:0, eax
	mov	DWORD PTR _this$[ebp], ecx

; 4893 :         auto& _My_data = _Mypair._Myval2;

	mov	eax, DWORD PTR _this$[ebp]
	mov	DWORD PTR __My_data$[ebp], eax

; 4894 :         _My_data._Orphan_all();

	mov	ecx, DWORD PTR __My_data$[ebp]
	call	?_Orphan_all@_Container_base12@std@@QAEXXZ ; std::_Container_base12::_Orphan_all

; 4895 :         _ASAN_STRING_REMOVE(*this);
; 4896 :         if (_My_data._Large_string_engaged()) {

	mov	ecx, DWORD PTR __My_data$[ebp]
	call	?_Large_string_engaged@?$_String_val@U?$_Simple_types@D@std@@@std@@QBE_NXZ ; std::_String_val<std::_Simple_types<char> >::_Large_string_engaged
	movzx	ecx, al
	test	ecx, ecx
	je	SHORT $LN2@Tidy_deall

; 4897 :             const pointer _Ptr = _My_data._Bx._Ptr;

	mov	edx, DWORD PTR __My_data$[ebp]
	mov	eax, DWORD PTR [edx+4]
	mov	DWORD PTR __Ptr$4[ebp], eax

; 4898 :             auto& _Al          = _Getal();

	mov	ecx, DWORD PTR _this$[ebp]
	call	?_Getal@?$basic_string@DU?$char_traits@D@std@@V?$allocator@D@2@@std@@AAEAAV?$allocator@D@2@XZ ; std::basic_string<char,std::char_traits<char>,std::allocator<char> >::_Getal
	mov	DWORD PTR __Al$3[ebp], eax

; 4899 :             _Destroy_in_place(_My_data._Bx._Ptr);

	mov	ecx, DWORD PTR __My_data$[ebp]
	add	ecx, 4
	push	ecx
	call	??$_Destroy_in_place@PAD@std@@YAXAAPAD@Z ; std::_Destroy_in_place<char *>
	add	esp, 4

; 4900 : #if _HAS_CXX20
; 4901 :             if (_STD is_constant_evaluated()) { // begin the lifetime of the array elements before copying into them
; 4902 :                 _Construct_in_place(_My_data._Bx);
; 4903 :             }
; 4904 : #endif // _HAS_CXX20
; 4905 :             _Al.deallocate(_Ptr, _My_data._Myres + 1);

	mov	edx, DWORD PTR __My_data$[ebp]
	mov	eax, DWORD PTR [edx+24]
	add	eax, 1
	push	eax
	mov	ecx, DWORD PTR __Ptr$4[ebp]
	push	ecx
	mov	ecx, DWORD PTR __Al$3[ebp]
	call	?deallocate@?$allocator@D@std@@QAEXQADI@Z ; std::allocator<char>::deallocate
$LN2@Tidy_deall:

; 4906 :         }
; 4907 : 
; 4908 :         _My_data._Mysize = 0;

	mov	edx, DWORD PTR __My_data$[ebp]
	mov	DWORD PTR [edx+20], 0

; 4909 : #if _HAS_CXX20
; 4910 :         if (_STD is_constant_evaluated()) {
; 4911 :             _My_data._Myres = 0;
; 4912 :         } else
; 4913 : #endif // _HAS_CXX20
; 4914 :         {
; 4915 :             _My_data._Myres = _BUF_SIZE - 1;

	mov	eax, DWORD PTR __My_data$[ebp]
	mov	DWORD PTR [eax+24], 15			; 0000000fH

; 4916 :             // the _Traits::assign is last so the codegen doesn't think the char write can alias this
; 4917 :             _Traits::assign(_My_data._Bx._Buf[0], _Elem());

	mov	BYTE PTR $T2[ebp], 0
	lea	ecx, DWORD PTR $T2[ebp]
	push	ecx
	mov	edx, 1
	imul	eax, edx, 0
	mov	ecx, DWORD PTR __My_data$[ebp]
	lea	edx, DWORD PTR [ecx+eax+4]
	push	edx
	call	?assign@?$_Narrow_char_traits@DH@std@@SAXAADABD@Z ; std::_Narrow_char_traits<char,int>::assign
	add	esp, 8

; 4918 :         }
; 4919 :     }

	mov	ecx, DWORD PTR __$EHRec$[ebp]
	mov	DWORD PTR fs:0, ecx
	pop	ecx
	add	esp, 32					; 00000020H
	cmp	ebp, esp
	call	__RTC_CheckEsp
	mov	esp, ebp
	pop	ebp
	ret	0
	int	3
	int	3
	int	3
	int	3
	int	3
_TEXT	ENDS
;	COMDAT text$x
text$x	SEGMENT
__ehhandler$?_Tidy_deallocate@?$basic_string@DU?$char_traits@D@std@@V?$allocator@D@2@@std@@AAEXXZ:
	npad	1
	npad	1
	mov	edx, DWORD PTR [esp+8]
	lea	eax, DWORD PTR [edx+12]
	mov	ecx, DWORD PTR [edx-24]
	xor	ecx, eax
	call	@__security_check_cookie@4
	mov	eax, OFFSET __ehfuncinfo$?_Tidy_deallocate@?$basic_string@DU?$char_traits@D@std@@V?$allocator@D@2@@std@@AAEXXZ
	jmp	___CxxFrameHandler3
text$x	ENDS
?_Tidy_deallocate@?$basic_string@DU?$char_traits@D@std@@V?$allocator@D@2@@std@@AAEXXZ ENDP ; std::basic_string<char,std::char_traits<char>,std::allocator<char> >::_Tidy_deallocate
; Function compile flags: /Odtp /RTCsu
; File C:\Program Files\Microsoft Visual Studio\2022\Community\VC\Tools\MSVC\14.33.31629\include\xstring
;	COMDAT ?_Calculate_growth@?$basic_string@DU?$char_traits@D@std@@V?$allocator@D@2@@std@@ABEII@Z
_TEXT	SEGMENT
_this$ = -4						; size = 4
__Requested$ = 8					; size = 4
?_Calculate_growth@?$basic_string@DU?$char_traits@D@std@@V?$allocator@D@2@@std@@ABEII@Z PROC ; std::basic_string<char,std::char_traits<char>,std::allocator<char> >::_Calculate_growth, COMDAT
; _this$ = ecx

; 4763 :     _NODISCARD _CONSTEXPR20 size_type _Calculate_growth(const size_type _Requested) const noexcept {

	push	ebp
	mov	ebp, esp
	push	ecx
	mov	DWORD PTR [ebp-4], -858993460		; ccccccccH
	mov	DWORD PTR _this$[ebp], ecx

; 4764 :         return _Calculate_growth(_Requested, _Mypair._Myval2._Myres, max_size());

	mov	ecx, DWORD PTR _this$[ebp]
	call	?max_size@?$basic_string@DU?$char_traits@D@std@@V?$allocator@D@2@@std@@QBEIXZ ; std::basic_string<char,std::char_traits<char>,std::allocator<char> >::max_size
	push	eax
	mov	eax, DWORD PTR _this$[ebp]
	mov	ecx, DWORD PTR [eax+24]
	push	ecx
	mov	edx, DWORD PTR __Requested$[ebp]
	push	edx
	call	?_Calculate_growth@?$basic_string@DU?$char_traits@D@std@@V?$allocator@D@2@@std@@CAIIII@Z ; std::basic_string<char,std::char_traits<char>,std::allocator<char> >::_Calculate_growth
	add	esp, 12					; 0000000cH

; 4765 :     }

	add	esp, 4
	cmp	ebp, esp
	call	__RTC_CheckEsp
	mov	esp, ebp
	pop	ebp
	ret	4
?_Calculate_growth@?$basic_string@DU?$char_traits@D@std@@V?$allocator@D@2@@std@@ABEII@Z ENDP ; std::basic_string<char,std::char_traits<char>,std::allocator<char> >::_Calculate_growth
_TEXT	ENDS
; Function compile flags: /Odtp /RTCsu
; File C:\Program Files\Microsoft Visual Studio\2022\Community\VC\Tools\MSVC\14.33.31629\include\xstring
;	COMDAT ?_Calculate_growth@?$basic_string@DU?$char_traits@D@std@@V?$allocator@D@2@@std@@CAIIII@Z
_TEXT	SEGMENT
$T1 = -16						; size = 4
__Masked$ = -8						; size = 4
__Requested$ = 8					; size = 4
__Old$ = 12						; size = 4
__Max$ = 16						; size = 4
?_Calculate_growth@?$basic_string@DU?$char_traits@D@std@@V?$allocator@D@2@@std@@CAIIII@Z PROC ; std::basic_string<char,std::char_traits<char>,std::allocator<char> >::_Calculate_growth, COMDAT

; 4750 :         const size_type _Requested, const size_type _Old, const size_type _Max) noexcept {

	push	ebp
	mov	ebp, esp
	sub	esp, 16					; 00000010H
	mov	eax, -858993460				; ccccccccH
	mov	DWORD PTR [ebp-16], eax
	mov	DWORD PTR [ebp-12], eax
	mov	DWORD PTR [ebp-8], eax
	mov	DWORD PTR [ebp-4], eax

; 4751 :         const size_type _Masked = _Requested | _ALLOC_MASK;

	mov	eax, DWORD PTR __Requested$[ebp]
	or	eax, 15					; 0000000fH
	mov	DWORD PTR __Masked$[ebp], eax

; 4752 :         if (_Masked > _Max) { // the mask overflows, settle for max_size()

	mov	ecx, DWORD PTR __Masked$[ebp]
	cmp	ecx, DWORD PTR __Max$[ebp]
	jbe	SHORT $LN2@Calculate_

; 4753 :             return _Max;

	mov	eax, DWORD PTR __Max$[ebp]
	jmp	SHORT $LN4@Calculate_
$LN2@Calculate_:

; 4754 :         }
; 4755 : 
; 4756 :         if (_Old > _Max - _Old / 2) { // similarly, geometric overflows

	mov	edx, DWORD PTR __Old$[ebp]
	shr	edx, 1
	mov	eax, DWORD PTR __Max$[ebp]
	sub	eax, edx
	cmp	DWORD PTR __Old$[ebp], eax
	jbe	SHORT $LN3@Calculate_

; 4757 :             return _Max;

	mov	eax, DWORD PTR __Max$[ebp]
	jmp	SHORT $LN4@Calculate_
$LN3@Calculate_:

; 4758 :         }
; 4759 : 
; 4760 :         return (_STD max)(_Masked, _Old + _Old / 2);

	mov	ecx, DWORD PTR __Old$[ebp]
	shr	ecx, 1
	add	ecx, DWORD PTR __Old$[ebp]
	mov	DWORD PTR $T1[ebp], ecx
	lea	edx, DWORD PTR $T1[ebp]
	push	edx
	lea	eax, DWORD PTR __Masked$[ebp]
	push	eax
	call	??$max@I@std@@YAABIABI0@Z		; std::max<unsigned int>
	add	esp, 8
	mov	eax, DWORD PTR [eax]
$LN4@Calculate_:

; 4761 :     }

	push	edx
	mov	ecx, ebp
	push	eax
	lea	edx, DWORD PTR $LN7@Calculate_
	call	@_RTC_CheckStackVars@8
	pop	eax
	pop	edx
	add	esp, 16					; 00000010H
	cmp	ebp, esp
	call	__RTC_CheckEsp
	mov	esp, ebp
	pop	ebp
	ret	0
	npad	3
$LN7@Calculate_:
	DD	1
	DD	$LN6@Calculate_
$LN6@Calculate_:
	DD	-8					; fffffff8H
	DD	4
	DD	$LN5@Calculate_
$LN5@Calculate_:
	DB	95					; 0000005fH
	DB	77					; 0000004dH
	DB	97					; 00000061H
	DB	115					; 00000073H
	DB	107					; 0000006bH
	DB	101					; 00000065H
	DB	100					; 00000064H
	DB	0
?_Calculate_growth@?$basic_string@DU?$char_traits@D@std@@V?$allocator@D@2@@std@@CAIIII@Z ENDP ; std::basic_string<char,std::char_traits<char>,std::allocator<char> >::_Calculate_growth
_TEXT	ENDS
; Function compile flags: /Odtp /RTCsu
; File C:\Program Files\Microsoft Visual Studio\2022\Community\VC\Tools\MSVC\14.33.31629\include\xstring
;	COMDAT ?max_size@?$basic_string@DU?$char_traits@D@std@@V?$allocator@D@2@@std@@QBEIXZ
_TEXT	SEGMENT
$T1 = -32						; size = 4
$T2 = -28						; size = 4
$T3 = -24						; size = 4
__Storage_max$ = -20					; size = 4
__Alloc_max$ = -12					; size = 4
_this$ = -4						; size = 4
?max_size@?$basic_string@DU?$char_traits@D@std@@V?$allocator@D@2@@std@@QBEIXZ PROC ; std::basic_string<char,std::char_traits<char>,std::allocator<char> >::max_size, COMDAT
; _this$ = ecx

; 4157 :     _NODISCARD _CONSTEXPR20 size_type max_size() const noexcept {

	push	ebp
	mov	ebp, esp
	sub	esp, 32					; 00000020H
	mov	eax, -858993460				; ccccccccH
	mov	DWORD PTR [ebp-32], eax
	mov	DWORD PTR [ebp-28], eax
	mov	DWORD PTR [ebp-24], eax
	mov	DWORD PTR [ebp-20], eax
	mov	DWORD PTR [ebp-16], eax
	mov	DWORD PTR [ebp-12], eax
	mov	DWORD PTR [ebp-8], eax
	mov	DWORD PTR [ebp-4], eax
	mov	DWORD PTR _this$[ebp], ecx

; 4158 :         const size_type _Alloc_max   = _Alty_traits::max_size(_Getal());

	mov	ecx, DWORD PTR _this$[ebp]
	call	?_Getal@?$basic_string@DU?$char_traits@D@std@@V?$allocator@D@2@@std@@ABEABV?$allocator@D@2@XZ ; std::basic_string<char,std::char_traits<char>,std::allocator<char> >::_Getal
	push	eax
	call	?max_size@?$_Default_allocator_traits@V?$allocator@D@std@@@std@@SAIABV?$allocator@D@2@@Z ; std::_Default_allocator_traits<std::allocator<char> >::max_size
	add	esp, 4
	mov	DWORD PTR __Alloc_max$[ebp], eax

; 4159 :         const size_type _Storage_max = // can always store small string

	mov	DWORD PTR $T3[ebp], 16			; 00000010H
	lea	eax, DWORD PTR $T3[ebp]
	push	eax
	lea	ecx, DWORD PTR __Alloc_max$[ebp]
	push	ecx
	call	??$max@I@std@@YAABIABI0@Z		; std::max<unsigned int>
	add	esp, 8
	mov	edx, DWORD PTR [eax]
	mov	DWORD PTR __Storage_max$[ebp], edx

; 4160 :             (_STD max)(_Alloc_max, static_cast<size_type>(_BUF_SIZE));
; 4161 :         return (_STD min)(static_cast<size_type>((numeric_limits<difference_type>::max)()),

	mov	eax, DWORD PTR __Storage_max$[ebp]
	sub	eax, 1
	mov	DWORD PTR $T2[ebp], eax
	call	?max@?$numeric_limits@H@std@@SAHXZ	; std::numeric_limits<int>::max
	mov	DWORD PTR $T1[ebp], eax
	lea	ecx, DWORD PTR $T2[ebp]
	push	ecx
	lea	edx, DWORD PTR $T1[ebp]
	push	edx
	call	??$min@I@std@@YAABIABI0@Z		; std::min<unsigned int>
	add	esp, 8
	mov	eax, DWORD PTR [eax]

; 4162 :             _Storage_max - 1 // -1 is for null terminator and/or npos
; 4163 :         );
; 4164 :     }

	push	edx
	mov	ecx, ebp
	push	eax
	lea	edx, DWORD PTR $LN5@max_size
	call	@_RTC_CheckStackVars@8
	pop	eax
	pop	edx
	add	esp, 32					; 00000020H
	cmp	ebp, esp
	call	__RTC_CheckEsp
	mov	esp, ebp
	pop	ebp
	ret	0
$LN5@max_size:
	DD	1
	DD	$LN4@max_size
$LN4@max_size:
	DD	-12					; fffffff4H
	DD	4
	DD	$LN3@max_size
$LN3@max_size:
	DB	95					; 0000005fH
	DB	65					; 00000041H
	DB	108					; 0000006cH
	DB	108					; 0000006cH
	DB	111					; 0000006fH
	DB	99					; 00000063H
	DB	95					; 0000005fH
	DB	109					; 0000006dH
	DB	97					; 00000061H
	DB	120					; 00000078H
	DB	0
?max_size@?$basic_string@DU?$char_traits@D@std@@V?$allocator@D@2@@std@@QBEIXZ ENDP ; std::basic_string<char,std::char_traits<char>,std::allocator<char> >::max_size
_TEXT	ENDS
; Function compile flags: /Odtp /RTCsu
; File C:\Program Files\Microsoft Visual Studio\2022\Community\VC\Tools\MSVC\14.33.31629\include\xstring
;	COMDAT ??1?$basic_string@DU?$char_traits@D@std@@V?$allocator@D@2@@std@@QAE@XZ
_TEXT	SEGMENT
__To_delete$ = -24					; size = 4
_$S5$ = -13						; size = 1
__Alproxy$ = -8						; size = 4
_this$ = -4						; size = 4
??1?$basic_string@DU?$char_traits@D@std@@V?$allocator@D@2@@std@@QAE@XZ PROC ; std::basic_string<char,std::char_traits<char>,std::allocator<char> >::~basic_string<char,std::char_traits<char>,std::allocator<char> >, COMDAT
; _this$ = ecx

; 3206 :     _CONSTEXPR20 ~basic_string() noexcept {

	push	ebp
	mov	ebp, esp
	sub	esp, 24					; 00000018H
	mov	eax, -858993460				; ccccccccH
	mov	DWORD PTR [ebp-24], eax
	mov	DWORD PTR [ebp-20], eax
	mov	DWORD PTR [ebp-16], eax
	mov	DWORD PTR [ebp-12], eax
	mov	DWORD PTR [ebp-8], eax
	mov	DWORD PTR [ebp-4], eax
	mov	DWORD PTR _this$[ebp], ecx

; 3207 :         _Tidy_deallocate();

	mov	ecx, DWORD PTR _this$[ebp]
	call	?_Tidy_deallocate@?$basic_string@DU?$char_traits@D@std@@V?$allocator@D@2@@std@@AAEXXZ ; std::basic_string<char,std::char_traits<char>,std::allocator<char> >::_Tidy_deallocate

; 3208 : #if _ITERATOR_DEBUG_LEVEL != 0
; 3209 :         auto&& _Alproxy          = _GET_PROXY_ALLOCATOR(_Alty, _Getal());

	mov	ecx, DWORD PTR _this$[ebp]
	call	?_Getal@?$basic_string@DU?$char_traits@D@std@@V?$allocator@D@2@@std@@AAEAAV?$allocator@D@2@XZ ; std::basic_string<char,std::char_traits<char>,std::allocator<char> >::_Getal
	push	eax
	lea	ecx, DWORD PTR _$S5$[ebp]
	call	??$?0D@?$allocator@U_Container_proxy@std@@@std@@QAE@ABV?$allocator@D@1@@Z ; std::allocator<std::_Container_proxy>::allocator<std::_Container_proxy><char>
	lea	eax, DWORD PTR _$S5$[ebp]
	mov	DWORD PTR __Alproxy$[ebp], eax

; 3210 :         const auto _To_delete    = _Mypair._Myval2._Myproxy;

	mov	ecx, DWORD PTR _this$[ebp]
	mov	edx, DWORD PTR [ecx]
	mov	DWORD PTR __To_delete$[ebp], edx

; 3211 :         _Mypair._Myval2._Myproxy = nullptr;

	mov	eax, DWORD PTR _this$[ebp]
	mov	DWORD PTR [eax], 0

; 3212 :         _Delete_plain_internal(_Alproxy, _To_delete);

	mov	ecx, DWORD PTR __To_delete$[ebp]
	push	ecx
	mov	edx, DWORD PTR __Alproxy$[ebp]
	push	edx
	call	??$_Delete_plain_internal@V?$allocator@U_Container_proxy@std@@@std@@@std@@YAXAAV?$allocator@U_Container_proxy@std@@@0@QAU_Container_proxy@0@@Z ; std::_Delete_plain_internal<std::allocator<std::_Container_proxy> >
	add	esp, 8

; 3213 : #endif // _ITERATOR_DEBUG_LEVEL != 0
; 3214 :     }

	mov	ecx, DWORD PTR _this$[ebp]
	call	??1?$_Compressed_pair@V?$allocator@D@std@@V?$_String_val@U?$_Simple_types@D@std@@@2@$00@std@@QAE@XZ
	push	edx
	mov	ecx, ebp
	push	eax
	lea	edx, DWORD PTR $LN5@basic_stri
	call	@_RTC_CheckStackVars@8
	pop	eax
	pop	edx
	add	esp, 24					; 00000018H
	cmp	ebp, esp
	call	__RTC_CheckEsp
	mov	esp, ebp
	pop	ebp
	ret	0
	npad	1
$LN5@basic_stri:
	DD	1
	DD	$LN4@basic_stri
$LN4@basic_stri:
	DD	-13					; fffffff3H
	DD	1
	DD	$LN3@basic_stri
$LN3@basic_stri:
	DB	36					; 00000024H
	DB	83					; 00000053H
	DB	53					; 00000035H
	DB	0
??1?$basic_string@DU?$char_traits@D@std@@V?$allocator@D@2@@std@@QAE@XZ ENDP ; std::basic_string<char,std::char_traits<char>,std::allocator<char> >::~basic_string<char,std::char_traits<char>,std::allocator<char> >
_TEXT	ENDS
; Function compile flags: /Odtp /RTCsu
; File C:\Program Files\Microsoft Visual Studio\2022\Community\VC\Tools\MSVC\14.33.31629\include\xstring
;	COMDAT ??0?$basic_string@DU?$char_traits@D@std@@V?$allocator@D@2@@std@@QAE@QBD@Z
_TEXT	SEGMENT
$T2 = -17						; size = 1
_this$ = -16						; size = 4
__$EHRec$ = -12						; size = 12
__Ptr$ = 8						; size = 4
??0?$basic_string@DU?$char_traits@D@std@@V?$allocator@D@2@@std@@QAE@QBD@Z PROC ; std::basic_string<char,std::char_traits<char>,std::allocator<char> >::basic_string<char,std::char_traits<char>,std::allocator<char> >, COMDAT
; _this$ = ecx

; 2621 :     _CONSTEXPR20 basic_string(_In_z_ const _Elem* const _Ptr) : _Mypair(_Zero_then_variadic_args_t{}) {

	push	ebp
	mov	ebp, esp
	push	-1
	push	__ehhandler$??0?$basic_string@DU?$char_traits@D@std@@V?$allocator@D@2@@std@@QAE@QBD@Z
	mov	eax, DWORD PTR fs:0
	push	eax
	sub	esp, 8
	mov	DWORD PTR [ebp-20], -858993460		; ccccccccH
	mov	DWORD PTR [ebp-16], -858993460		; ccccccccH
	mov	eax, DWORD PTR ___security_cookie
	xor	eax, ebp
	push	eax
	lea	eax, DWORD PTR __$EHRec$[ebp]
	mov	DWORD PTR fs:0, eax
	mov	DWORD PTR _this$[ebp], ecx
	movzx	eax, BYTE PTR $T2[ebp]
	push	eax
	mov	ecx, DWORD PTR _this$[ebp]
	call	??$?0$$V@?$_Compressed_pair@V?$allocator@D@std@@V?$_String_val@U?$_Simple_types@D@std@@@2@$00@std@@QAE@U_Zero_then_variadic_args_t@1@@Z ; std::_Compressed_pair<std::allocator<char>,std::_String_val<std::_Simple_types<char> >,1>::_Compressed_pair<std::allocator<char>,std::_String_val<std::_Simple_types<char> >,1><>
	mov	DWORD PTR __$EHRec$[ebp+8], 0

; 2622 :         _Construct<_Construct_strategy::_From_ptr>(_Ptr, _Convert_size<size_type>(_Traits::length(_Ptr)));

	mov	ecx, DWORD PTR __Ptr$[ebp]
	push	ecx
	call	?length@?$_Narrow_char_traits@DH@std@@SAIQBD@Z ; std::_Narrow_char_traits<char,int>::length
	add	esp, 4
	push	eax
	call	??$_Convert_size@I@std@@YAII@Z		; std::_Convert_size<unsigned int>
	add	esp, 4
	push	eax
	mov	edx, DWORD PTR __Ptr$[ebp]
	push	edx
	mov	ecx, DWORD PTR _this$[ebp]
	call	??$_Construct@$00PBD@?$basic_string@DU?$char_traits@D@std@@V?$allocator@D@2@@std@@AAEXQBDI@Z ; std::basic_string<char,std::char_traits<char>,std::allocator<char> >::_Construct<1,char const *>

; 2623 :     }

	mov	DWORD PTR __$EHRec$[ebp+8], -1
	mov	eax, DWORD PTR _this$[ebp]
	mov	ecx, DWORD PTR __$EHRec$[ebp]
	mov	DWORD PTR fs:0, ecx
	pop	ecx
	add	esp, 20					; 00000014H
	cmp	ebp, esp
	call	__RTC_CheckEsp
	mov	esp, ebp
	pop	ebp
	ret	4
_TEXT	ENDS
;	COMDAT text$x
text$x	SEGMENT
__unwindfunclet$??0?$basic_string@DU?$char_traits@D@std@@V?$allocator@D@2@@std@@QAE@QBD@Z$0:
	mov	ecx, DWORD PTR _this$[ebp]
	jmp	??1?$_Compressed_pair@V?$allocator@D@std@@V?$_String_val@U?$_Simple_types@D@std@@@2@$00@std@@QAE@XZ
	int	3
	int	3
	int	3
	int	3
	int	3
__ehhandler$??0?$basic_string@DU?$char_traits@D@std@@V?$allocator@D@2@@std@@QAE@QBD@Z:
	npad	1
	npad	1
	mov	edx, DWORD PTR [esp+8]
	lea	eax, DWORD PTR [edx+12]
	mov	ecx, DWORD PTR [edx-12]
	xor	ecx, eax
	call	@__security_check_cookie@4
	mov	eax, OFFSET __ehfuncinfo$??0?$basic_string@DU?$char_traits@D@std@@V?$allocator@D@2@@std@@QAE@QBD@Z
	jmp	___CxxFrameHandler3
text$x	ENDS
??0?$basic_string@DU?$char_traits@D@std@@V?$allocator@D@2@@std@@QAE@QBD@Z ENDP ; std::basic_string<char,std::char_traits<char>,std::allocator<char> >::basic_string<char,std::char_traits<char>,std::allocator<char> >
; Function compile flags: /Odtp /RTCsu
;	COMDAT ??1?$_String_val@U?$_Simple_types@D@std@@@std@@QAE@XZ
_TEXT	SEGMENT
_this$ = -4						; size = 4
??1?$_String_val@U?$_Simple_types@D@std@@@std@@QAE@XZ PROC ; std::_String_val<std::_Simple_types<char> >::~_String_val<std::_Simple_types<char> >, COMDAT
; _this$ = ecx
	push	ebp
	mov	ebp, esp
	push	ecx
	mov	DWORD PTR [ebp-4], -858993460		; ccccccccH
	mov	DWORD PTR _this$[ebp], ecx
	mov	ecx, DWORD PTR _this$[ebp]
	add	ecx, 4
	call	??1_Bxty@?$_String_val@U?$_Simple_types@D@std@@@std@@QAE@XZ ; std::_String_val<std::_Simple_types<char> >::_Bxty::~_Bxty
	add	esp, 4
	cmp	ebp, esp
	call	__RTC_CheckEsp
	mov	esp, ebp
	pop	ebp
	ret	0
??1?$_String_val@U?$_Simple_types@D@std@@@std@@QAE@XZ ENDP ; std::_String_val<std::_Simple_types<char> >::~_String_val<std::_Simple_types<char> >
_TEXT	ENDS
; Function compile flags: /Odtp /RTCsu
; File C:\Program Files\Microsoft Visual Studio\2022\Community\VC\Tools\MSVC\14.33.31629\include\xstring
;	COMDAT ??1_Bxty@?$_String_val@U?$_Simple_types@D@std@@@std@@QAE@XZ
_TEXT	SEGMENT
_this$ = -4						; size = 4
??1_Bxty@?$_String_val@U?$_Simple_types@D@std@@@std@@QAE@XZ PROC ; std::_String_val<std::_Simple_types<char> >::_Bxty::~_Bxty, COMDAT
; _this$ = ecx

; 2313 :         _CONSTEXPR20 ~_Bxty() noexcept {} // user-provided, for fancy pointers

	push	ebp
	mov	ebp, esp
	push	ecx
	mov	DWORD PTR _this$[ebp], ecx
	mov	esp, ebp
	pop	ebp
	ret	0
??1_Bxty@?$_String_val@U?$_Simple_types@D@std@@@std@@QAE@XZ ENDP ; std::_String_val<std::_Simple_types<char> >::_Bxty::~_Bxty
_TEXT	ENDS
; Function compile flags: /Odtp /RTCsu
; File C:\Program Files\Microsoft Visual Studio\2022\Community\VC\Tools\MSVC\14.33.31629\include\xstring
;	COMDAT ??0_Bxty@?$_String_val@U?$_Simple_types@D@std@@@std@@QAE@XZ
_TEXT	SEGMENT
_this$ = -4						; size = 4
??0_Bxty@?$_String_val@U?$_Simple_types@D@std@@@std@@QAE@XZ PROC ; std::_String_val<std::_Simple_types<char> >::_Bxty::_Bxty, COMDAT
; _this$ = ecx

; 2311 :         _CONSTEXPR20 _Bxty() noexcept : _Ptr() {} // user-provided, for fancy pointers

	push	ebp
	mov	ebp, esp
	push	ecx
	mov	DWORD PTR _this$[ebp], ecx
	mov	eax, DWORD PTR _this$[ebp]
	mov	DWORD PTR [eax], 0
	mov	eax, DWORD PTR _this$[ebp]
	mov	esp, ebp
	pop	ebp
	ret	0
??0_Bxty@?$_String_val@U?$_Simple_types@D@std@@@std@@QAE@XZ ENDP ; std::_String_val<std::_Simple_types<char> >::_Bxty::_Bxty
_TEXT	ENDS
; Function compile flags: /Odtp /RTCsu
; File C:\Program Files\Microsoft Visual Studio\2022\Community\VC\Tools\MSVC\14.33.31629\include\xstring
;	COMDAT ?_Large_string_engaged@?$_String_val@U?$_Simple_types@D@std@@@std@@QBE_NXZ
_TEXT	SEGMENT
tv66 = -8						; size = 4
_this$ = -4						; size = 4
?_Large_string_engaged@?$_String_val@U?$_Simple_types@D@std@@@std@@QBE_NXZ PROC ; std::_String_val<std::_Simple_types<char> >::_Large_string_engaged, COMDAT
; _this$ = ecx

; 2278 :     _CONSTEXPR20 bool _Large_string_engaged() const noexcept {

	push	ebp
	mov	ebp, esp
	sub	esp, 8
	mov	DWORD PTR _this$[ebp], ecx

; 2279 : #if _HAS_CXX20
; 2280 :         if (_STD is_constant_evaluated()) {
; 2281 :             return true;
; 2282 :         }
; 2283 : #endif // _HAS_CXX20
; 2284 :         return _BUF_SIZE <= _Myres;

	mov	eax, DWORD PTR _this$[ebp]
	cmp	DWORD PTR [eax+24], 16			; 00000010H
	jb	SHORT $LN3@Large_stri
	mov	DWORD PTR tv66[ebp], 1
	jmp	SHORT $LN4@Large_stri
$LN3@Large_stri:
	mov	DWORD PTR tv66[ebp], 0
$LN4@Large_stri:
	mov	al, BYTE PTR tv66[ebp]

; 2285 :     }

	mov	esp, ebp
	pop	ebp
	ret	0
?_Large_string_engaged@?$_String_val@U?$_Simple_types@D@std@@@std@@QBE_NXZ ENDP ; std::_String_val<std::_Simple_types<char> >::_Large_string_engaged
_TEXT	ENDS
; Function compile flags: /Odtp /RTCsu
; File C:\Program Files\Microsoft Visual Studio\2022\Community\VC\Tools\MSVC\14.33.31629\include\xstring
;	COMDAT ??0?$_String_val@U?$_Simple_types@D@std@@@std@@QAE@XZ
_TEXT	SEGMENT
_this$ = -4						; size = 4
??0?$_String_val@U?$_Simple_types@D@std@@@std@@QAE@XZ PROC ; std::_String_val<std::_Simple_types<char> >::_String_val<std::_Simple_types<char> >, COMDAT
; _this$ = ecx

; 2249 :     _CONSTEXPR20 _String_val() noexcept : _Bx() {}

	push	ebp
	mov	ebp, esp
	push	ecx
	mov	DWORD PTR [ebp-4], -858993460		; ccccccccH
	mov	DWORD PTR _this$[ebp], ecx
	mov	ecx, DWORD PTR _this$[ebp]
	call	??0_Container_base12@std@@QAE@XZ	; std::_Container_base12::_Container_base12
	mov	ecx, DWORD PTR _this$[ebp]
	add	ecx, 4
	call	??0_Bxty@?$_String_val@U?$_Simple_types@D@std@@@std@@QAE@XZ ; std::_String_val<std::_Simple_types<char> >::_Bxty::_Bxty

; 2250 : 
; 2251 :     // length of internal buffer, [1, 16]:
; 2252 :     static constexpr size_type _BUF_SIZE = 16 / sizeof(value_type) < 1 ? 1 : 16 / sizeof(value_type);
; 2253 :     // roundup mask for allocated buffers, [0, 15]:
; 2254 :     static constexpr size_type _ALLOC_MASK = sizeof(value_type) <= 1 ? 15
; 2255 :                                            : sizeof(value_type) <= 2 ? 7
; 2256 :                                            : sizeof(value_type) <= 4 ? 3
; 2257 :                                            : sizeof(value_type) <= 8 ? 1
; 2258 :                                                                      : 0;
; 2259 : 
; 2260 :     _CONSTEXPR20 value_type* _Myptr() noexcept {
; 2261 :         value_type* _Result = _Bx._Buf;
; 2262 :         if (_Large_string_engaged()) {
; 2263 :             _Result = _Unfancy(_Bx._Ptr);
; 2264 :         }
; 2265 : 
; 2266 :         return _Result;
; 2267 :     }
; 2268 : 
; 2269 :     _CONSTEXPR20 const value_type* _Myptr() const noexcept {
; 2270 :         const value_type* _Result = _Bx._Buf;
; 2271 :         if (_Large_string_engaged()) {
; 2272 :             _Result = _Unfancy(_Bx._Ptr);
; 2273 :         }
; 2274 : 
; 2275 :         return _Result;
; 2276 :     }
; 2277 : 
; 2278 :     _CONSTEXPR20 bool _Large_string_engaged() const noexcept {
; 2279 : #if _HAS_CXX20
; 2280 :         if (_STD is_constant_evaluated()) {
; 2281 :             return true;
; 2282 :         }
; 2283 : #endif // _HAS_CXX20
; 2284 :         return _BUF_SIZE <= _Myres;
; 2285 :     }
; 2286 : 
; 2287 :     _CONSTEXPR20 void _Check_offset(const size_type _Off) const {
; 2288 :         // checks whether _Off is in the bounds of [0, size()]
; 2289 :         if (_Mysize < _Off) {
; 2290 :             _Xran();
; 2291 :         }
; 2292 :     }
; 2293 : 
; 2294 :     _CONSTEXPR20 void _Check_offset_exclusive(const size_type _Off) const {
; 2295 :         // checks whether _Off is in the bounds of [0, size())
; 2296 :         if (_Mysize <= _Off) {
; 2297 :             _Xran();
; 2298 :         }
; 2299 :     }
; 2300 : 
; 2301 :     [[noreturn]] static void _Xran() {
; 2302 :         _Xout_of_range("invalid string position");
; 2303 :     }
; 2304 : 
; 2305 :     _CONSTEXPR20 size_type _Clamp_suffix_size(const size_type _Off, const size_type _Size) const noexcept {
; 2306 :         // trims _Size to the longest it can be assuming a string at/after _Off
; 2307 :         return (_STD min)(_Size, _Mysize - _Off);
; 2308 :     }
; 2309 : 
; 2310 :     union _Bxty { // storage for small buffer or pointer to larger one
; 2311 :         _CONSTEXPR20 _Bxty() noexcept : _Ptr() {} // user-provided, for fancy pointers
; 2312 : 
; 2313 :         _CONSTEXPR20 ~_Bxty() noexcept {} // user-provided, for fancy pointers
; 2314 : 
; 2315 :         value_type _Buf[_BUF_SIZE];
; 2316 :         pointer _Ptr;
; 2317 :         char _Alias[_BUF_SIZE]; // TRANSITION, ABI: _Alias is preserved for binary compatibility (especially /clr)
; 2318 :     } _Bx;
; 2319 : 
; 2320 :     size_type _Mysize = 0; // current length of string

	mov	eax, DWORD PTR _this$[ebp]
	mov	DWORD PTR [eax+20], 0

; 2321 :     size_type _Myres  = 0; // current storage reserved for string

	mov	ecx, DWORD PTR _this$[ebp]
	mov	DWORD PTR [ecx+24], 0

; 2249 :     _CONSTEXPR20 _String_val() noexcept : _Bx() {}

	mov	eax, DWORD PTR _this$[ebp]
	add	esp, 4
	cmp	ebp, esp
	call	__RTC_CheckEsp
	mov	esp, ebp
	pop	ebp
	ret	0
??0?$_String_val@U?$_Simple_types@D@std@@@std@@QAE@XZ ENDP ; std::_String_val<std::_Simple_types<char> >::_String_val<std::_Simple_types<char> >
_TEXT	ENDS
; Function compile flags: /Odtp /RTCsu
; File C:\Program Files\Microsoft Visual Studio\2022\Community\VC\Tools\MSVC\14.33.31629\include\xmemory
;	COMDAT ?max_size@?$_Default_allocator_traits@V?$allocator@D@std@@@std@@SAIABV?$allocator@D@2@@Z
_TEXT	SEGMENT
___formal$ = 8						; size = 4
?max_size@?$_Default_allocator_traits@V?$allocator@D@std@@@std@@SAIABV?$allocator@D@2@@Z PROC ; std::_Default_allocator_traits<std::allocator<char> >::max_size, COMDAT

; 695  :     _NODISCARD static _CONSTEXPR20 size_type max_size(const _Alloc&) noexcept {

	push	ebp
	mov	ebp, esp

; 696  :         return static_cast<size_t>(-1) / sizeof(value_type);

	or	eax, -1

; 697  :     }

	pop	ebp
	ret	0
?max_size@?$_Default_allocator_traits@V?$allocator@D@std@@@std@@SAIABV?$allocator@D@2@@Z ENDP ; std::_Default_allocator_traits<std::allocator<char> >::max_size
_TEXT	ENDS
; Function compile flags: /Odtp /RTCsu
; File C:\Program Files\Microsoft Visual Studio\2022\Community\VC\Tools\MSVC\14.33.31629\include\xmemory
;	COMDAT ?allocate@?$allocator@D@std@@QAEPADI@Z
_TEXT	SEGMENT
_this$ = -4						; size = 4
__Count$ = 8						; size = 4
?allocate@?$allocator@D@std@@QAEPADI@Z PROC		; std::allocator<char>::allocate, COMDAT
; _this$ = ecx

; 835  :     _NODISCARD _CONSTEXPR20 __declspec(allocator) _Ty* allocate(_CRT_GUARDOVERFLOW const size_t _Count) {

	push	ebp
	mov	ebp, esp
	push	ecx
	mov	DWORD PTR [ebp-4], -858993460		; ccccccccH
	mov	DWORD PTR _this$[ebp], ecx

; 836  :         static_assert(sizeof(value_type) > 0, "value_type must be complete before calling allocate.");
; 837  :         return static_cast<_Ty*>(_Allocate<_New_alignof<_Ty>>(_Get_size_of_n<sizeof(_Ty)>(_Count)));

	mov	eax, DWORD PTR __Count$[ebp]
	push	eax
	call	??$_Get_size_of_n@$00@std@@YAII@Z	; std::_Get_size_of_n<1>
	add	esp, 4
	push	eax
	call	??$_Allocate@$07U_Default_allocate_traits@std@@$0A@@std@@YAPAXI@Z ; std::_Allocate<8,std::_Default_allocate_traits,0>
	add	esp, 4

; 838  :     }

	add	esp, 4
	cmp	ebp, esp
	call	__RTC_CheckEsp
	mov	esp, ebp
	pop	ebp
	ret	4
?allocate@?$allocator@D@std@@QAEPADI@Z ENDP		; std::allocator<char>::allocate
_TEXT	ENDS
; Function compile flags: /Odtp /RTCsu
; File C:\Program Files\Microsoft Visual Studio\2022\Community\VC\Tools\MSVC\14.33.31629\include\xmemory
;	COMDAT ?deallocate@?$allocator@D@std@@QAEXQADI@Z
_TEXT	SEGMENT
_this$ = -4						; size = 4
__Ptr$ = 8						; size = 4
__Count$ = 12						; size = 4
?deallocate@?$allocator@D@std@@QAEXQADI@Z PROC		; std::allocator<char>::deallocate, COMDAT
; _this$ = ecx

; 829  :     _CONSTEXPR20 void deallocate(_Ty* const _Ptr, const size_t _Count) {

	push	ebp
	mov	ebp, esp
	push	ecx
	mov	DWORD PTR [ebp-4], -858993460		; ccccccccH
	mov	DWORD PTR _this$[ebp], ecx
$LN4@deallocate:

; 830  :         _STL_ASSERT(_Ptr != nullptr || _Count == 0, "null pointer cannot point to a block of non-zero size");

	cmp	DWORD PTR __Ptr$[ebp], 0
	jne	SHORT $LN10@deallocate
	cmp	DWORD PTR __Count$[ebp], 0
	jne	SHORT $LN7@deallocate
$LN10@deallocate:
	jmp	SHORT $LN2@deallocate
$LN7@deallocate:
	push	OFFSET ??_C@_0DG@KGHKKGBC@null?5pointer?5cannot?5point?5to?5a?5@
	push	OFFSET ??_C@_02DKCKIIND@?$CFs@
	push	0
	push	830					; 0000033eH
	push	OFFSET ??_C@_0GC@GFIHGGPN@C?3?2Program?5Files?2Microsoft?5Visu@
	push	2
	call	__CrtDbgReport
	add	esp, 24					; 00000018H
	cmp	eax, 1
	jne	SHORT $LN12@deallocate
	int	3
$LN12@deallocate:
	push	0
	push	830					; 0000033eH
	push	OFFSET ??_C@_1ME@KDCJLOP@?$AAC?$AA?3?$AA?2?$AAP?$AAr?$AAo?$AAg?$AAr?$AAa?$AAm?$AA?5?$AAF?$AAi?$AAl?$AAe@
	push	OFFSET ??_C@_11LOCGONAA@@
	push	OFFSET ??_C@_1HA@FACCKGGH@?$AA?$CC?$AAn?$AAu?$AAl?$AAl?$AA?5?$AAp?$AAo?$AAi?$AAn?$AAt?$AAe?$AAr?$AA?5?$AAc@
	call	__invalid_parameter
	add	esp, 20					; 00000014H
	xor	ecx, ecx
	jne	SHORT $LN7@deallocate
$LN2@deallocate:
	xor	edx, edx
	jne	SHORT $LN4@deallocate

; 831  :         // no overflow check on the following multiply; we assume _Allocate did that check
; 832  :         _Deallocate<_New_alignof<_Ty>>(_Ptr, sizeof(_Ty) * _Count);

	mov	eax, DWORD PTR __Count$[ebp]
	push	eax
	mov	ecx, DWORD PTR __Ptr$[ebp]
	push	ecx
	call	??$_Deallocate@$07$0A@@std@@YAXPAXI@Z	; std::_Deallocate<8,0>
	add	esp, 8

; 833  :     }

	add	esp, 4
	cmp	ebp, esp
	call	__RTC_CheckEsp
	mov	esp, ebp
	pop	ebp
	ret	8
?deallocate@?$allocator@D@std@@QAEXQADI@Z ENDP		; std::allocator<char>::deallocate
_TEXT	ENDS
; Function compile flags: /Odtp /RTCsu
; File C:\Program Files\Microsoft Visual Studio\2022\Community\VC\Tools\MSVC\14.33.31629\include\xmemory
;	COMDAT ??0?$allocator@D@std@@QAE@XZ
_TEXT	SEGMENT
_this$ = -4						; size = 4
??0?$allocator@D@std@@QAE@XZ PROC			; std::allocator<char>::allocator<char>, COMDAT
; _this$ = ecx

; 821  :     constexpr allocator() noexcept {}

	push	ebp
	mov	ebp, esp
	push	ecx
	mov	DWORD PTR _this$[ebp], ecx
	mov	eax, DWORD PTR _this$[ebp]
	mov	esp, ebp
	pop	ebp
	ret	0
??0?$allocator@D@std@@QAE@XZ ENDP			; std::allocator<char>::allocator<char>
_TEXT	ENDS
; Function compile flags: /Odtp /RTCsu
; File C:\Program Files\Microsoft Visual Studio\2022\Community\VC\Tools\MSVC\14.33.31629\include\xstring
;	COMDAT ?_Xlen_string@std@@YAXXZ
_TEXT	SEGMENT
?_Xlen_string@std@@YAXXZ PROC				; std::_Xlen_string, COMDAT

; 2337 : [[noreturn]] inline void _Xlen_string() {

	push	ebp
	mov	ebp, esp

; 2338 :     _Xlength_error("string too long");

	push	OFFSET ??_C@_0BA@JFNIOLAK@string?5too?5long@
	call	?_Xlength_error@std@@YAXPBD@Z		; std::_Xlength_error
$LN2@Xlen_strin:

; 2339 : }

	cmp	ebp, esp
	call	__RTC_CheckEsp
	pop	ebp
	ret	0
?_Xlen_string@std@@YAXXZ ENDP				; std::_Xlen_string
_TEXT	ENDS
; Function compile flags: /Odtp /RTCsu
; File C:\Program Files\Microsoft Visual Studio\2022\Community\VC\Tools\MSVC\14.33.31629\include\xstring
;	COMDAT ?assign@?$_Narrow_char_traits@DH@std@@SAXAADABD@Z
_TEXT	SEGMENT
__Left$ = 8						; size = 4
__Right$ = 12						; size = 4
?assign@?$_Narrow_char_traits@DH@std@@SAXAADABD@Z PROC	; std::_Narrow_char_traits<char,int>::assign, COMDAT

; 438  :     static _CONSTEXPR17 void assign(_Elem& _Left, const _Elem& _Right) noexcept {

	push	ebp
	mov	ebp, esp

; 439  : #if _HAS_CXX20
; 440  :         if (_STD is_constant_evaluated()) {
; 441  :             return _Primary_char_traits::assign(_Left, _Right);
; 442  :         }
; 443  : #endif // _HAS_CXX20
; 444  :         _Left = _Right;

	mov	eax, DWORD PTR __Left$[ebp]
	mov	ecx, DWORD PTR __Right$[ebp]
	mov	dl, BYTE PTR [ecx]
	mov	BYTE PTR [eax], dl

; 445  :     }

	pop	ebp
	ret	0
?assign@?$_Narrow_char_traits@DH@std@@SAXAADABD@Z ENDP	; std::_Narrow_char_traits<char,int>::assign
_TEXT	ENDS
; Function compile flags: /Odtp /RTCsu
; File C:\Program Files\Microsoft Visual Studio\2022\Community\VC\Tools\MSVC\14.33.31629\include\xstring
;	COMDAT ?length@?$_Narrow_char_traits@DH@std@@SAIQBD@Z
_TEXT	SEGMENT
__First$ = 8						; size = 4
?length@?$_Narrow_char_traits@DH@std@@SAIQBD@Z PROC	; std::_Narrow_char_traits<char,int>::length, COMDAT

; 385  :     _NODISCARD static _CONSTEXPR17 size_t length(_In_z_ const _Elem* const _First) noexcept /* strengthened */ {

	push	ebp
	mov	ebp, esp

; 386  :         // find length of null-terminated string
; 387  : #if _HAS_CXX17
; 388  : #ifdef __cpp_char8_t
; 389  :         if constexpr (is_same_v<_Elem, char8_t>) {
; 390  : #if _HAS_U8_INTRINSICS
; 391  :             return __builtin_u8strlen(_First);
; 392  : #else // ^^^ use u8 intrinsics / no u8 intrinsics vvv
; 393  :             return _Primary_char_traits::length(_First);
; 394  : #endif // _HAS_U8_INTRINSICS
; 395  :         } else
; 396  : #endif // __cpp_char8_t
; 397  :         {
; 398  :             return __builtin_strlen(_First);
; 399  :         }
; 400  : #else // _HAS_CXX17
; 401  :         return _CSTD strlen(reinterpret_cast<const char*>(_First));

	mov	eax, DWORD PTR __First$[ebp]
	push	eax
	call	_strlen
	add	esp, 4

; 402  : #endif // _HAS_CXX17
; 403  :     }

	cmp	ebp, esp
	call	__RTC_CheckEsp
	pop	ebp
	ret	0
?length@?$_Narrow_char_traits@DH@std@@SAIQBD@Z ENDP	; std::_Narrow_char_traits<char,int>::length
_TEXT	ENDS
; Function compile flags: /Odtp /RTCsu
; File C:\Program Files\Microsoft Visual Studio\2022\Community\VC\Tools\MSVC\14.33.31629\include\xstring
;	COMDAT ?move@?$_Char_traits@DH@std@@SAPADQADQBDI@Z
_TEXT	SEGMENT
__First1$ = 8						; size = 4
__First2$ = 12						; size = 4
__Count$ = 16						; size = 4
?move@?$_Char_traits@DH@std@@SAPADQADQBDI@Z PROC	; std::_Char_traits<char,int>::move, COMDAT

; 79   :         _In_reads_(_Count) const _Elem* const _First2, const size_t _Count) noexcept /* strengthened */ {

	push	ebp
	mov	ebp, esp

; 80   :         // copy [_First2, _First2 + _Count) to [_First1, ...), allowing overlap
; 81   : #if _HAS_MEMCPY_MEMMOVE_INTRINSICS
; 82   :         __builtin_memmove(_First1, _First2, _Count * sizeof(_Elem));
; 83   : #else // ^^^ _HAS_MEMCPY_MEMMOVE_INTRINSICS ^^^ / vvv !_HAS_MEMCPY_MEMMOVE_INTRINSICS vvv
; 84   : #if _HAS_CXX20
; 85   :         if (_STD is_constant_evaluated()) {
; 86   :             // dest: [_First1, _First1 + _Count)
; 87   :             // src: [_First2, _First2 + _Count)
; 88   :             // We need to handle overlapping ranges.
; 89   :             // If _First1 is in the src range, we need a backward loop.
; 90   :             // Otherwise, the forward loop works (even if the back of dest overlaps the front of src).
; 91   : 
; 92   :             // Usually, we would compare pointers with less-than, even though they could belong to different arrays.
; 93   :             // However, we're not allowed to do that during constant evaluation, so we need a linear scan for equality.
; 94   :             bool _Loop_forward = true;
; 95   : 
; 96   :             for (const _Elem* _Src = _First2; _Src != _First2 + _Count; ++_Src) {
; 97   :                 if (_First1 == _Src) {
; 98   :                     _Loop_forward = false;
; 99   :                     break;
; 100  :                 }
; 101  :             }
; 102  : 
; 103  :             if (_Loop_forward) {
; 104  :                 for (size_t _Idx = 0; _Idx != _Count; ++_Idx) {
; 105  :                     _First1[_Idx] = _First2[_Idx];
; 106  :                 }
; 107  :             } else {
; 108  :                 for (size_t _Idx = _Count; _Idx != 0; --_Idx) {
; 109  :                     _First1[_Idx - 1] = _First2[_Idx - 1];
; 110  :                 }
; 111  :             }
; 112  : 
; 113  :             return _First1;
; 114  :         }
; 115  : #endif // _HAS_CXX20
; 116  : 
; 117  :         _CSTD memmove(_First1, _First2, _Count * sizeof(_Elem));

	mov	eax, DWORD PTR __Count$[ebp]
	push	eax
	mov	ecx, DWORD PTR __First2$[ebp]
	push	ecx
	mov	edx, DWORD PTR __First1$[ebp]
	push	edx
	call	_memmove
	add	esp, 12					; 0000000cH

; 118  : #endif // ^^^ !_HAS_MEMCPY_MEMMOVE_INTRINSICS ^^^
; 119  : 
; 120  :         return _First1;

	mov	eax, DWORD PTR __First1$[ebp]

; 121  :     }

	cmp	ebp, esp
	call	__RTC_CheckEsp
	pop	ebp
	ret	0
?move@?$_Char_traits@DH@std@@SAPADQADQBDI@Z ENDP	; std::_Char_traits<char,int>::move
_TEXT	ENDS
; Function compile flags: /Odtp /RTCsu
; File C:\Program Files\Microsoft Visual Studio\2022\Community\VC\Tools\MSVC\14.33.31629\include\xstring
;	COMDAT ?copy@?$_Char_traits@DH@std@@SAPADQADQBDI@Z
_TEXT	SEGMENT
__First1$ = 8						; size = 4
__First2$ = 12						; size = 4
__Count$ = 16						; size = 4
?copy@?$_Char_traits@DH@std@@SAPADQADQBDI@Z PROC	; std::_Char_traits<char,int>::copy, COMDAT

; 48   :         _In_reads_(_Count) const _Elem* const _First2, const size_t _Count) noexcept /* strengthened */ {

	push	ebp
	mov	ebp, esp

; 49   :         // copy [_First2, _First2 + _Count) to [_First1, ...)
; 50   : #if _HAS_MEMCPY_MEMMOVE_INTRINSICS
; 51   :         __builtin_memcpy(_First1, _First2, _Count * sizeof(_Elem));
; 52   : #else // ^^^ _HAS_MEMCPY_MEMMOVE_INTRINSICS ^^^ / vvv !_HAS_MEMCPY_MEMMOVE_INTRINSICS vvv
; 53   : #if _HAS_CXX20
; 54   :         if (_STD is_constant_evaluated()) {
; 55   :             // pre: [_First1, _First1 + _Count) and [_First2, _First2 + _Count) do not overlap; see LWG-3085
; 56   :             for (size_t _Idx = 0; _Idx != _Count; ++_Idx) {
; 57   :                 _First1[_Idx] = _First2[_Idx];
; 58   :             }
; 59   : 
; 60   :             return _First1;
; 61   :         }
; 62   : #endif // _HAS_CXX20
; 63   : 
; 64   :         _CSTD memcpy(_First1, _First2, _Count * sizeof(_Elem));

	mov	eax, DWORD PTR __Count$[ebp]
	push	eax
	mov	ecx, DWORD PTR __First2$[ebp]
	push	ecx
	mov	edx, DWORD PTR __First1$[ebp]
	push	edx
	call	_memcpy
	add	esp, 12					; 0000000cH

; 65   : #endif // ^^^ !_HAS_MEMCPY_MEMMOVE_INTRINSICS ^^^
; 66   : 
; 67   :         return _First1;

	mov	eax, DWORD PTR __First1$[ebp]

; 68   :     }

	cmp	ebp, esp
	call	__RTC_CheckEsp
	pop	ebp
	ret	0
?copy@?$_Char_traits@DH@std@@SAPADQADQBDI@Z ENDP	; std::_Char_traits<char,int>::copy
_TEXT	ENDS
; Function compile flags: /Odtp /RTCsu
; File C:\Program Files\Microsoft Visual Studio\2022\Community\VC\Tools\MSVC\14.33.31629\include\xmemory
;	COMDAT ??0_Basic_container_proxy_ptr12@std@@IAE@XZ
_TEXT	SEGMENT
_this$ = -4						; size = 4
??0_Basic_container_proxy_ptr12@std@@IAE@XZ PROC	; std::_Basic_container_proxy_ptr12::_Basic_container_proxy_ptr12, COMDAT
; _this$ = ecx

; 1309 :     _CONSTEXPR20 _Basic_container_proxy_ptr12()                       = default;

	push	ebp
	mov	ebp, esp
	push	ecx
	mov	DWORD PTR _this$[ebp], ecx

; 1302 :     _Container_proxy* _Ptr = nullptr;

	mov	eax, DWORD PTR _this$[ebp]
	mov	DWORD PTR [eax], 0

; 1309 :     _CONSTEXPR20 _Basic_container_proxy_ptr12()                       = default;

	mov	eax, DWORD PTR _this$[ebp]
	mov	esp, ebp
	pop	ebp
	ret	0
??0_Basic_container_proxy_ptr12@std@@IAE@XZ ENDP	; std::_Basic_container_proxy_ptr12::_Basic_container_proxy_ptr12
_TEXT	ENDS
; Function compile flags: /Odtp /RTCsu
; File C:\Program Files\Microsoft Visual Studio\2022\Community\VC\Tools\MSVC\14.33.31629\include\xmemory
;	COMDAT ?_Release@_Basic_container_proxy_ptr12@std@@QAEXXZ
_TEXT	SEGMENT
_this$ = -4						; size = 4
?_Release@_Basic_container_proxy_ptr12@std@@QAEXXZ PROC	; std::_Basic_container_proxy_ptr12::_Release, COMDAT
; _this$ = ecx

; 1304 :     constexpr void _Release() noexcept { // disengage this _Basic_container_proxy_ptr12

	push	ebp
	mov	ebp, esp
	push	ecx
	mov	DWORD PTR _this$[ebp], ecx

; 1305 :         _Ptr = nullptr;

	mov	eax, DWORD PTR _this$[ebp]
	mov	DWORD PTR [eax], 0

; 1306 :     }

	mov	esp, ebp
	pop	ebp
	ret	0
?_Release@_Basic_container_proxy_ptr12@std@@QAEXXZ ENDP	; std::_Basic_container_proxy_ptr12::_Release
_TEXT	ENDS
; Function compile flags: /Odtp /RTCsu
; File C:\Program Files\Microsoft Visual Studio\2022\Community\VC\Tools\MSVC\14.33.31629\include\xmemory
;	COMDAT ?_Orphan_all_locked_v3@_Container_base12@std@@AAEXXZ
_TEXT	SEGMENT
__Lock$ = -12						; size = 4
_this$ = -4						; size = 4
?_Orphan_all_locked_v3@_Container_base12@std@@AAEXXZ PROC ; std::_Container_base12::_Orphan_all_locked_v3, COMDAT
; _this$ = ecx

; 1083 :     void _Orphan_all_locked_v3() noexcept {

	push	ebp
	mov	ebp, esp
	sub	esp, 16					; 00000010H
	mov	eax, -858993460				; ccccccccH
	mov	DWORD PTR [ebp-16], eax
	mov	DWORD PTR [ebp-12], eax
	mov	DWORD PTR [ebp-8], eax
	mov	DWORD PTR [ebp-4], eax
	mov	DWORD PTR _this$[ebp], ecx

; 1084 :         _Lockit _Lock(_LOCK_DEBUG);

	push	3
	lea	ecx, DWORD PTR __Lock$[ebp]
	call	??0_Lockit@std@@QAE@H@Z			; std::_Lockit::_Lockit

; 1085 :         _Orphan_all_unlocked_v3();

	mov	ecx, DWORD PTR _this$[ebp]
	call	?_Orphan_all_unlocked_v3@_Container_base12@std@@AAEXXZ ; std::_Container_base12::_Orphan_all_unlocked_v3

; 1086 :     }

	lea	ecx, DWORD PTR __Lock$[ebp]
	call	??1_Lockit@std@@QAE@XZ			; std::_Lockit::~_Lockit
	push	edx
	mov	ecx, ebp
	push	eax
	lea	edx, DWORD PTR $LN5@Orphan_all
	call	@_RTC_CheckStackVars@8
	pop	eax
	pop	edx
	add	esp, 16					; 00000010H
	cmp	ebp, esp
	call	__RTC_CheckEsp
	mov	esp, ebp
	pop	ebp
	ret	0
	npad	1
$LN5@Orphan_all:
	DD	1
	DD	$LN4@Orphan_all
$LN4@Orphan_all:
	DD	-12					; fffffff4H
	DD	4
	DD	$LN3@Orphan_all
$LN3@Orphan_all:
	DB	95					; 0000005fH
	DB	76					; 0000004cH
	DB	111					; 0000006fH
	DB	99					; 00000063H
	DB	107					; 0000006bH
	DB	0
?_Orphan_all_locked_v3@_Container_base12@std@@AAEXXZ ENDP ; std::_Container_base12::_Orphan_all_locked_v3
_TEXT	ENDS
; Function compile flags: /Odtp /RTCsu
; File C:\Program Files\Microsoft Visual Studio\2022\Community\VC\Tools\MSVC\14.33.31629\include\xmemory
;	COMDAT ?_Orphan_all_unlocked_v3@_Container_base12@std@@AAEXXZ
_TEXT	SEGMENT
__Pnext$1 = -8						; size = 4
_this$ = -4						; size = 4
?_Orphan_all_unlocked_v3@_Container_base12@std@@AAEXXZ PROC ; std::_Container_base12::_Orphan_all_unlocked_v3, COMDAT
; _this$ = ecx

; 1224 : _CONSTEXPR20 void _Container_base12::_Orphan_all_unlocked_v3() noexcept {

	push	ebp
	mov	ebp, esp
	sub	esp, 8
	mov	DWORD PTR _this$[ebp], ecx

; 1225 :     if (!_Myproxy) { // no proxy, already done

	mov	eax, DWORD PTR _this$[ebp]
	cmp	DWORD PTR [eax], 0
	jne	SHORT $LN5@Orphan_all

; 1226 :         return;

	jmp	SHORT $LN6@Orphan_all
$LN5@Orphan_all:

; 1227 :     }
; 1228 : 
; 1229 :     // proxy allocated, drain it
; 1230 :     for (auto& _Pnext = _Myproxy->_Myfirstiter; _Pnext; _Pnext = _Pnext->_Mynextiter) { // TRANSITION, VSO-1269037

	mov	ecx, DWORD PTR _this$[ebp]
	mov	edx, DWORD PTR [ecx]
	add	edx, 4
	mov	DWORD PTR __Pnext$1[ebp], edx
	jmp	SHORT $LN4@Orphan_all
$LN2@Orphan_all:
	mov	eax, DWORD PTR __Pnext$1[ebp]
	mov	ecx, DWORD PTR [eax]
	mov	edx, DWORD PTR __Pnext$1[ebp]
	mov	eax, DWORD PTR [ecx+4]
	mov	DWORD PTR [edx], eax
$LN4@Orphan_all:
	mov	ecx, DWORD PTR __Pnext$1[ebp]
	cmp	DWORD PTR [ecx], 0
	je	SHORT $LN3@Orphan_all

; 1231 :         _Pnext->_Myproxy = nullptr;

	mov	edx, DWORD PTR __Pnext$1[ebp]
	mov	eax, DWORD PTR [edx]
	mov	DWORD PTR [eax], 0

; 1232 :     }

	jmp	SHORT $LN2@Orphan_all
$LN3@Orphan_all:

; 1233 :     _Myproxy->_Myfirstiter = nullptr;

	mov	ecx, DWORD PTR _this$[ebp]
	mov	edx, DWORD PTR [ecx]
	mov	DWORD PTR [edx+4], 0
$LN6@Orphan_all:

; 1234 : }

	mov	esp, ebp
	pop	ebp
	ret	0
?_Orphan_all_unlocked_v3@_Container_base12@std@@AAEXXZ ENDP ; std::_Container_base12::_Orphan_all_unlocked_v3
_TEXT	ENDS
; Function compile flags: /Odtp /RTCsu
; File C:\Program Files\Microsoft Visual Studio\2022\Community\VC\Tools\MSVC\14.33.31629\include\xmemory
;	COMDAT ?_Orphan_all@_Container_base12@std@@QAEXXZ
_TEXT	SEGMENT
_this$ = -4						; size = 4
?_Orphan_all@_Container_base12@std@@QAEXXZ PROC		; std::_Container_base12::_Orphan_all, COMDAT
; _this$ = ecx

; 1236 : _CONSTEXPR20 void _Container_base12::_Orphan_all() noexcept {

	push	ebp
	mov	ebp, esp
	push	ecx
	mov	DWORD PTR [ebp-4], -858993460		; ccccccccH
	mov	DWORD PTR _this$[ebp], ecx

; 1237 : #if _ITERATOR_DEBUG_LEVEL == 2
; 1238 : #if _HAS_CXX20
; 1239 :     if (_STD is_constant_evaluated()) {
; 1240 :         _Orphan_all_unlocked_v3();
; 1241 :     } else
; 1242 : #endif // _HAS_CXX20
; 1243 :     {
; 1244 :         _Orphan_all_locked_v3();

	mov	ecx, DWORD PTR _this$[ebp]
	call	?_Orphan_all_locked_v3@_Container_base12@std@@AAEXXZ ; std::_Container_base12::_Orphan_all_locked_v3

; 1245 :     }
; 1246 : #endif // _ITERATOR_DEBUG_LEVEL == 2
; 1247 : }

	add	esp, 4
	cmp	ebp, esp
	call	__RTC_CheckEsp
	mov	esp, ebp
	pop	ebp
	ret	0
?_Orphan_all@_Container_base12@std@@QAEXXZ ENDP		; std::_Container_base12::_Orphan_all
_TEXT	ENDS
; Function compile flags: /Odtp /RTCsu
; File C:\Program Files\Microsoft Visual Studio\2022\Community\VC\Tools\MSVC\14.33.31629\include\xmemory
;	COMDAT ??0_Container_base12@std@@QAE@XZ
_TEXT	SEGMENT
_this$ = -4						; size = 4
??0_Container_base12@std@@QAE@XZ PROC			; std::_Container_base12::_Container_base12, COMDAT
; _this$ = ecx

; 1052 :     _CONSTEXPR20 _Container_base12() noexcept = default;

	push	ebp
	mov	ebp, esp
	push	ecx
	mov	DWORD PTR _this$[ebp], ecx

; 1053 : 
; 1054 :     _Container_base12(const _Container_base12&) = delete;
; 1055 :     _Container_base12& operator=(const _Container_base12&) = delete;
; 1056 : 
; 1057 :     _CONSTEXPR20 void _Orphan_all() noexcept;
; 1058 :     _CONSTEXPR20 void _Swap_proxy_and_iterators(_Container_base12&) noexcept;
; 1059 : 
; 1060 :     template <class _Alloc>
; 1061 :     _CONSTEXPR20 void _Alloc_proxy(_Alloc&& _Al) {
; 1062 :         _Container_proxy* const _New_proxy = _Unfancy(_Al.allocate(1));
; 1063 :         _Construct_in_place(*_New_proxy, this);
; 1064 :         _Myproxy            = _New_proxy;
; 1065 :         _New_proxy->_Mycont = this;
; 1066 :     }
; 1067 : 
; 1068 :     template <class _Alloc>
; 1069 :     _CONSTEXPR20 void _Reload_proxy(_Alloc&& _Old_alloc, _Alloc&& _New_alloc) {
; 1070 :         // pre: no iterators refer to the existing proxy
; 1071 :         _Container_proxy* const _New_proxy = _Unfancy(_New_alloc.allocate(1));
; 1072 :         _Construct_in_place(*_New_proxy, this);
; 1073 :         _New_proxy->_Mycont = this;
; 1074 :         _Delete_plain_internal(_Old_alloc, _STD exchange(_Myproxy, _New_proxy));
; 1075 :     }
; 1076 : 
; 1077 :     _Container_proxy* _Myproxy = nullptr;

	mov	eax, DWORD PTR _this$[ebp]
	mov	DWORD PTR [eax], 0

; 1052 :     _CONSTEXPR20 _Container_base12() noexcept = default;

	mov	eax, DWORD PTR _this$[ebp]
	mov	esp, ebp
	pop	ebp
	ret	0
??0_Container_base12@std@@QAE@XZ ENDP			; std::_Container_base12::_Container_base12
_TEXT	ENDS
; Function compile flags: /Odtp /RTCsu
; File C:\Program Files\Microsoft Visual Studio\2022\Community\VC\Tools\MSVC\14.33.31629\include\xmemory
;	COMDAT ??0_Container_proxy@std@@QAE@PAU_Container_base12@1@@Z
_TEXT	SEGMENT
_this$ = -4						; size = 4
__Mycont_$ = 8						; size = 4
??0_Container_proxy@std@@QAE@PAU_Container_base12@1@@Z PROC ; std::_Container_proxy::_Container_proxy, COMDAT
; _this$ = ecx

; 1044 :     _CONSTEXPR20 _Container_proxy(_Container_base12* _Mycont_) noexcept : _Mycont(_Mycont_) {}

	push	ebp
	mov	ebp, esp
	push	ecx
	mov	DWORD PTR _this$[ebp], ecx
	mov	eax, DWORD PTR _this$[ebp]
	mov	ecx, DWORD PTR __Mycont_$[ebp]
	mov	DWORD PTR [eax], ecx

; 1045 : 
; 1046 :     const _Container_base12* _Mycont       = nullptr;
; 1047 :     mutable _Iterator_base12* _Myfirstiter = nullptr;

	mov	edx, DWORD PTR _this$[ebp]
	mov	DWORD PTR [edx+4], 0

; 1044 :     _CONSTEXPR20 _Container_proxy(_Container_base12* _Mycont_) noexcept : _Mycont(_Mycont_) {}

	mov	eax, DWORD PTR _this$[ebp]
	mov	esp, ebp
	pop	ebp
	ret	4
??0_Container_proxy@std@@QAE@PAU_Container_base12@1@@Z ENDP ; std::_Container_proxy::_Container_proxy
_TEXT	ENDS
; Function compile flags: /Odtp /RTCsu
; File C:\Program Files\Microsoft Visual Studio\2022\Community\VC\Tools\MSVC\14.33.31629\include\xmemory
;	COMDAT ?_Adjust_manually_vector_aligned@std@@YAXAAPAXAAI@Z
_TEXT	SEGMENT
__Back_shift$ = -16					; size = 4
__Min_back_shift$ = -12					; size = 4
__Ptr_container$ = -8					; size = 4
__Ptr_user$ = -4					; size = 4
__Ptr$ = 8						; size = 4
__Bytes$ = 12						; size = 4
?_Adjust_manually_vector_aligned@std@@YAXAAPAXAAI@Z PROC ; std::_Adjust_manually_vector_aligned, COMDAT

; 147  : inline void _Adjust_manually_vector_aligned(void*& _Ptr, size_t& _Bytes) {

	push	ebp
	mov	ebp, esp
	sub	esp, 16					; 00000010H
	mov	eax, -858993460				; ccccccccH
	mov	DWORD PTR [ebp-16], eax
	mov	DWORD PTR [ebp-12], eax
	mov	DWORD PTR [ebp-8], eax
	mov	DWORD PTR [ebp-4], eax

; 148  :     // adjust parameters from _Allocate_manually_vector_aligned to pass to operator delete
; 149  :     _Bytes += _Non_user_size;

	mov	eax, DWORD PTR __Bytes$[ebp]
	mov	ecx, DWORD PTR [eax]
	add	ecx, 39					; 00000027H
	mov	edx, DWORD PTR __Bytes$[ebp]
	mov	DWORD PTR [edx], ecx

; 150  : 
; 151  :     const uintptr_t* const _Ptr_user = static_cast<uintptr_t*>(_Ptr);

	mov	eax, DWORD PTR __Ptr$[ebp]
	mov	ecx, DWORD PTR [eax]
	mov	DWORD PTR __Ptr_user$[ebp], ecx

; 152  :     const uintptr_t _Ptr_container   = _Ptr_user[-1];

	mov	edx, 4
	imul	eax, edx, -1
	mov	ecx, DWORD PTR __Ptr_user$[ebp]
	mov	edx, DWORD PTR [ecx+eax]
	mov	DWORD PTR __Ptr_container$[ebp], edx
$LN4@Adjust_man:

; 153  : 
; 154  :     // If the following asserts, it likely means that we are performing
; 155  :     // an aligned delete on memory coming from an unaligned allocation.
; 156  :     _STL_ASSERT(_Ptr_user[-2] == _Big_allocation_sentinel, "invalid argument");

	mov	eax, 4
	imul	ecx, eax, -2
	mov	edx, DWORD PTR __Ptr_user$[ebp]
	cmp	DWORD PTR [edx+ecx], -84215046		; fafafafaH
	jne	SHORT $LN7@Adjust_man
	jmp	SHORT $LN2@Adjust_man
$LN7@Adjust_man:
	push	OFFSET ??_C@_0BB@FCMFBGOM@invalid?5argument@
	push	OFFSET ??_C@_02DKCKIIND@?$CFs@
	push	0
	push	156					; 0000009cH
	push	OFFSET ??_C@_0GC@GFIHGGPN@C?3?2Program?5Files?2Microsoft?5Visu@
	push	2
	call	__CrtDbgReport
	add	esp, 24					; 00000018H
	cmp	eax, 1
	jne	SHORT $LN19@Adjust_man
	int	3
$LN19@Adjust_man:
	push	0
	push	156					; 0000009cH
	push	OFFSET ??_C@_1ME@KDCJLOP@?$AAC?$AA?3?$AA?2?$AAP?$AAr?$AAo?$AAg?$AAr?$AAa?$AAm?$AA?5?$AAF?$AAi?$AAl?$AAe@
	push	OFFSET ??_C@_11LOCGONAA@@
	push	OFFSET ??_C@_1CG@JNLFBNGN@?$AA?$CC?$AAi?$AAn?$AAv?$AAa?$AAl?$AAi?$AAd?$AA?5?$AAa?$AAr?$AAg?$AAu?$AAm?$AAe@
	call	__invalid_parameter
	add	esp, 20					; 00000014H
	xor	ecx, ecx
	jne	SHORT $LN7@Adjust_man
$LN2@Adjust_man:
	xor	edx, edx
	jne	SHORT $LN4@Adjust_man

; 157  : 
; 158  :     // Extra paranoia on aligned allocation/deallocation; ensure _Ptr_container is
; 159  :     // in range [_Min_back_shift, _Non_user_size]
; 160  : #ifdef _DEBUG
; 161  :     constexpr uintptr_t _Min_back_shift = 2 * sizeof(void*);

	mov	DWORD PTR __Min_back_shift$[ebp], 8

; 162  : #else // ^^^ _DEBUG ^^^ // vvv !_DEBUG vvv
; 163  :     constexpr uintptr_t _Min_back_shift = sizeof(void*);
; 164  : #endif // _DEBUG
; 165  :     const uintptr_t _Back_shift = reinterpret_cast<uintptr_t>(_Ptr) - _Ptr_container;

	mov	eax, DWORD PTR __Ptr$[ebp]
	mov	ecx, DWORD PTR [eax]
	sub	ecx, DWORD PTR __Ptr_container$[ebp]
	mov	DWORD PTR __Back_shift$[ebp], ecx
$LN10@Adjust_man:

; 166  :     _STL_VERIFY(_Back_shift >= _Min_back_shift && _Back_shift <= _Non_user_size, "invalid argument");

	cmp	DWORD PTR __Back_shift$[ebp], 8
	jb	SHORT $LN13@Adjust_man
	cmp	DWORD PTR __Back_shift$[ebp], 39	; 00000027H
	ja	SHORT $LN13@Adjust_man
	jmp	SHORT $LN8@Adjust_man
$LN13@Adjust_man:
	push	OFFSET ??_C@_0BB@FCMFBGOM@invalid?5argument@
	push	OFFSET ??_C@_02DKCKIIND@?$CFs@
	push	0
	push	166					; 000000a6H
	push	OFFSET ??_C@_0GC@GFIHGGPN@C?3?2Program?5Files?2Microsoft?5Visu@
	push	2
	call	__CrtDbgReport
	add	esp, 24					; 00000018H
	cmp	eax, 1
	jne	SHORT $LN20@Adjust_man
	int	3
$LN20@Adjust_man:
	push	0
	push	166					; 000000a6H
	push	OFFSET ??_C@_1ME@KDCJLOP@?$AAC?$AA?3?$AA?2?$AAP?$AAr?$AAo?$AAg?$AAr?$AAa?$AAm?$AA?5?$AAF?$AAi?$AAl?$AAe@
	push	OFFSET ??_C@_11LOCGONAA@@
	push	OFFSET ??_C@_1CG@JNLFBNGN@?$AA?$CC?$AAi?$AAn?$AAv?$AAa?$AAl?$AAi?$AAd?$AA?5?$AAa?$AAr?$AAg?$AAu?$AAm?$AAe@
	call	__invalid_parameter
	add	esp, 20					; 00000014H
	xor	eax, eax
	jne	SHORT $LN13@Adjust_man
$LN8@Adjust_man:
	xor	ecx, ecx
	jne	SHORT $LN10@Adjust_man

; 167  :     _Ptr = reinterpret_cast<void*>(_Ptr_container);

	mov	edx, DWORD PTR __Ptr$[ebp]
	mov	eax, DWORD PTR __Ptr_container$[ebp]
	mov	DWORD PTR [edx], eax

; 168  : }

	add	esp, 16					; 00000010H
	cmp	ebp, esp
	call	__RTC_CheckEsp
	mov	esp, ebp
	pop	ebp
	ret	0
?_Adjust_manually_vector_aligned@std@@YAXAAPAXAAI@Z ENDP ; std::_Adjust_manually_vector_aligned
_TEXT	ENDS
; Function compile flags: /Odtp /RTCsu
; File C:\Program Files\Microsoft Visual Studio\2022\Community\VC\Tools\MSVC\14.33.31629\include\xmemory
;	COMDAT ?_Allocate@_Default_allocate_traits@std@@SAPAXI@Z
_TEXT	SEGMENT
__Bytes$ = 8						; size = 4
?_Allocate@_Default_allocate_traits@std@@SAPAXI@Z PROC	; std::_Default_allocate_traits::_Allocate, COMDAT

; 78   :         void* _Allocate(const size_t _Bytes) {

	push	ebp
	mov	ebp, esp

; 79   :         return ::operator new(_Bytes);

	mov	eax, DWORD PTR __Bytes$[ebp]
	push	eax
	call	??2@YAPAXI@Z				; operator new
	add	esp, 4

; 80   :     }

	cmp	ebp, esp
	call	__RTC_CheckEsp
	pop	ebp
	ret	0
?_Allocate@_Default_allocate_traits@std@@SAPAXI@Z ENDP	; std::_Default_allocate_traits::_Allocate
_TEXT	ENDS
; Function compile flags: /Odtp /RTCsu
; File C:\Program Files\Microsoft Visual Studio\2022\Community\VC\Tools\MSVC\14.33.31629\include\limits
;	COMDAT ?max@?$numeric_limits@H@std@@SAHXZ
_TEXT	SEGMENT
?max@?$numeric_limits@H@std@@SAHXZ PROC			; std::numeric_limits<int>::max, COMDAT

; 552  :     _NODISCARD static constexpr int(max)() noexcept {

	push	ebp
	mov	ebp, esp

; 553  :         return INT_MAX;

	mov	eax, 2147483647				; 7fffffffH

; 554  :     }

	pop	ebp
	ret	0
?max@?$numeric_limits@H@std@@SAHXZ ENDP			; std::numeric_limits<int>::max
_TEXT	ENDS
; Function compile flags: /Odtp /RTCsu
; File C:\Program Files\Microsoft Visual Studio\2022\Community\VC\Tools\MSVC\14.33.31629\include\exception
;	COMDAT ?_Throw_bad_array_new_length@std@@YAXXZ
_TEXT	SEGMENT
$T1 = -12						; size = 12
?_Throw_bad_array_new_length@std@@YAXXZ PROC		; std::_Throw_bad_array_new_length, COMDAT

; 323  : [[noreturn]] inline void _Throw_bad_array_new_length() {

	push	ebp
	mov	ebp, esp
	sub	esp, 12					; 0000000cH
	mov	DWORD PTR [ebp-12], -858993460		; ccccccccH
	mov	DWORD PTR [ebp-8], -858993460		; ccccccccH
	mov	DWORD PTR [ebp-4], -858993460		; ccccccccH

; 324  :     _THROW(bad_array_new_length{});

	lea	ecx, DWORD PTR $T1[ebp]
	call	??0bad_array_new_length@std@@QAE@XZ	; std::bad_array_new_length::bad_array_new_length
	push	OFFSET __TI3?AVbad_array_new_length@std@@
	lea	eax, DWORD PTR $T1[ebp]
	push	eax
	call	__CxxThrowException@8
$LN2@Throw_bad_:

; 325  : }

	add	esp, 12					; 0000000cH
	cmp	ebp, esp
	call	__RTC_CheckEsp
	mov	esp, ebp
	pop	ebp
	ret	0
?_Throw_bad_array_new_length@std@@YAXXZ ENDP		; std::_Throw_bad_array_new_length
_TEXT	ENDS
; Function compile flags: /Odtp /RTCsu
;	COMDAT ??_Gbad_array_new_length@std@@UAEPAXI@Z
_TEXT	SEGMENT
_this$ = -4						; size = 4
___flags$ = 8						; size = 4
??_Gbad_array_new_length@std@@UAEPAXI@Z PROC		; std::bad_array_new_length::`scalar deleting destructor', COMDAT
; _this$ = ecx
	push	ebp
	mov	ebp, esp
	push	ecx
	mov	DWORD PTR [ebp-4], -858993460		; ccccccccH
	mov	DWORD PTR _this$[ebp], ecx
	mov	ecx, DWORD PTR _this$[ebp]
	call	??1bad_array_new_length@std@@UAE@XZ
	mov	eax, DWORD PTR ___flags$[ebp]
	and	eax, 1
	je	SHORT $LN2@scalar
	push	12					; 0000000cH
	mov	ecx, DWORD PTR _this$[ebp]
	push	ecx
	call	??3@YAXPAXI@Z				; operator delete
	add	esp, 8
$LN2@scalar:
	mov	eax, DWORD PTR _this$[ebp]
	add	esp, 4
	cmp	ebp, esp
	call	__RTC_CheckEsp
	mov	esp, ebp
	pop	ebp
	ret	4
??_Gbad_array_new_length@std@@UAEPAXI@Z ENDP		; std::bad_array_new_length::`scalar deleting destructor'
_TEXT	ENDS
; Function compile flags: /Odtp /RTCsu
;	COMDAT ??0bad_array_new_length@std@@QAE@ABV01@@Z
_TEXT	SEGMENT
_this$ = -4						; size = 4
___that$ = 8						; size = 4
??0bad_array_new_length@std@@QAE@ABV01@@Z PROC		; std::bad_array_new_length::bad_array_new_length, COMDAT
; _this$ = ecx
	push	ebp
	mov	ebp, esp
	push	ecx
	mov	DWORD PTR [ebp-4], -858993460		; ccccccccH
	mov	DWORD PTR _this$[ebp], ecx
	mov	eax, DWORD PTR ___that$[ebp]
	push	eax
	mov	ecx, DWORD PTR _this$[ebp]
	call	??0bad_alloc@std@@QAE@ABV01@@Z
	mov	ecx, DWORD PTR _this$[ebp]
	mov	DWORD PTR [ecx], OFFSET ??_7bad_array_new_length@std@@6B@
	mov	eax, DWORD PTR _this$[ebp]
	add	esp, 4
	cmp	ebp, esp
	call	__RTC_CheckEsp
	mov	esp, ebp
	pop	ebp
	ret	4
??0bad_array_new_length@std@@QAE@ABV01@@Z ENDP		; std::bad_array_new_length::bad_array_new_length
_TEXT	ENDS
; Function compile flags: /Odtp /RTCsu
;	COMDAT ??1bad_array_new_length@std@@UAE@XZ
_TEXT	SEGMENT
_this$ = -4						; size = 4
??1bad_array_new_length@std@@UAE@XZ PROC		; std::bad_array_new_length::~bad_array_new_length, COMDAT
; _this$ = ecx
	push	ebp
	mov	ebp, esp
	push	ecx
	mov	DWORD PTR [ebp-4], -858993460		; ccccccccH
	mov	DWORD PTR _this$[ebp], ecx
	mov	ecx, DWORD PTR _this$[ebp]
	call	??1bad_alloc@std@@UAE@XZ
	add	esp, 4
	cmp	ebp, esp
	call	__RTC_CheckEsp
	mov	esp, ebp
	pop	ebp
	ret	0
??1bad_array_new_length@std@@UAE@XZ ENDP		; std::bad_array_new_length::~bad_array_new_length
_TEXT	ENDS
; Function compile flags: /Odtp /RTCsu
; File C:\Program Files\Microsoft Visual Studio\2022\Community\VC\Tools\MSVC\14.33.31629\include\vcruntime_exception.h
;	COMDAT ??0bad_array_new_length@std@@QAE@XZ
_TEXT	SEGMENT
_this$ = -4						; size = 4
??0bad_array_new_length@std@@QAE@XZ PROC		; std::bad_array_new_length::bad_array_new_length, COMDAT
; _this$ = ecx

; 141  :     {

	push	ebp
	mov	ebp, esp
	push	ecx
	mov	DWORD PTR [ebp-4], -858993460		; ccccccccH
	mov	DWORD PTR _this$[ebp], ecx

; 140  :         : bad_alloc("bad array new length")

	push	OFFSET ??_C@_0BF@KINCDENJ@bad?5array?5new?5length@
	mov	ecx, DWORD PTR _this$[ebp]
	call	??0bad_alloc@std@@AAE@QBD@Z		; std::bad_alloc::bad_alloc

; 141  :     {

	mov	eax, DWORD PTR _this$[ebp]
	mov	DWORD PTR [eax], OFFSET ??_7bad_array_new_length@std@@6B@

; 142  :     }

	mov	eax, DWORD PTR _this$[ebp]
	add	esp, 4
	cmp	ebp, esp
	call	__RTC_CheckEsp
	mov	esp, ebp
	pop	ebp
	ret	0
??0bad_array_new_length@std@@QAE@XZ ENDP		; std::bad_array_new_length::bad_array_new_length
_TEXT	ENDS
; Function compile flags: /Odtp /RTCsu
;	COMDAT ??_Gbad_alloc@std@@UAEPAXI@Z
_TEXT	SEGMENT
_this$ = -4						; size = 4
___flags$ = 8						; size = 4
??_Gbad_alloc@std@@UAEPAXI@Z PROC			; std::bad_alloc::`scalar deleting destructor', COMDAT
; _this$ = ecx
	push	ebp
	mov	ebp, esp
	push	ecx
	mov	DWORD PTR [ebp-4], -858993460		; ccccccccH
	mov	DWORD PTR _this$[ebp], ecx
	mov	ecx, DWORD PTR _this$[ebp]
	call	??1bad_alloc@std@@UAE@XZ
	mov	eax, DWORD PTR ___flags$[ebp]
	and	eax, 1
	je	SHORT $LN2@scalar
	push	12					; 0000000cH
	mov	ecx, DWORD PTR _this$[ebp]
	push	ecx
	call	??3@YAXPAXI@Z				; operator delete
	add	esp, 8
$LN2@scalar:
	mov	eax, DWORD PTR _this$[ebp]
	add	esp, 4
	cmp	ebp, esp
	call	__RTC_CheckEsp
	mov	esp, ebp
	pop	ebp
	ret	4
??_Gbad_alloc@std@@UAEPAXI@Z ENDP			; std::bad_alloc::`scalar deleting destructor'
_TEXT	ENDS
; Function compile flags: /Odtp /RTCsu
;	COMDAT ??0bad_alloc@std@@QAE@ABV01@@Z
_TEXT	SEGMENT
_this$ = -4						; size = 4
___that$ = 8						; size = 4
??0bad_alloc@std@@QAE@ABV01@@Z PROC			; std::bad_alloc::bad_alloc, COMDAT
; _this$ = ecx
	push	ebp
	mov	ebp, esp
	push	ecx
	mov	DWORD PTR [ebp-4], -858993460		; ccccccccH
	mov	DWORD PTR _this$[ebp], ecx
	mov	eax, DWORD PTR ___that$[ebp]
	push	eax
	mov	ecx, DWORD PTR _this$[ebp]
	call	??0exception@std@@QAE@ABV01@@Z		; std::exception::exception
	mov	ecx, DWORD PTR _this$[ebp]
	mov	DWORD PTR [ecx], OFFSET ??_7bad_alloc@std@@6B@
	mov	eax, DWORD PTR _this$[ebp]
	add	esp, 4
	cmp	ebp, esp
	call	__RTC_CheckEsp
	mov	esp, ebp
	pop	ebp
	ret	4
??0bad_alloc@std@@QAE@ABV01@@Z ENDP			; std::bad_alloc::bad_alloc
_TEXT	ENDS
; Function compile flags: /Odtp /RTCsu
;	COMDAT ??1bad_alloc@std@@UAE@XZ
_TEXT	SEGMENT
_this$ = -4						; size = 4
??1bad_alloc@std@@UAE@XZ PROC				; std::bad_alloc::~bad_alloc, COMDAT
; _this$ = ecx
	push	ebp
	mov	ebp, esp
	push	ecx
	mov	DWORD PTR [ebp-4], -858993460		; ccccccccH
	mov	DWORD PTR _this$[ebp], ecx
	mov	ecx, DWORD PTR _this$[ebp]
	call	??1exception@std@@UAE@XZ		; std::exception::~exception
	add	esp, 4
	cmp	ebp, esp
	call	__RTC_CheckEsp
	mov	esp, ebp
	pop	ebp
	ret	0
??1bad_alloc@std@@UAE@XZ ENDP				; std::bad_alloc::~bad_alloc
_TEXT	ENDS
; Function compile flags: /Odtp /RTCsu
; File C:\Program Files\Microsoft Visual Studio\2022\Community\VC\Tools\MSVC\14.33.31629\include\vcruntime_exception.h
;	COMDAT ??0bad_alloc@std@@AAE@QBD@Z
_TEXT	SEGMENT
_this$ = -4						; size = 4
__Message$ = 8						; size = 4
??0bad_alloc@std@@AAE@QBD@Z PROC			; std::bad_alloc::bad_alloc, COMDAT
; _this$ = ecx

; 130  :     {

	push	ebp
	mov	ebp, esp
	push	ecx
	mov	DWORD PTR [ebp-4], -858993460		; ccccccccH
	mov	DWORD PTR _this$[ebp], ecx

; 129  :         : exception(_Message, 1)

	push	1
	mov	eax, DWORD PTR __Message$[ebp]
	push	eax
	mov	ecx, DWORD PTR _this$[ebp]
	call	??0exception@std@@QAE@QBDH@Z		; std::exception::exception

; 130  :     {

	mov	ecx, DWORD PTR _this$[ebp]
	mov	DWORD PTR [ecx], OFFSET ??_7bad_alloc@std@@6B@

; 131  :     }

	mov	eax, DWORD PTR _this$[ebp]
	add	esp, 4
	cmp	ebp, esp
	call	__RTC_CheckEsp
	mov	esp, ebp
	pop	ebp
	ret	4
??0bad_alloc@std@@AAE@QBD@Z ENDP			; std::bad_alloc::bad_alloc
_TEXT	ENDS
; Function compile flags: /Odtp /RTCsu
;	COMDAT ??_Gexception@std@@UAEPAXI@Z
_TEXT	SEGMENT
_this$ = -4						; size = 4
___flags$ = 8						; size = 4
??_Gexception@std@@UAEPAXI@Z PROC			; std::exception::`scalar deleting destructor', COMDAT
; _this$ = ecx
	push	ebp
	mov	ebp, esp
	push	ecx
	mov	DWORD PTR [ebp-4], -858993460		; ccccccccH
	mov	DWORD PTR _this$[ebp], ecx
	mov	ecx, DWORD PTR _this$[ebp]
	call	??1exception@std@@UAE@XZ		; std::exception::~exception
	mov	eax, DWORD PTR ___flags$[ebp]
	and	eax, 1
	je	SHORT $LN2@scalar
	push	12					; 0000000cH
	mov	ecx, DWORD PTR _this$[ebp]
	push	ecx
	call	??3@YAXPAXI@Z				; operator delete
	add	esp, 8
$LN2@scalar:
	mov	eax, DWORD PTR _this$[ebp]
	add	esp, 4
	cmp	ebp, esp
	call	__RTC_CheckEsp
	mov	esp, ebp
	pop	ebp
	ret	4
??_Gexception@std@@UAEPAXI@Z ENDP			; std::exception::`scalar deleting destructor'
_TEXT	ENDS
; Function compile flags: /Odtp /RTCsu
; File C:\Program Files\Microsoft Visual Studio\2022\Community\VC\Tools\MSVC\14.33.31629\include\vcruntime_exception.h
;	COMDAT ?what@exception@std@@UBEPBDXZ
_TEXT	SEGMENT
tv69 = -8						; size = 4
_this$ = -4						; size = 4
?what@exception@std@@UBEPBDXZ PROC			; std::exception::what, COMDAT
; _this$ = ecx

; 94   :     {

	push	ebp
	mov	ebp, esp
	sub	esp, 8
	mov	DWORD PTR _this$[ebp], ecx

; 95   :         return _Data._What ? _Data._What : "Unknown exception";

	mov	eax, DWORD PTR _this$[ebp]
	cmp	DWORD PTR [eax+4], 0
	je	SHORT $LN3@what
	mov	ecx, DWORD PTR _this$[ebp]
	mov	edx, DWORD PTR [ecx+4]
	mov	DWORD PTR tv69[ebp], edx
	jmp	SHORT $LN4@what
$LN3@what:
	mov	DWORD PTR tv69[ebp], OFFSET ??_C@_0BC@EOODALEL@Unknown?5exception@
$LN4@what:
	mov	eax, DWORD PTR tv69[ebp]

; 96   :     }

	mov	esp, ebp
	pop	ebp
	ret	0
?what@exception@std@@UBEPBDXZ ENDP			; std::exception::what
_TEXT	ENDS
; Function compile flags: /Odtp /RTCsu
; File C:\Program Files\Microsoft Visual Studio\2022\Community\VC\Tools\MSVC\14.33.31629\include\vcruntime_exception.h
;	COMDAT ??1exception@std@@UAE@XZ
_TEXT	SEGMENT
_this$ = -4						; size = 4
??1exception@std@@UAE@XZ PROC				; std::exception::~exception, COMDAT
; _this$ = ecx

; 89   :     {

	push	ebp
	mov	ebp, esp
	push	ecx
	mov	DWORD PTR [ebp-4], -858993460		; ccccccccH
	mov	DWORD PTR _this$[ebp], ecx
	mov	eax, DWORD PTR _this$[ebp]
	mov	DWORD PTR [eax], OFFSET ??_7exception@std@@6B@

; 90   :         __std_exception_destroy(&_Data);

	mov	ecx, DWORD PTR _this$[ebp]
	add	ecx, 4
	push	ecx
	call	___std_exception_destroy
	add	esp, 4

; 91   :     }

	add	esp, 4
	cmp	ebp, esp
	call	__RTC_CheckEsp
	mov	esp, ebp
	pop	ebp
	ret	0
??1exception@std@@UAE@XZ ENDP				; std::exception::~exception
_TEXT	ENDS
; Function compile flags: /Odtp /RTCsu
; File C:\Program Files\Microsoft Visual Studio\2022\Community\VC\Tools\MSVC\14.33.31629\include\vcruntime_exception.h
;	COMDAT ??0exception@std@@QAE@ABV01@@Z
_TEXT	SEGMENT
_this$ = -4						; size = 4
__Other$ = 8						; size = 4
??0exception@std@@QAE@ABV01@@Z PROC			; std::exception::exception, COMDAT
; _this$ = ecx

; 72   :     {

	push	ebp
	mov	ebp, esp
	push	ecx
	mov	DWORD PTR [ebp-4], -858993460		; ccccccccH
	mov	DWORD PTR _this$[ebp], ecx
	mov	eax, DWORD PTR _this$[ebp]
	mov	DWORD PTR [eax], OFFSET ??_7exception@std@@6B@

; 71   :         : _Data()

	xor	ecx, ecx
	mov	edx, DWORD PTR _this$[ebp]
	add	edx, 4
	mov	DWORD PTR [edx], ecx
	mov	DWORD PTR [edx+4], ecx

; 73   :         __std_exception_copy(&_Other._Data, &_Data);

	mov	eax, DWORD PTR _this$[ebp]
	add	eax, 4
	push	eax
	mov	ecx, DWORD PTR __Other$[ebp]
	add	ecx, 4
	push	ecx
	call	___std_exception_copy
	add	esp, 8

; 74   :     }

	mov	eax, DWORD PTR _this$[ebp]
	add	esp, 4
	cmp	ebp, esp
	call	__RTC_CheckEsp
	mov	esp, ebp
	pop	ebp
	ret	4
??0exception@std@@QAE@ABV01@@Z ENDP			; std::exception::exception
_TEXT	ENDS
; Function compile flags: /Odtp /RTCsu
; File C:\Program Files\Microsoft Visual Studio\2022\Community\VC\Tools\MSVC\14.33.31629\include\vcruntime_exception.h
;	COMDAT ??0exception@std@@QAE@QBDH@Z
_TEXT	SEGMENT
_this$ = -4						; size = 4
__Message$ = 8						; size = 4
___formal$ = 12						; size = 4
??0exception@std@@QAE@QBDH@Z PROC			; std::exception::exception, COMDAT
; _this$ = ecx

; 66   :     {

	push	ebp
	mov	ebp, esp
	push	ecx
	mov	DWORD PTR _this$[ebp], ecx
	mov	eax, DWORD PTR _this$[ebp]
	mov	DWORD PTR [eax], OFFSET ??_7exception@std@@6B@

; 65   :         : _Data()

	xor	ecx, ecx
	mov	edx, DWORD PTR _this$[ebp]
	add	edx, 4
	mov	DWORD PTR [edx], ecx
	mov	DWORD PTR [edx+4], ecx

; 67   :         _Data._What = _Message;

	mov	eax, DWORD PTR _this$[ebp]
	mov	ecx, DWORD PTR __Message$[ebp]
	mov	DWORD PTR [eax+4], ecx

; 68   :     }

	mov	eax, DWORD PTR _this$[ebp]
	mov	esp, ebp
	pop	ebp
	ret	8
??0exception@std@@QAE@QBDH@Z ENDP			; std::exception::exception
_TEXT	ENDS
; Function compile flags: /Odtp /RTCsu
; File C:\Program Files\Microsoft Visual Studio\2022\Community\VC\Tools\MSVC\14.33.31629\include\vcruntime_new.h
;	COMDAT ??2@YAPAXIPAX@Z
_TEXT	SEGMENT
__Size$ = 8						; size = 4
__Where$ = 12						; size = 4
??2@YAPAXIPAX@Z PROC					; operator new, COMDAT

; 168  :     {

	push	ebp
	mov	ebp, esp

; 169  :         (void)_Size;
; 170  :         return _Where;

	mov	eax, DWORD PTR __Where$[ebp]

; 171  :     }

	pop	ebp
	ret	0
??2@YAPAXIPAX@Z ENDP					; operator new
_TEXT	ENDS
; Function compile flags: /Odtp /RTCsu
; File D:\Windows Kits\10\Include\10.0.19041.0\ucrt\time.h
_TEXT	SEGMENT
__Time$ = 8						; size = 4
_time	PROC

; 521  :         {

	push	ebp
	mov	ebp, esp

; 522  :             return _time64(_Time);

	mov	eax, DWORD PTR __Time$[ebp]
	push	eax
	call	__time64
	add	esp, 4

; 523  :         }

	cmp	ebp, esp
	call	__RTC_CheckEsp
	pop	ebp
	ret	0
_time	ENDP
_TEXT	ENDS
; Function compile flags: /Odtp /RTCsu
; File D:\__Repos\__MyRepos\Raven_VS2022\Raven\main.cpp
_TEXT	SEGMENT
tv225 = -304						; size = 4
tv216 = -300						; size = 4
tv227 = -296						; size = 4
tv230 = -292						; size = 4
tv229 = -287						; size = 1
$T2 = -285						; size = 1
$T3 = -284						; size = 4
$T4 = -280						; size = 4
$T5 = -276						; size = 4
$T6 = -272						; size = 28
_err$7 = -240						; size = 4
_bDone$8 = -229						; size = 1
_timer$9 = -224						; size = 104
_winclass$ = -112					; size = 48
_hWnd$ = -60						; size = 4
_msg$ = -52						; size = 28
__$ArrayPad$ = -20					; size = 4
__$EHRec$ = -16						; size = 16
_hInstance$ = 8						; size = 4
_hPrevInstance$ = 12					; size = 4
_szCmdLine$ = 16					; size = 4
_iCmdShow$ = 20						; size = 4
_WinMain@16 PROC

; 438  : {

	push	ebp
	mov	ebp, esp
	push	-1
	push	__ehhandler$_WinMain@16
	mov	eax, DWORD PTR fs:0
	push	eax
	push	ecx
	sub	esp, 288				; 00000120H
	push	ebx
	push	esi
	push	edi
	lea	edi, DWORD PTR [ebp-304]
	mov	ecx, 72					; 00000048H
	mov	eax, -858993460				; ccccccccH
	rep stosd
	mov	eax, DWORD PTR ___security_cookie
	xor	eax, ebp
	mov	DWORD PTR __$ArrayPad$[ebp], eax
	push	eax
	lea	eax, DWORD PTR __$EHRec$[ebp+4]
	mov	DWORD PTR fs:0, eax
	mov	DWORD PTR __$EHRec$[ebp], esp
	mov	BYTE PTR $T2[ebp], 0

; 439  : 	MSG msg;
; 440  : 	//handle to our window
; 441  : 	HWND						hWnd;
; 442  : 
; 443  : 	//the window class structure
; 444  : 	WNDCLASSEX     winclass;
; 445  : 
; 446  : 	// first fill in the window class stucture
; 447  : 	winclass.cbSize = sizeof(WNDCLASSEX);

	mov	DWORD PTR _winclass$[ebp], 48		; 00000030H

; 448  : 	winclass.style = CS_HREDRAW | CS_VREDRAW;

	mov	DWORD PTR _winclass$[ebp+4], 3

; 449  : 	winclass.lpfnWndProc = WindowProc;

	mov	DWORD PTR _winclass$[ebp+8], OFFSET ?WindowProc@@YGJPAUHWND__@@IIJ@Z ; WindowProc

; 450  : 	winclass.cbClsExtra = 0;

	mov	DWORD PTR _winclass$[ebp+12], 0

; 451  : 	winclass.cbWndExtra = 0;

	mov	DWORD PTR _winclass$[ebp+16], 0

; 452  : 	winclass.hInstance = hInstance;

	mov	eax, DWORD PTR _hInstance$[ebp]
	mov	DWORD PTR _winclass$[ebp+20], eax

; 453  : 	winclass.hIcon = LoadIcon(NULL, IDI_APPLICATION);

	mov	esi, esp
	push	32512					; 00007f00H
	push	0
	call	DWORD PTR __imp__LoadIconA@8
	cmp	esi, esp
	call	__RTC_CheckEsp
	mov	DWORD PTR _winclass$[ebp+24], eax

; 454  : 	winclass.hCursor = LoadCursor(NULL, IDC_ARROW);

	mov	esi, esp
	push	32512					; 00007f00H
	push	0
	call	DWORD PTR __imp__LoadCursorA@8
	cmp	esi, esp
	call	__RTC_CheckEsp
	mov	DWORD PTR _winclass$[ebp+28], eax

; 455  : 	winclass.hbrBackground = NULL;

	mov	DWORD PTR _winclass$[ebp+32], 0

; 456  : 	winclass.lpszMenuName = MAKEINTRESOURCE(IDR_MENU1);

	mov	DWORD PTR _winclass$[ebp+36], 101	; 00000065H

; 457  : 	winclass.lpszClassName = g_szWindowClassName;

	mov	ecx, DWORD PTR ?g_szWindowClassName@@3PADA ; g_szWindowClassName
	mov	DWORD PTR _winclass$[ebp+40], ecx

; 458  : 	winclass.hIconSm = LoadIcon(NULL, IDI_APPLICATION);

	mov	esi, esp
	push	32512					; 00007f00H
	push	0
	call	DWORD PTR __imp__LoadIconA@8
	cmp	esi, esp
	call	__RTC_CheckEsp
	mov	DWORD PTR _winclass$[ebp+44], eax

; 459  : 
; 460  : 	//register the window class
; 461  : 	if (!RegisterClassEx(&winclass))

	mov	esi, esp
	lea	edx, DWORD PTR _winclass$[ebp]
	push	edx
	call	DWORD PTR __imp__RegisterClassExA@4
	cmp	esi, esp
	call	__RTC_CheckEsp
	movzx	eax, ax
	test	eax, eax
	jne	SHORT $LN6@WinMain

; 462  : 	{
; 463  : 		MessageBox(NULL, "Registration Failed!", "Error", 0);

	mov	esi, esp
	push	0
	push	OFFSET $SG173701
	push	OFFSET $SG173702
	push	0
	call	DWORD PTR __imp__MessageBoxA@16
	cmp	esi, esp
	call	__RTC_CheckEsp

; 464  : 
; 465  : 		//exit the application
; 466  : 		return 0;

	xor	eax, eax
	jmp	$LN1@WinMain
$LN6@WinMain:

; 467  : 	}
; 468  : 
; 469  : 
; 470  : 	try

	mov	DWORD PTR __$EHRec$[ebp+12], 0

; 471  : 	{
; 472  : 		//create the window and assign its ID to hwnd    
; 473  : 		hWnd = CreateWindowEx(NULL,                 // extended style

	mov	esi, esp
	push	0
	mov	ecx, DWORD PTR _hInstance$[ebp]
	push	ecx
	push	0
	push	0
	push	500					; 000001f4H
	push	500					; 000001f4H
	mov	edi, esp
	push	1
	call	DWORD PTR __imp__GetSystemMetrics@4
	cmp	edi, esp
	call	__RTC_CheckEsp
	cdq
	sub	eax, edx
	sar	eax, 1
	sub	eax, 250				; 000000faH
	push	eax
	mov	edi, esp
	push	0
	call	DWORD PTR __imp__GetSystemMetrics@4
	cmp	edi, esp
	call	__RTC_CheckEsp
	cdq
	sub	eax, edx
	sar	eax, 1
	sub	eax, 250				; 000000faH
	push	eax
	push	281542656				; 10c80000H
	mov	edx, DWORD PTR ?g_szApplicationName@@3PADA ; g_szApplicationName
	push	edx
	mov	eax, DWORD PTR ?g_szWindowClassName@@3PADA ; g_szWindowClassName
	push	eax
	push	0
	call	DWORD PTR __imp__CreateWindowExA@48
	cmp	esi, esp
	call	__RTC_CheckEsp
	mov	DWORD PTR _hWnd$[ebp], eax

; 474  : 			g_szWindowClassName,  // window class name
; 475  : 			g_szApplicationName,  // window caption
; 476  : 			WS_OVERLAPPED | WS_VISIBLE | WS_CAPTION | WS_SYSMENU,  // window style
; 477  : 			GetSystemMetrics(SM_CXSCREEN) / 2 - WindowWidth / 2,
; 478  : 			GetSystemMetrics(SM_CYSCREEN) / 2 - WindowHeight / 2,
; 479  : 			WindowWidth,     // initial x size
; 480  : 			WindowHeight,    // initial y size
; 481  : 			NULL,                 // parent window handle
; 482  : 			NULL,                 // window menu handle
; 483  : 			hInstance,            // program instance handle
; 484  : 			NULL);                // creation parameters
; 485  : 
; 486  : 		//make sure the window creation has gone OK
; 487  : 		if (!hWnd)

	cmp	DWORD PTR _hWnd$[ebp], 0
	jne	SHORT $LN8@WinMain

; 488  : 		{
; 489  : 			MessageBox(NULL, "CreateWindowEx Failed!", "Error!", 0);

	mov	esi, esp
	push	0
	push	OFFSET $SG173705
	push	OFFSET $SG173706
	push	0
	call	DWORD PTR __imp__MessageBoxA@16
	cmp	esi, esp
	call	__RTC_CheckEsp
$LN8@WinMain:

; 490  : 		}
; 491  : 
; 492  : 
; 493  : 		//make the window visible
; 494  : 		ShowWindow(hWnd, iCmdShow);

	mov	esi, esp
	mov	ecx, DWORD PTR _iCmdShow$[ebp]
	push	ecx
	mov	edx, DWORD PTR _hWnd$[ebp]
	push	edx
	call	DWORD PTR __imp__ShowWindow@8
	cmp	esi, esp
	call	__RTC_CheckEsp

; 495  : 		UpdateWindow(hWnd);

	mov	esi, esp
	mov	eax, DWORD PTR _hWnd$[ebp]
	push	eax
	call	DWORD PTR __imp__UpdateWindow@4
	cmp	esi, esp
	call	__RTC_CheckEsp

; 496  : 
; 497  : 		//create a timer
; 498  : 		PrecisionTimer timer(FrameRate);

	sub	esp, 8
	movsd	xmm0, QWORD PTR __real@404e000000000000
	movsd	QWORD PTR [esp], xmm0
	lea	ecx, DWORD PTR _timer$9[ebp]
	call	??0PrecisionTimer@@QAE@N@Z		; PrecisionTimer::PrecisionTimer

; 499  : 
; 500  : 		//start the timer
; 501  : 		timer.Start();

	lea	ecx, DWORD PTR _timer$9[ebp]
	call	?Start@PrecisionTimer@@QAEXXZ		; PrecisionTimer::Start

; 502  : 
; 503  : 		//enter the message loop
; 504  : 		bool bDone = false;

	mov	BYTE PTR _bDone$8[ebp], 0
$LN2@WinMain:

; 505  : 
; 506  : 		while (!bDone)

	movzx	ecx, BYTE PTR _bDone$8[ebp]
	test	ecx, ecx
	jne	$LN3@WinMain
$LN4@WinMain:

; 507  : 		{
; 508  : 			while (PeekMessage(&msg, NULL, 0, 0, PM_REMOVE))

	mov	esi, esp
	push	1
	push	0
	push	0
	push	0
	mov	BYTE PTR $T2[ebp], 1
	lea	edx, DWORD PTR _msg$[ebp]
	push	edx
	call	DWORD PTR __imp__PeekMessageA@20
	cmp	esi, esp
	call	__RTC_CheckEsp
	test	eax, eax
	je	SHORT $LN5@WinMain

; 509  : 			{
; 510  : 				if (msg.message == WM_QUIT)

	cmp	DWORD PTR _msg$[ebp+4], 18		; 00000012H
	jne	SHORT $LN9@WinMain

; 511  : 				{
; 512  : 					// Stop loop if it's a quit message
; 513  : 					bDone = true;

	mov	BYTE PTR _bDone$8[ebp], 1

; 514  : 				}

	jmp	SHORT $LN10@WinMain
$LN9@WinMain:

; 515  : 
; 516  : 				else
; 517  : 				{
; 518  : 					TranslateMessage(&msg);

	mov	BYTE PTR $T2[ebp], 1
	mov	esi, esp
	lea	eax, DWORD PTR _msg$[ebp]
	push	eax
	call	DWORD PTR __imp__TranslateMessage@4
	cmp	esi, esp
	call	__RTC_CheckEsp

; 519  : 					DispatchMessage(&msg);

	mov	BYTE PTR $T2[ebp], 1
	mov	esi, esp
	lea	ecx, DWORD PTR _msg$[ebp]
	push	ecx
	call	DWORD PTR __imp__DispatchMessageA@4
	cmp	esi, esp
	call	__RTC_CheckEsp
$LN10@WinMain:

; 520  : 				}
; 521  : 			}

	jmp	SHORT $LN4@WinMain
$LN5@WinMain:

; 522  : 
; 523  : 			if (timer.ReadyForNextFrame() && msg.message != WM_QUIT)

	lea	ecx, DWORD PTR _timer$9[ebp]
	call	?ReadyForNextFrame@PrecisionTimer@@QAE_NXZ ; PrecisionTimer::ReadyForNextFrame
	mov	BYTE PTR tv229[ebp], al
	movzx	edx, BYTE PTR tv229[ebp]
	test	edx, edx
	je	SHORT $LN11@WinMain
	cmp	DWORD PTR _msg$[ebp+4], 18		; 00000012H
	je	SHORT $LN11@WinMain

; 524  : 			{
; 525  : 				g_pRaven->Update();

	mov	ecx, DWORD PTR ?g_pRaven@@3PAVRaven_Game@@A ; g_pRaven
	call	?Update@Raven_Game@@QAEXXZ		; Raven_Game::Update

; 526  : 
; 527  : 				//render 
; 528  : 				RedrawWindow(hWnd);

	push	1
	mov	eax, DWORD PTR _hWnd$[ebp]
	push	eax
	call	?RedrawWindow@@YAXPAUHWND__@@_N@Z	; RedrawWindow
	add	esp, 8
$LN11@WinMain:

; 529  : 			}
; 530  : 
; 531  : 			//give the OS a little time
; 532  : 			Sleep(2);

	mov	esi, esp
	push	2
	call	DWORD PTR __imp__Sleep@4
	cmp	esi, esp
	call	__RTC_CheckEsp

; 533  : 
; 534  : 		}//end while

	jmp	$LN2@WinMain
$LN3@WinMain:

; 535  : 
; 536  : 	}//end try block

	jmp	__tryend$_WinMain@16$1
__catch$_WinMain@16$0:

; 537  : 
; 538  : 	catch (const std::runtime_error& err)
; 539  : 	{
; 540  : 		ErrorBox(std::string(err.what()));

	mov	esi, esp
	mov	ecx, DWORD PTR _err$7[ebp]
	mov	edx, DWORD PTR [ecx]
	mov	ecx, DWORD PTR _err$7[ebp]
	mov	eax, DWORD PTR [edx+4]
	call	eax
	cmp	esi, esp
	call	__RTC_CheckEsp
	push	eax
	lea	ecx, DWORD PTR $T6[ebp]
	call	??0?$basic_string@DU?$char_traits@D@std@@V?$allocator@D@2@@std@@QAE@QBD@Z ; std::basic_string<char,std::char_traits<char>,std::allocator<char> >::basic_string<char,std::char_traits<char>,std::allocator<char> >
	mov	DWORD PTR tv230[ebp], eax
	mov	ecx, DWORD PTR tv230[ebp]
	mov	DWORD PTR tv227[ebp], ecx
	mov	BYTE PTR __$EHRec$[ebp+12], 2
	mov	edx, DWORD PTR tv227[ebp]
	push	edx
	call	?ErrorBox@@YAXAAV?$basic_string@DU?$char_traits@D@std@@V?$allocator@D@2@@std@@@Z ; ErrorBox
	add	esp, 4
	mov	BYTE PTR __$EHRec$[ebp+12], 1
	lea	ecx, DWORD PTR $T6[ebp]
	call	??1?$basic_string@DU?$char_traits@D@std@@V?$allocator@D@2@@std@@QAE@XZ ; std::basic_string<char,std::char_traits<char>,std::allocator<char> >::~basic_string<char,std::char_traits<char>,std::allocator<char> >

; 541  : 		//tidy up
; 542  : 		delete g_pRaven;

	mov	eax, DWORD PTR ?g_pRaven@@3PAVRaven_Game@@A ; g_pRaven
	mov	DWORD PTR $T5[ebp], eax
	cmp	DWORD PTR $T5[ebp], 0
	je	SHORT $LN13@WinMain
	push	1
	mov	ecx, DWORD PTR $T5[ebp]
	call	??_GRaven_Game@@QAEPAXI@Z
	mov	DWORD PTR tv216[ebp], eax
	jmp	SHORT $LN14@WinMain
$LN13@WinMain:
	mov	DWORD PTR tv216[ebp], 0
$LN14@WinMain:

; 543  : 		UnregisterClass(g_szWindowClassName, winclass.hInstance);

	mov	esi, esp
	mov	ecx, DWORD PTR _winclass$[ebp+20]
	push	ecx
	mov	edx, DWORD PTR ?g_szWindowClassName@@3PADA ; g_szWindowClassName
	push	edx
	call	DWORD PTR __imp__UnregisterClassA@8
	cmp	esi, esp
	call	__RTC_CheckEsp

; 544  : 		return 0;

	mov	DWORD PTR $T4[ebp], 0
	mov	eax, $LN21@WinMain
	ret	0

; 545  : 	}

	mov	eax, __tryend$_WinMain@16$1
	ret	0
__tryend$_WinMain@16$1:
	mov	DWORD PTR __$EHRec$[ebp+12], -1
	jmp	SHORT $LN20@WinMain
$LN21@WinMain:
	mov	DWORD PTR __$EHRec$[ebp+12], -1

; 544  : 		return 0;

	mov	eax, DWORD PTR $T4[ebp]
	jmp	SHORT $LN1@WinMain
$LN20@WinMain:

; 546  : 
; 547  : 	//tidy up
; 548  : 	UnregisterClass(g_szWindowClassName, winclass.hInstance);

	mov	esi, esp
	mov	eax, DWORD PTR _winclass$[ebp+20]
	push	eax
	mov	ecx, DWORD PTR ?g_szWindowClassName@@3PADA ; g_szWindowClassName
	push	ecx
	call	DWORD PTR __imp__UnregisterClassA@8
	cmp	esi, esp
	call	__RTC_CheckEsp

; 549  : 	delete g_pRaven;

	mov	edx, DWORD PTR ?g_pRaven@@3PAVRaven_Game@@A ; g_pRaven
	mov	DWORD PTR $T3[ebp], edx
	cmp	DWORD PTR $T3[ebp], 0
	je	SHORT $LN15@WinMain
	push	1
	mov	ecx, DWORD PTR $T3[ebp]
	call	??_GRaven_Game@@QAEPAXI@Z
	mov	DWORD PTR tv225[ebp], eax
	jmp	SHORT $LN16@WinMain
$LN15@WinMain:
	mov	DWORD PTR tv225[ebp], 0
$LN16@WinMain:

; 550  : 	return msg.wParam;

	cmp	BYTE PTR $T2[ebp], 0
	jne	SHORT $LN22@WinMain
	push	OFFSET $LN23@WinMain
	call	__RTC_UninitUse
	add	esp, 4
$LN22@WinMain:
	mov	eax, DWORD PTR _msg$[ebp+8]
$LN1@WinMain:

; 551  : }

	push	edx
	mov	ecx, ebp
	push	eax
	lea	edx, DWORD PTR $LN29@WinMain
	call	@_RTC_CheckStackVars@8
	pop	eax
	pop	edx
	mov	ecx, DWORD PTR __$EHRec$[ebp+4]
	mov	DWORD PTR fs:0, ecx
	pop	ecx
	pop	edi
	pop	esi
	pop	ebx
	mov	ecx, DWORD PTR __$ArrayPad$[ebp]
	xor	ecx, ebp
	call	@__security_check_cookie@4
	add	esp, 304				; 00000130H
	cmp	ebp, esp
	call	__RTC_CheckEsp
	mov	esp, ebp
	pop	ebp
	ret	16					; 00000010H
	npad	3
$LN29@WinMain:
	DD	4
	DD	$LN28@WinMain
$LN28@WinMain:
	DD	-52					; ffffffccH
	DD	28					; 0000001cH
	DD	$LN23@WinMain
	DD	-112					; ffffff90H
	DD	48					; 00000030H
	DD	$LN24@WinMain
	DD	-224					; ffffff20H
	DD	104					; 00000068H
	DD	$LN25@WinMain
	DD	-240					; ffffff10H
	DD	4
	DD	$LN26@WinMain
$LN26@WinMain:
	DB	101					; 00000065H
	DB	114					; 00000072H
	DB	114					; 00000072H
	DB	0
$LN25@WinMain:
	DB	116					; 00000074H
	DB	105					; 00000069H
	DB	109					; 0000006dH
	DB	101					; 00000065H
	DB	114					; 00000072H
	DB	0
$LN24@WinMain:
	DB	119					; 00000077H
	DB	105					; 00000069H
	DB	110					; 0000006eH
	DB	99					; 00000063H
	DB	108					; 0000006cH
	DB	97					; 00000061H
	DB	115					; 00000073H
	DB	115					; 00000073H
	DB	0
$LN23@WinMain:
	DB	109					; 0000006dH
	DB	115					; 00000073H
	DB	103					; 00000067H
	DB	0
_TEXT	ENDS
text$x	SEGMENT
__unwindfunclet$_WinMain@16$2:
	lea	ecx, DWORD PTR $T6[ebp]
	jmp	??1?$basic_string@DU?$char_traits@D@std@@V?$allocator@D@2@@std@@QAE@XZ ; std::basic_string<char,std::char_traits<char>,std::allocator<char> >::~basic_string<char,std::char_traits<char>,std::allocator<char> >
	int	3
	int	3
	int	3
	int	3
	int	3
__ehhandler$_WinMain@16:
	npad	1
	npad	1
	mov	edx, DWORD PTR [esp+8]
	lea	eax, DWORD PTR [edx+12]
	mov	ecx, DWORD PTR [edx-308]
	xor	ecx, eax
	call	@__security_check_cookie@4
	mov	ecx, DWORD PTR [edx-8]
	xor	ecx, eax
	call	@__security_check_cookie@4
	mov	eax, OFFSET __ehfuncinfo$_WinMain@16
	jmp	___CxxFrameHandler3
text$x	ENDS
_WinMain@16 ENDP
; Function compile flags: /Odtp /RTCsu
; File D:\__Repos\__MyRepos\Raven_VS2022\Raven\main.cpp
;	COMDAT ?__empty_global_delete@@YAXPAXI@Z
_TEXT	SEGMENT
___formal$ = 8						; size = 4
___formal$ = 12						; size = 4
?__empty_global_delete@@YAXPAXI@Z PROC			; __empty_global_delete, COMDAT

	push	ebp
	mov	ebp, esp
	pop	ebp
	ret	0
?__empty_global_delete@@YAXPAXI@Z ENDP			; __empty_global_delete
_TEXT	ENDS
; Function compile flags: /Odtp /RTCsu
; File D:\__Repos\__MyRepos\Raven_VS2022\Raven\main.cpp
;	COMDAT ?__empty_global_delete@@YAXPAX@Z
_TEXT	SEGMENT
___formal$ = 8						; size = 4
?__empty_global_delete@@YAXPAX@Z PROC			; __empty_global_delete, COMDAT

	push	ebp
	mov	ebp, esp
	pop	ebp
	ret	0
?__empty_global_delete@@YAXPAX@Z ENDP			; __empty_global_delete
_TEXT	ENDS
END
